

HI-TECH Software PIC LITE Macro Assembler V9.83 build 10920 
                                                                                               Sat Mar 05 21:13:10 2016

HI-TECH Software Omniscient Code Generator (Lite mode) build 10920
     1  0000                     opt subtitle "HI-TECH Software Omniscient Code Generator (Lite mode) build 10920"
     2                           
     3                           opt pagewidth 120
     4                           
     5                           	opt lm
     6                           
     7                           	processor	16F877A
     8                           clrc	macro
     9                           	bcf	3,0
    10  0000                     	endm
    11                           clrz	macro
    12                           	bcf	3,2
    13  0000                     	endm
    14                           setc	macro
    15                           	bsf	3,0
    16  0000                     	endm
    17                           setz	macro
    18                           	bsf	3,2
    19  0000                     	endm
    20                           skipc	macro
    21                           	btfss	3,0
    22  0000                     	endm
    23                           skipz	macro
    24                           	btfss	3,2
    25  0000                     	endm
    26                           skipnc	macro
    27                           	btfsc	3,0
    28  0000                     	endm
    29                           skipnz	macro
    30                           	btfsc	3,2
    31  0000                     	endm
    32  0000                     indf	equ	0
    33  0000                     indf0	equ	0
    34  0002                     pc	equ	2
    35  0002                     pcl	equ	2
    36  0003                     status	equ	3
    37  0004                     fsr	equ	4
    38  0004                     fsr0	equ	4
    39  0001                     c	equ	1
    40  0000                     z	equ	0
    41  000A                     pclath	equ	10
    42                           	FNCALL	_main,_Setup_IOports
    43                           	FNCALL	_main,_atod_init
    44                           	FNCALL	_main,_lcd_init
    45                           	FNCALL	_main,_clr_display
    46                           	FNCALL	_main,_Serial_Init
    47                           	FNCALL	_main,_Timer1_Init
    48                           	FNCALL	_main,_enableInterrupt
    49                           	FNCALL	_main,_printf
    50                           	FNCALL	_main,_position
    51                           	FNCALL	_main,_eeprom_write
    52                           	FNCALL	_main,_eeprom_read
    53                           	FNCALL	_main,_nop
    54                           	FNCALL	_main,_LCDTimeUpdate
    55                           	FNCALL	_main,_a2d_read
    56                           	FNCALL	_main,_Serial_Print_Int
    57                           	FNCALL	_main,_Serial_Print
    58                           	FNCALL	_main,_Serial_NewLine
    59                           	FNCALL	_main,_CheckMode
    60                           	FNCALL	_main,_RotateMotorLeft
    61                           	FNCALL	_main,_RotateMotorRight
    62                           	FNCALL	_LCDTimeUpdate,___lwdiv
    63                           	FNCALL	_LCDTimeUpdate,_LCD_print_char
    64                           	FNCALL	_LCDTimeUpdate,___lwmod
    65                           	FNCALL	_CheckMode,_CheckKeyPad
    66                           	FNCALL	_CheckMode,_Serial_Print
    67                           	FNCALL	_CheckMode,_Serial_Println_Int
    68                           	FNCALL	_CheckMode,_nop
    69                           	FNCALL	_printf,_putch
    70                           	FNCALL	_printf,_isdigit
    71                           	FNCALL	_printf,___wmul
    72                           	FNCALL	_printf,___bmul
    73                           	FNCALL	_printf,___lwdiv
    74                           	FNCALL	_printf,___lwmod
    75                           	FNCALL	_LCD_print_char,_position
    76                           	FNCALL	_LCD_print_char,_lcd_add
    77                           	FNCALL	_CheckKeyPad,_RowNo
    78                           	FNCALL	_CheckKeyPad,_ColomnNo
    79                           	FNCALL	_a2d_read,_read_a2d_value
    80                           	FNCALL	_clr_display,_lcd_add
    81                           	FNCALL	_position,_lcd_add
    82                           	FNCALL	_putch,_lcd_add
    83                           	FNCALL	_Serial_Print_Int,___awdiv
    84                           	FNCALL	_Serial_Print_Int,___awmod
    85                           	FNCALL	_Serial_Println_Int,___awdiv
    86                           	FNCALL	_Serial_Println_Int,___awmod
    87                           	FNROOT	_main
    88                           	FNCALL	_isr,i1_LCD_print_char
    89                           	FNCALL	_isr,i1___lwmod
    90                           	FNCALL	i1_LCD_print_char,i1_position
    91                           	FNCALL	i1_LCD_print_char,i1_lcd_add
    92                           	FNCALL	i1_position,i1_lcd_add
    93                           	FNCALL	intlevel1,_isr
    94                           	global	intlevel1
    95                           	FNROOT	intlevel1
    96                           	global	_bed_nu
    97                           	global	_i
    98                           psect	idataBANK0,class=CODE,space=0,delta=2
    99                           global __pidataBANK0
   100  0016                     __pidataBANK0:
   101                           	file	"D:\ELECTRONIC\2016\1. Automated Solar Panel Orientation Setter\Firmware\ver4\Auto
                                 mated Solar Panel Orientation Setter.c"
   102                           	line	13
   103                           
   104                           ;initializer for _bed_nu
   105  0016  3401               	retlw	01h
   106                           	line	14
   107                           
   108                           ;initializer for _i
   109  0017  3401               	retlw	01h
   110                           	global	_octpowers
   111                           psect	strings,class=STRING,delta=2
   112                           global __pstrings
   113  0800                     __pstrings:
   114                           ;	global	stringdir,stringtab,__stringbase
   115  0800                     stringtab:
   116                           ;	String table - string pointers are 1 byte each
   117  0800                     stringcode:stringdir:
      + 0800                     stringdir:	
   118  0800  3008               movlw high(stringdir)
   119  0801  008A               movwf pclath
   120  0802  0804               movf fsr,w
   121  0803  0A84               incf fsr
   122  0804  0782               	addwf pc
   123  0805                     __stringbase:
   124  0805  3400               	retlw	0
   125                           psect	strings
   126                           	file	"C:\Program Files (x86)\HI-TECH Software\PICC\9.83\lib\doprnt.c"
   127                           	line	365
   128  0806                     _octpowers:
   129  0806  3401               	retlw	01h
   130  0807  3400               	retlw	0
   131                           
   132  0808  3408               	retlw	08h
   133  0809  3400               	retlw	0
   134                           
   135  080A  3440               	retlw	040h
   136  080B  3400               	retlw	0
   137                           
   138  080C  3400               	retlw	0
   139  080D  3402               	retlw	02h
   140                           
   141  080E  3400               	retlw	0
   142  080F  3410               	retlw	010h
   143                           
   144  0810  3400               	retlw	0
   145  0811  3480               	retlw	080h
   146                           
   147                           	global	_dpowers
   148                           psect	strings
   149                           	file	"C:\Program Files (x86)\HI-TECH Software\PICC\9.83\lib\doprnt.c"
   150                           	line	350
   151  0812                     _dpowers:
   152  0812  3401               	retlw	01h
   153  0813  3400               	retlw	0
   154                           
   155  0814  340A               	retlw	0Ah
   156  0815  3400               	retlw	0
   157                           
   158  0816  3464               	retlw	064h
   159  0817  3400               	retlw	0
   160                           
   161  0818  34E8               	retlw	0E8h
   162  0819  3403               	retlw	03h
   163                           
   164  081A  3410               	retlw	010h
   165  081B  3427               	retlw	027h
   166                           
   167                           	global	_hexpowers
   168                           psect	strings
   169                           	file	"C:\Program Files (x86)\HI-TECH Software\PICC\9.83\lib\doprnt.c"
   170                           	line	358
   171  081C                     _hexpowers:
   172  081C  3401               	retlw	01h
   173  081D  3400               	retlw	0
   174                           
   175  081E  3410               	retlw	010h
   176  081F  3400               	retlw	0
   177                           
   178  0820  3400               	retlw	0
   179  0821  3401               	retlw	01h
   180                           
   181  0822  3400               	retlw	0
   182  0823  3410               	retlw	010h
   183                           
   184                           	global	_octpowers
   185                           	global	_dpowers
   186                           	global	_hexpowers
   187                           	global	_C_Bat
   188                           	global	_HeartRate
   189                           	global	_V_Bat
   190                           	global	_analogReadVal
   191                           	global	_currentMode
   192                           	global	_hour
   193                           	global	_ldr1
   194                           	global	_ldr2
   195                           	global	_minute
   196                           	global	_j
   197                           	global	_lcd_bus
   198                           	global	_lcd_data
   199                           	global	_lcd_data_high
   200                           	global	_lcd_data_low
   201                           	global	_state
   202                           	global	_v
   203                           	global	_w
   204                           	global	_wtmp
   205                           	global	_x
   206                           	global	_y
   207                           	global	_z
   208                           	global	_BlinkDet
   209                           	global	_Nop
   210                           	global	_bit0
   211                           	global	_bit1
   212                           	global	_bit2
   213                           	global	_bit3
   214                           	global	_bit4
   215                           	global	_bit5
   216                           	global	_bit6
   217                           	global	_bit7
   218                           	global	_buffer
   219                           	global	_rc
   220                           	global	_temperature
   221                           	global	_HeartRateCount
   222                           	global	_heartRate
   223                           	global	_msecond
   224                           	global	_second
   225                           	global	_ADCON0
   226  001F                     _ADCON0	set	31
   227                           	global	_ADRESH
   228  001E                     _ADRESH	set	30
   229                           	global	_PORTA
   230  0005                     _PORTA	set	5
   231                           	global	_PORTB
   232  0006                     _PORTB	set	6
   233                           	global	_PORTC
   234  0007                     _PORTC	set	7
   235                           	global	_PORTD
   236  0008                     _PORTD	set	8
   237                           	global	_PORTE
   238  0009                     _PORTE	set	9
   239                           	global	_RCREG
   240  001A                     _RCREG	set	26
   241                           	global	_TMR1H
   242  000F                     _TMR1H	set	15
   243                           	global	_TMR1L
   244  000E                     _TMR1L	set	14
   245                           	global	_TXREG
   246  0019                     _TXREG	set	25
   247                           	global	_ADDEN
   248  00C3                     _ADDEN	set	195
   249                           	global	_ADON
   250  00F8                     _ADON	set	248
   251                           	global	_CARRY
   252  0018                     _CARRY	set	24
   253                           	global	_CREN
   254  00C4                     _CREN	set	196
   255                           	global	_FERR
   256  00C2                     _FERR	set	194
   257                           	global	_GIE
   258  005F                     _GIE	set	95
   259                           	global	_GO
   260  00FA                     _GO	set	250
   261                           	global	_INTE
   262  005C                     _INTE	set	92
   263                           	global	_OERR
   264  00C1                     _OERR	set	193
   265                           	global	_PEIE
   266  005E                     _PEIE	set	94
   267                           	global	_RB2
   268  0032                     _RB2	set	50
   269                           	global	_RB3
   270  0033                     _RB3	set	51
   271                           	global	_RB4
   272  0034                     _RB4	set	52
   273                           	global	_RB5
   274  0035                     _RB5	set	53
   275                           	global	_RBIE
   276  005B                     _RBIE	set	91
   277                           	global	_RC0
   278  0038                     _RC0	set	56
   279                           	global	_RC1
   280  0039                     _RC1	set	57
   281                           	global	_RC2
   282  003A                     _RC2	set	58
   283                           	global	_RC3
   284  003B                     _RC3	set	59
   285                           	global	_RC4
   286  003C                     _RC4	set	60
   287                           	global	_RC5
   288  003D                     _RC5	set	61
   289                           	global	_RCIF
   290  0065                     _RCIF	set	101
   291                           	global	_RD0
   292  0040                     _RD0	set	64
   293                           	global	_RD1
   294  0041                     _RD1	set	65
   295                           	global	_RD2
   296  0042                     _RD2	set	66
   297                           	global	_RD3
   298  0043                     _RD3	set	67
   299                           	global	_RD4
   300  0044                     _RD4	set	68
   301                           	global	_RD5
   302  0045                     _RD5	set	69
   303                           	global	_RD6
   304  0046                     _RD6	set	70
   305                           	global	_RD7
   306  0047                     _RD7	set	71
   307                           	global	_RX9
   308  00C6                     _RX9	set	198
   309                           	global	_SPEN
   310  00C7                     _SPEN	set	199
   311                           	global	_T0IE
   312  005D                     _T0IE	set	93
   313                           	global	_T1CKPS0
   314  0084                     _T1CKPS0	set	132
   315                           	global	_T1CKPS1
   316  0085                     _T1CKPS1	set	133
   317                           	global	_T1OSCEN
   318  0083                     _T1OSCEN	set	131
   319                           	global	_TMR1CS
   320  0081                     _TMR1CS	set	129
   321                           	global	_TMR1IF
   322  0060                     _TMR1IF	set	96
   323                           	global	_TMR1ON
   324  0080                     _TMR1ON	set	128
   325                           	global	_TXIF
   326  0064                     _TXIF	set	100
   327                           	global	_ADCON1
   328  009F                     _ADCON1	set	159
   329                           	global	_ADRESL
   330  009E                     _ADRESL	set	158
   331                           	global	_SPBRG
   332  0099                     _SPBRG	set	153
   333                           	global	_TRISA
   334  0085                     _TRISA	set	133
   335                           	global	_TRISB
   336  0086                     _TRISB	set	134
   337                           	global	_TRISC
   338  0087                     _TRISC	set	135
   339                           	global	_TRISD
   340  0088                     _TRISD	set	136
   341                           	global	_TRISE
   342  0089                     _TRISE	set	137
   343                           	global	_ADIE
   344  0466                     _ADIE	set	1126
   345                           	global	_BCLIE
   346  046B                     _BCLIE	set	1131
   347                           	global	_BRGH
   348  04C2                     _BRGH	set	1218
   349                           	global	_CCP1IE
   350  0462                     _CCP1IE	set	1122
   351                           	global	_CCP2IE
   352  0468                     _CCP2IE	set	1128
   353                           	global	_EEIE
   354  046C                     _EEIE	set	1132
   355                           	global	_PSPIE
   356  0467                     _PSPIE	set	1127
   357                           	global	_RCIE
   358  0465                     _RCIE	set	1125
   359                           	global	_SSPIE
   360  0463                     _SSPIE	set	1123
   361                           	global	_SYNC
   362  04C4                     _SYNC	set	1220
   363                           	global	_TMR1IE
   364  0460                     _TMR1IE	set	1120
   365                           	global	_TMR2IE
   366  0461                     _TMR2IE	set	1121
   367                           	global	_TX9
   368  04C6                     _TX9	set	1222
   369                           	global	_TXEN
   370  04C5                     _TXEN	set	1221
   371                           	global	_TXIE
   372  0464                     _TXIE	set	1124
   373                           	global	_EEADR
   374  010D                     _EEADR	set	269
   375                           	global	_EEDATA
   376  010C                     _EEDATA	set	268
   377                           	global	_EECON1
   378  018C                     _EECON1	set	396
   379                           	global	_EECON2
   380  018D                     _EECON2	set	397
   381                           	global	_RD
   382  0C60                     _RD	set	3168
   383                           	global	_WR
   384  0C61                     _WR	set	3169
   385                           	global	_WREN
   386  0C62                     _WREN	set	3170
   387                           	
   388  0824                     STR_13:	
   389  0824  3453               	retlw	83	;'S'
   390  0825  3477               	retlw	119	;'w'
   391  0826  3469               	retlw	105	;'i'
   392  0827  3474               	retlw	116	;'t'
   393  0828  3463               	retlw	99	;'c'
   394  0829  3468               	retlw	104	;'h'
   395  082A  3465               	retlw	101	;'e'
   396  082B  3464               	retlw	100	;'d'
   397  082C  3420               	retlw	32	;' '
   398  082D  3474               	retlw	116	;'t'
   399  082E  346F               	retlw	111	;'o'
   400  082F  3420               	retlw	32	;' '
   401  0830  344D               	retlw	77	;'M'
   402  0831  346F               	retlw	111	;'o'
   403  0832  3464               	retlw	100	;'d'
   404  0833  3465               	retlw	101	;'e'
   405  0834  3420               	retlw	32	;' '
   406  0835  343A               	retlw	58	;':'
   407  0836  3420               	retlw	32	;' '
   408  0837  3400               	retlw	0
   409                           psect	strings
   410                           	
   411  0838                     STR_4:	
   412  0838  3420               	retlw	32	;' '
   413  0839  3420               	retlw	32	;' '
   414  083A  3420               	retlw	32	;' '
   415  083B  3420               	retlw	32	;' '
   416  083C  3420               	retlw	32	;' '
   417  083D  3420               	retlw	32	;' '
   418  083E  3453               	retlw	83	;'S'
   419  083F  3479               	retlw	121	;'y'
   420  0840  3473               	retlw	115	;'s'
   421  0841  3474               	retlw	116	;'t'
   422  0842  3465               	retlw	101	;'e'
   423  0843  346D               	retlw	109	;'m'
   424  0844  3420               	retlw	32	;' '
   425  0845  3420               	retlw	32	;' '
   426  0846  3420               	retlw	32	;' '
   427  0847  3420               	retlw	32	;' '
   428  0848  3420               	retlw	32	;' '
   429  0849  3400               	retlw	0
   430                           psect	strings
   431                           	
   432  084A                     STR_3:	
   433  084A  3420               	retlw	32	;' '
   434  084B  3420               	retlw	32	;' '
   435  084C  3420               	retlw	32	;' '
   436  084D  3420               	retlw	32	;' '
   437  084E  344D               	retlw	77	;'M'
   438  084F  346F               	retlw	111	;'o'
   439  0850  346E               	retlw	110	;'n'
   440  0851  3469               	retlw	105	;'i'
   441  0852  3474               	retlw	116	;'t'
   442  0853  346F               	retlw	111	;'o'
   443  0854  3472               	retlw	114	;'r'
   444  0855  3469               	retlw	105	;'i'
   445  0856  346E               	retlw	110	;'n'
   446  0857  3467               	retlw	103	;'g'
   447  0858  3420               	retlw	32	;' '
   448  0859  3420               	retlw	32	;' '
   449  085A  3420               	retlw	32	;' '
   450  085B  3400               	retlw	0
   451                           psect	strings
   452                           	
   453  085C                     STR_2:	
   454  085C  3420               	retlw	32	;' '
   455  085D  3461               	retlw	97	;'a'
   456  085E  346E               	retlw	110	;'n'
   457  085F  3464               	retlw	100	;'d'
   458  0860  3420               	retlw	32	;' '
   459  0861  3448               	retlw	72	;'H'
   460  0862  3465               	retlw	101	;'e'
   461  0863  3461               	retlw	97	;'a'
   462  0864  3472               	retlw	114	;'r'
   463  0865  3474               	retlw	116	;'t'
   464  0866  3420               	retlw	32	;' '
   465  0867  3452               	retlw	82	;'R'
   466  0868  3461               	retlw	97	;'a'
   467  0869  3474               	retlw	116	;'t'
   468  086A  3465               	retlw	101	;'e'
   469  086B  3420               	retlw	32	;' '
   470  086C  3420               	retlw	32	;' '
   471  086D  3400               	retlw	0
   472                           psect	strings
   473                           	
   474  086E                     STR_1:	
   475  086E  3442               	retlw	66	;'B'
   476  086F  346F               	retlw	111	;'o'
   477  0870  3464               	retlw	100	;'d'
   478  0871  3479               	retlw	121	;'y'
   479  0872  3420               	retlw	32	;' '
   480  0873  3454               	retlw	84	;'T'
   481  0874  3465               	retlw	101	;'e'
   482  0875  346D               	retlw	109	;'m'
   483  0876  3470               	retlw	112	;'p'
   484  0877  3465               	retlw	101	;'e'
   485  0878  3472               	retlw	114	;'r'
   486  0879  3461               	retlw	97	;'a'
   487  087A  3474               	retlw	116	;'t'
   488  087B  3475               	retlw	117	;'u'
   489  087C  3472               	retlw	114	;'r'
   490  087D  3465               	retlw	101	;'e'
   491  087E  3420               	retlw	32	;' '
   492  087F  3400               	retlw	0
   493                           psect	strings
   494                           	
   495  0880                     STR_14:	
   496  0880  3430               	retlw	48	;'0'
   497  0881  3431               	retlw	49	;'1'
   498  0882  3432               	retlw	50	;'2'
   499  0883  3433               	retlw	51	;'3'
   500  0884  3434               	retlw	52	;'4'
   501  0885  3435               	retlw	53	;'5'
   502  0886  3436               	retlw	54	;'6'
   503  0887  3437               	retlw	55	;'7'
   504  0888  3438               	retlw	56	;'8'
   505  0889  3439               	retlw	57	;'9'
   506  088A  3441               	retlw	65	;'A'
   507  088B  3442               	retlw	66	;'B'
   508  088C  3443               	retlw	67	;'C'
   509  088D  3444               	retlw	68	;'D'
   510  088E  3445               	retlw	69	;'E'
   511  088F  3446               	retlw	70	;'F'
   512  0890  3400               	retlw	0
   513                           psect	strings
   514                           	
   515  0891                     STR_15:	
   516  0891  3430               	retlw	48	;'0'
   517  0892  3431               	retlw	49	;'1'
   518  0893  3432               	retlw	50	;'2'
   519  0894  3433               	retlw	51	;'3'
   520  0895  3434               	retlw	52	;'4'
   521  0896  3435               	retlw	53	;'5'
   522  0897  3436               	retlw	54	;'6'
   523  0898  3437               	retlw	55	;'7'
   524  0899  3438               	retlw	56	;'8'
   525  089A  3439               	retlw	57	;'9'
   526  089B  3461               	retlw	97	;'a'
   527  089C  3462               	retlw	98	;'b'
   528  089D  3463               	retlw	99	;'c'
   529  089E  3464               	retlw	100	;'d'
   530  089F  3465               	retlw	101	;'e'
   531  08A0  3466               	retlw	102	;'f'
   532  08A1  3400               	retlw	0
   533                           psect	strings
   534                           	
   535  08A2                     STR_5:	
   536  08A2  3420               	retlw	32	;' '
   537  08A3  3420               	retlw	32	;' '
   538  08A4  3420               	retlw	32	;' '
   539  08A5  3420               	retlw	32	;' '
   540  08A6  3420               	retlw	32	;' '
   541  08A7  3420               	retlw	32	;' '
   542  08A8  3420               	retlw	32	;' '
   543  08A9  3466               	retlw	102	;'f'
   544  08AA  346F               	retlw	111	;'o'
   545  08AB  3472               	retlw	114	;'r'
   546  08AC  3420               	retlw	32	;' '
   547  08AD  3420               	retlw	32	;' '
   548  08AE  3420               	retlw	32	;' '
   549  08AF  3420               	retlw	32	;' '
   550  08B0  3420               	retlw	32	;' '
   551  08B1  3420               	retlw	32	;' '
   552  08B2  3400               	retlw	0
   553                           psect	strings
   554                           	
   555  08B3                     STR_6:	
   556  08B3  3420               	retlw	32	;' '
   557  08B4  3420               	retlw	32	;' '
   558  08B5  3420               	retlw	32	;' '
   559  08B6  3420               	retlw	32	;' '
   560  08B7  3450               	retlw	80	;'P'
   561  08B8  3461               	retlw	97	;'a'
   562  08B9  3474               	retlw	116	;'t'
   563  08BA  3469               	retlw	105	;'i'
   564  08BB  3465               	retlw	101	;'e'
   565  08BC  346E               	retlw	110	;'n'
   566  08BD  3474               	retlw	116	;'t'
   567  08BE  3473               	retlw	115	;'s'
   568  08BF  3420               	retlw	32	;' '
   569  08C0  3420               	retlw	32	;' '
   570  08C1  3420               	retlw	32	;' '
   571  08C2  3420               	retlw	32	;' '
   572  08C3  3400               	retlw	0
   573                           psect	strings
   574                           	
   575  08C4                     STR_8:	
   576  08C4  3454               	retlw	84	;'T'
   577  08C5  343A               	retlw	58	;':'
   578  08C6  3420               	retlw	32	;' '
   579  08C7  3420               	retlw	32	;' '
   580  08C8  3438               	retlw	56	;'8'
   581  08C9  3434               	retlw	52	;'4'
   582  08CA  3446               	retlw	70	;'F'
   583  08CB  3420               	retlw	32	;' '
   584  08CC  3420               	retlw	32	;' '
   585  08CD  3420               	retlw	32	;' '
   586  08CE  344C               	retlw	76	;'L'
   587  08CF  346F               	retlw	111	;'o'
   588  08D0  3477               	retlw	119	;'w'
   589  08D1  3420               	retlw	32	;' '
   590  08D2  3420               	retlw	32	;' '
   591  08D3  3420               	retlw	32	;' '
   592  08D4  3400               	retlw	0
   593                           psect	strings
   594                           	
   595  08D5                     STR_7:	
   596  08D5  3448               	retlw	72	;'H'
   597  08D6  343A               	retlw	58	;':'
   598  08D7  3420               	retlw	32	;' '
   599  08D8  3420               	retlw	32	;' '
   600  08D9  3436               	retlw	54	;'6'
   601  08DA  3432               	retlw	50	;'2'
   602  08DB  3450               	retlw	80	;'P'
   603  08DC  3450               	retlw	80	;'P'
   604  08DD  344D               	retlw	77	;'M'
   605  08DE  3420               	retlw	32	;' '
   606  08DF  344C               	retlw	76	;'L'
   607  08E0  346F               	retlw	111	;'o'
   608  08E1  3477               	retlw	119	;'w'
   609  08E2  3420               	retlw	32	;' '
   610  08E3  3420               	retlw	32	;' '
   611  08E4  3420               	retlw	32	;' '
   612  08E5  3400               	retlw	0
   613                           psect	strings
   614                           	
   615  08E6                     STR_9:	
   616  08E6  342C               	retlw	44	;','
   617  08E7  3420               	retlw	32	;' '
   618  08E8  3400               	retlw	0
   619                           psect	strings
   620  08E6                     STR_10	equ	STR_9+0
   621  08E6                     STR_11	equ	STR_9+0
   622  08E6                     STR_12	equ	STR_9+0
   623                           	file	"ASPRS.as"
   624                           	line	#
   625                           psect cinit,class=CODE,delta=2
   626                           global start_initialization
   627  1BC4                     start_initialization:
   628                           
   629                           psect	bitbssBANK0,class=BANK0,bit,space=1
   630                           global __pbitbssBANK0
   631  0330                     __pbitbssBANK0:
   632  0330                     _BlinkDet:
   633  0330                            ds      1
   634                           
   635  0331                     _Nop:
   636  0331                            ds      1
   637                           
   638  0332                     _bit0:
   639  0332                            ds      1
   640                           
   641  0333                     _bit1:
   642  0333                            ds      1
   643                           
   644  0334                     _bit2:
   645  0334                            ds      1
   646                           
   647  0335                     _bit3:
   648  0335                            ds      1
   649                           
   650  0336                     _bit4:
   651  0336                            ds      1
   652                           
   653  0337                     _bit5:
   654  0337                            ds      1
   655                           
   656  0338                     _bit6:
   657  0338                            ds      1
   658                           
   659  0339                     _bit7:
   660  0339                            ds      1
   661                           
   662                           psect	bssBANK0,class=BANK0,space=1
   663                           global __pbssBANK0
   664  0048                     __pbssBANK0:
   665  0048                     _C_Bat:
   666  0048                            ds      2
   667                           
   668  004A                     _HeartRate:
   669  004A                            ds      2
   670                           
   671  004C                     _V_Bat:
   672  004C                            ds      2
   673                           
   674  004E                     _analogReadVal:
   675  004E                            ds      2
   676                           
   677  0050                     _currentMode:
   678  0050                            ds      2
   679                           
   680  0052                     _hour:
   681  0052                            ds      2
   682                           
   683  0054                     _ldr1:
   684  0054                            ds      2
   685                           
   686  0056                     _ldr2:
   687  0056                            ds      2
   688                           
   689  0058                     _minute:
   690  0058                            ds      2
   691                           
   692  005A                     _j:
   693  005A                            ds      1
   694                           
   695  005B                     _lcd_bus:
   696  005B                            ds      1
   697                           
   698  005C                     _lcd_data:
   699  005C                            ds      1
   700                           
   701  005D                     _lcd_data_high:
   702  005D                            ds      1
   703                           
   704  005E                     _lcd_data_low:
   705  005E                            ds      1
   706                           
   707  005F                     _state:
   708  005F                            ds      1
   709                           
   710  0060                     _v:
   711  0060                            ds      1
   712                           
   713  0061                     _w:
   714  0061                            ds      1
   715                           
   716  0062                     _wtmp:
   717  0062                            ds      1
   718                           
   719  0063                     _x:
   720  0063                            ds      1
   721                           
   722  0064                     _y:
   723  0064                            ds      1
   724                           
   725  0065                     _z:
   726  0065                            ds      1
   727                           
   728                           psect	dataBANK0,class=BANK0,space=1
   729                           global __pdataBANK0
   730  0068                     __pdataBANK0:
   731                           	file	"D:\ELECTRONIC\2016\1. Automated Solar Panel Orientation Setter\Firmware\ver4\Auto
                                 mated Solar Panel Orientation Setter.c"
   732                           	line	13
   733  0068                     _bed_nu:
   734  0068                            ds      1
   735                           
   736                           psect	dataBANK0
   737                           	file	"D:\ELECTRONIC\2016\1. Automated Solar Panel Orientation Setter\Firmware\ver4\Auto
                                 mated Solar Panel Orientation Setter.c"
   738                           	line	14
   739  0069                     _i:
   740  0069                            ds      1
   741                           
   742                           psect	bssBANK1,class=BANK1,space=1
   743                           global __pbssBANK1
   744  00A0                     __pbssBANK1:
   745  00A0                     _buffer:
   746  00A0                            ds      20
   747                           
   748  00B4                     _rc:
   749  00B4                            ds      9
   750                           
   751  00BD                     _temperature:
   752  00BD                            ds      3
   753                           
   754  00C0                     _HeartRateCount:
   755  00C0                            ds      2
   756                           
   757  00C2                     _heartRate:
   758  00C2                            ds      2
   759                           
   760  00C4                     _msecond:
   761  00C4                            ds      2
   762                           
   763  00C6                     _second:
   764  00C6                            ds      2
   765                           
   766                           psect clrtext,class=CODE,delta=2
   767                           global clear_ram
   768                           ;	Called with FSR containing the base address, and
   769                           ;	W with the last address+1
   770  1ADA                     clear_ram:
   771  1ADA  0064               	clrwdt			;clear the watchdog before getting into this loop
   772  1ADB                     clrloop:
   773  1ADB  0180               	clrf	indf		;clear RAM location pointed to by FSR
   774  1ADC  0A84               	incf	fsr,f		;increment pointer
   775  1ADD  0604               	xorwf	fsr,w		;XOR with final address
   776  1ADE  1903               	btfsc	status,2	;have we reached the end yet?
   777  1ADF  3400               	retlw	0		;all done for this memory range, return
   778  1AE0  0604               	xorwf	fsr,w		;XOR again to restore value
   779  1AE1  2ADB               	goto	clrloop		;do the next byte
   780                           
   781                           ; Clear objects allocated to BITBANK0
   782                           psect cinit,class=CODE,delta=2
   783  1BC4  01E6               	clrf	((__pbitbssBANK0/8)+0)&07Fh
   784  1BC5  01E7               	clrf	((__pbitbssBANK0/8)+1)&07Fh
   785                           ; Clear objects allocated to BANK0
   786                           psect cinit,class=CODE,delta=2
   787  1BC6  1383               	bcf	status, 7	;select IRP bank0
   788  1BC7  3048               	movlw	low(__pbssBANK0)
   789  1BC8  0084               	movwf	fsr
   790  1BC9  3066               	movlw	low((__pbssBANK0)+01Eh)
   791  1BCA  160A  158A  22DA   	fcall	clear_ram
              160A  158A         
   792                           ; Clear objects allocated to BANK1
   793                           psect cinit,class=CODE,delta=2
   794  1BCF  30A0               	movlw	low(__pbssBANK1)
   795  1BD0  0084               	movwf	fsr
   796  1BD1  30C8               	movlw	low((__pbssBANK1)+028h)
   797  1BD2  160A  158A  22DA   	fcall	clear_ram
              160A  158A         
   798                           ; Initialize objects allocated to BANK0
   799                           	global __pidataBANK0
   800                           psect cinit,class=CODE,delta=2
   801  1BD7  120A  118A  2016   	fcall	__pidataBANK0+0		;fetch initializer
              160A  158A         
   802  1BDC  00E8               	movwf	__pdataBANK0+0&07fh		
   803  1BDD  120A  118A  2017   	fcall	__pidataBANK0+1		;fetch initializer
              160A  158A         
   804  1BE2  00E9               	movwf	__pdataBANK0+1&07fh		
   805                           psect cinit,class=CODE,delta=2
   806                           global end_of_initialization
   807                           
   808                           ;End of C runtime variable initialization code
   809                           
   810  1BE3                     end_of_initialization:
   811  1BE3  0183               clrf status
   812  1BE4  120A  118A  2833   ljmp _main	;jump to C main() function
   813                           psect	cstackBANK1,class=BANK1,space=1
   814                           global __pcstackBANK1
   815  00C8                     __pcstackBANK1:
   816                           	global	??_main
   817  00C8                     ??_main:	; 0 bytes @ 0x0
   818  00C8                     	ds	3
   819                           	global	main@abc
   820  00CB                     main@abc:	; 2 bytes @ 0x3
   821  00CB                     	ds	2
   822                           psect	cstackCOMMON,class=COMMON,space=1
   823                           global __pcstackCOMMON
   824  0071                     __pcstackCOMMON:
   825                           	global	?_lcd_add
   826  0071                     ?_lcd_add:	; 0 bytes @ 0x0
   827                           	global	?_LCDTimeUpdate
   828  0071                     ?_LCDTimeUpdate:	; 0 bytes @ 0x0
   829                           	global	?_a2d_read
   830  0071                     ?_a2d_read:	; 0 bytes @ 0x0
   831                           	global	?_CheckMode
   832  0071                     ?_CheckMode:	; 0 bytes @ 0x0
   833                           	global	?_isdigit
   834  0071                     ?_isdigit:	; 1 bit 
   835                           	global	?_nop
   836  0071                     ?_nop:	; 0 bytes @ 0x0
   837                           	global	?_Setup_IOports
   838  0071                     ?_Setup_IOports:	; 0 bytes @ 0x0
   839                           	global	?_lcd_init
   840  0071                     ?_lcd_init:	; 0 bytes @ 0x0
   841                           	global	?_putch
   842  0071                     ?_putch:	; 0 bytes @ 0x0
   843                           	global	?_clr_display
   844  0071                     ?_clr_display:	; 0 bytes @ 0x0
   845                           	global	?_atod_init
   846  0071                     ?_atod_init:	; 0 bytes @ 0x0
   847                           	global	?_Serial_Init
   848  0071                     ?_Serial_Init:	; 0 bytes @ 0x0
   849                           	global	?_Serial_Print
   850  0071                     ?_Serial_Print:	; 1 bit 
   851                           	global	?_Serial_NewLine
   852  0071                     ?_Serial_NewLine:	; 0 bytes @ 0x0
   853                           	global	?_enableInterrupt
   854  0071                     ?_enableInterrupt:	; 0 bytes @ 0x0
   855                           	global	?_Timer1_Init
   856  0071                     ?_Timer1_Init:	; 0 bytes @ 0x0
   857                           	global	?_main
   858  0071                     ?_main:	; 0 bytes @ 0x0
   859                           	global	?_isr
   860  0071                     ?_isr:	; 0 bytes @ 0x0
   861                           	global	?i1_lcd_add
   862  0071                     ?i1_lcd_add:	; 0 bytes @ 0x0
   863                           	global	??i1_lcd_add
   864  0071                     ??i1_lcd_add:	; 0 bytes @ 0x0
   865                           	global	?_eeprom_read
   866  0071                     ?_eeprom_read:	; 1 bytes @ 0x0
   867                           	global	?_CheckKeyPad
   868  0071                     ?_CheckKeyPad:	; 1 bytes @ 0x0
   869                           	global	?i1___lwmod
   870  0071                     ?i1___lwmod:	; 2 bytes @ 0x0
   871                           	global	i1___lwmod@divisor
   872  0071                     i1___lwmod@divisor:	; 2 bytes @ 0x0
   873  0071                     	ds	2
   874                           	global	?i1_position
   875  0073                     ?i1_position:	; 0 bytes @ 0x2
   876                           	global	i1position@collum
   877  0073                     i1position@collum:	; 1 bytes @ 0x2
   878                           	global	i1___lwmod@dividend
   879  0073                     i1___lwmod@dividend:	; 2 bytes @ 0x2
   880  0073                     	ds	1
   881                           	global	??i1_position
   882  0074                     ??i1_position:	; 0 bytes @ 0x3
   883  0074                     	ds	1
   884                           	global	??i1___lwmod
   885  0075                     ??i1___lwmod:	; 0 bytes @ 0x4
   886  0075                     	ds	1
   887                           	global	i1position@post
   888  0076                     i1position@post:	; 1 bytes @ 0x5
   889                           	global	i1___lwmod@counter
   890  0076                     i1___lwmod@counter:	; 1 bytes @ 0x5
   891  0076                     	ds	1
   892                           	global	i1position@row
   893  0077                     i1position@row:	; 1 bytes @ 0x6
   894  0077                     	ds	1
   895                           	global	?i1_LCD_print_char
   896  0078                     ?i1_LCD_print_char:	; 0 bytes @ 0x7
   897                           	global	i1LCD_print_char@row
   898  0078                     i1LCD_print_char@row:	; 2 bytes @ 0x7
   899  0078                     	ds	2
   900                           	global	i1LCD_print_char@column
   901  007A                     i1LCD_print_char@column:	; 2 bytes @ 0x9
   902  007A                     	ds	2
   903                           	global	i1LCD_print_char@print_value
   904  007C                     i1LCD_print_char@print_value:	; 1 bytes @ 0xB
   905  007C                     	ds	1
   906                           	global	??i1_LCD_print_char
   907  007D                     ??i1_LCD_print_char:	; 0 bytes @ 0xC
   908  007D                     	ds	1
   909                           psect	cstackBANK0,class=BANK0,space=1
   910                           global __pcstackBANK0
   911  0020                     __pcstackBANK0:
   912                           	global	??_isr
   913  0020                     ??_isr:	; 0 bytes @ 0x0
   914  0020                     	ds	5
   915                           	global	??_lcd_add
   916  0025                     ??_lcd_add:	; 0 bytes @ 0x5
   917                           	global	??_eeprom_read
   918  0025                     ??_eeprom_read:	; 0 bytes @ 0x5
   919                           	global	?_RotateMotorLeft
   920  0025                     ?_RotateMotorLeft:	; 0 bytes @ 0x5
   921                           	global	?_RotateMotorRight
   922  0025                     ?_RotateMotorRight:	; 0 bytes @ 0x5
   923                           	global	??_isdigit
   924  0025                     ??_isdigit:	; 0 bytes @ 0x5
   925                           	global	??_nop
   926  0025                     ??_nop:	; 0 bytes @ 0x5
   927                           	global	??_Setup_IOports
   928  0025                     ??_Setup_IOports:	; 0 bytes @ 0x5
   929                           	global	??_lcd_init
   930  0025                     ??_lcd_init:	; 0 bytes @ 0x5
   931                           	global	??_atod_init
   932  0025                     ??_atod_init:	; 0 bytes @ 0x5
   933                           	global	??_Serial_Init
   934  0025                     ??_Serial_Init:	; 0 bytes @ 0x5
   935                           	global	??_Serial_Print
   936  0025                     ??_Serial_Print:	; 0 bytes @ 0x5
   937                           	global	??_Serial_NewLine
   938  0025                     ??_Serial_NewLine:	; 0 bytes @ 0x5
   939                           	global	??_enableInterrupt
   940  0025                     ??_enableInterrupt:	; 0 bytes @ 0x5
   941                           	global	??_Timer1_Init
   942  0025                     ??_Timer1_Init:	; 0 bytes @ 0x5
   943                           	global	?_eeprom_write
   944  0025                     ?_eeprom_write:	; 1 bytes @ 0x5
   945                           	global	?___bmul
   946  0025                     ?___bmul:	; 1 bytes @ 0x5
   947                           	global	?_RowNo
   948  0025                     ?_RowNo:	; 2 bytes @ 0x5
   949                           	global	?_ColomnNo
   950  0025                     ?_ColomnNo:	; 2 bytes @ 0x5
   951                           	global	?_read_a2d_value
   952  0025                     ?_read_a2d_value:	; 2 bytes @ 0x5
   953                           	global	?___wmul
   954  0025                     ?___wmul:	; 2 bytes @ 0x5
   955                           	global	?___lwdiv
   956  0025                     ?___lwdiv:	; 2 bytes @ 0x5
   957                           	global	?___awdiv
   958  0025                     ?___awdiv:	; 2 bytes @ 0x5
   959                           	global	?___awmod
   960  0025                     ?___awmod:	; 2 bytes @ 0x5
   961                           	global	eeprom_write@value
   962  0025                     eeprom_write@value:	; 1 bytes @ 0x5
   963                           	global	_isdigit$2439
   964  0025                     _isdigit$2439:	; 1 bytes @ 0x5
   965                           	global	___bmul@multiplicand
   966  0025                     ___bmul@multiplicand:	; 1 bytes @ 0x5
   967                           	global	lcd_init@DelayLCD
   968  0025                     lcd_init@DelayLCD:	; 2 bytes @ 0x5
   969                           	global	ColomnNo@rowNo
   970  0025                     ColomnNo@rowNo:	; 2 bytes @ 0x5
   971                           	global	RotateMotorLeft@value
   972  0025                     RotateMotorLeft@value:	; 2 bytes @ 0x5
   973                           	global	RotateMotorRight@value
   974  0025                     RotateMotorRight@value:	; 2 bytes @ 0x5
   975                           	global	___wmul@multiplier
   976  0025                     ___wmul@multiplier:	; 2 bytes @ 0x5
   977                           	global	___lwdiv@divisor
   978  0025                     ___lwdiv@divisor:	; 2 bytes @ 0x5
   979                           	global	___awdiv@divisor
   980  0025                     ___awdiv@divisor:	; 2 bytes @ 0x5
   981                           	global	___awmod@divisor
   982  0025                     ___awmod@divisor:	; 2 bytes @ 0x5
   983  0025                     	ds	1
   984                           	global	??_eeprom_write
   985  0026                     ??_eeprom_write:	; 0 bytes @ 0x6
   986                           	global	??___bmul
   987  0026                     ??___bmul:	; 0 bytes @ 0x6
   988                           	global	Serial_Print@a
   989  0026                     Serial_Print@a:	; 1 bytes @ 0x6
   990                           	global	eeprom_read@addr
   991  0026                     eeprom_read@addr:	; 1 bytes @ 0x6
   992                           	global	isdigit@c
   993  0026                     isdigit@c:	; 1 bytes @ 0x6
   994  0026                     	ds	1
   995                           	global	?_position
   996  0027                     ?_position:	; 0 bytes @ 0x7
   997                           	global	??_RotateMotorLeft
   998  0027                     ??_RotateMotorLeft:	; 0 bytes @ 0x7
   999                           	global	??_RotateMotorRight
  1000  0027                     ??_RotateMotorRight:	; 0 bytes @ 0x7
  1001                           	global	??_RowNo
  1002  0027                     ??_RowNo:	; 0 bytes @ 0x7
  1003                           	global	??_ColomnNo
  1004  0027                     ??_ColomnNo:	; 0 bytes @ 0x7
  1005                           	global	??_putch
  1006  0027                     ??_putch:	; 0 bytes @ 0x7
  1007                           	global	??_clr_display
  1008  0027                     ??_clr_display:	; 0 bytes @ 0x7
  1009                           	global	??_read_a2d_value
  1010  0027                     ??_read_a2d_value:	; 0 bytes @ 0x7
  1011                           	global	position@collum
  1012  0027                     position@collum:	; 1 bytes @ 0x7
  1013                           	global	eeprom_write@addr
  1014  0027                     eeprom_write@addr:	; 1 bytes @ 0x7
  1015                           	global	___bmul@product
  1016  0027                     ___bmul@product:	; 1 bytes @ 0x7
  1017                           	global	RowNo@row
  1018  0027                     RowNo@row:	; 2 bytes @ 0x7
  1019                           	global	___wmul@multiplicand
  1020  0027                     ___wmul@multiplicand:	; 2 bytes @ 0x7
  1021                           	global	___lwdiv@dividend
  1022  0027                     ___lwdiv@dividend:	; 2 bytes @ 0x7
  1023                           	global	___awdiv@dividend
  1024  0027                     ___awdiv@dividend:	; 2 bytes @ 0x7
  1025                           	global	___awmod@dividend
  1026  0027                     ___awmod@dividend:	; 2 bytes @ 0x7
  1027  0027                     	ds	1
  1028                           	global	??_position
  1029  0028                     ??_position:	; 0 bytes @ 0x8
  1030                           	global	putch@print_value
  1031  0028                     putch@print_value:	; 1 bytes @ 0x8
  1032                           	global	___bmul@multiplier
  1033  0028                     ___bmul@multiplier:	; 1 bytes @ 0x8
  1034  0028                     	ds	1
  1035                           	global	??_CheckKeyPad
  1036  0029                     ??_CheckKeyPad:	; 0 bytes @ 0x9
  1037                           	global	??___wmul
  1038  0029                     ??___wmul:	; 0 bytes @ 0x9
  1039                           	global	??___lwdiv
  1040  0029                     ??___lwdiv:	; 0 bytes @ 0x9
  1041                           	global	??___awdiv
  1042  0029                     ??___awdiv:	; 0 bytes @ 0x9
  1043                           	global	??___awmod
  1044  0029                     ??___awmod:	; 0 bytes @ 0x9
  1045                           	global	read_a2d_value@channel
  1046  0029                     read_a2d_value@channel:	; 1 bytes @ 0x9
  1047                           	global	RotateMotorLeft@i
  1048  0029                     RotateMotorLeft@i:	; 2 bytes @ 0x9
  1049                           	global	RotateMotorRight@i
  1050  0029                     RotateMotorRight@i:	; 2 bytes @ 0x9
  1051                           	global	___wmul@product
  1052  0029                     ___wmul@product:	; 2 bytes @ 0x9
  1053  0029                     	ds	1
  1054                           	global	position@post
  1055  002A                     position@post:	; 1 bytes @ 0xA
  1056                           	global	CheckKeyPad@charactor
  1057  002A                     CheckKeyPad@charactor:	; 1 bytes @ 0xA
  1058                           	global	___lwdiv@counter
  1059  002A                     ___lwdiv@counter:	; 1 bytes @ 0xA
  1060                           	global	___awdiv@counter
  1061  002A                     ___awdiv@counter:	; 1 bytes @ 0xA
  1062                           	global	___awmod@counter
  1063  002A                     ___awmod@counter:	; 1 bytes @ 0xA
  1064                           	global	read_a2d_value@a2d_value
  1065  002A                     read_a2d_value@a2d_value:	; 2 bytes @ 0xA
  1066  002A                     	ds	1
  1067                           	global	position@row
  1068  002B                     position@row:	; 1 bytes @ 0xB
  1069                           	global	___awdiv@sign
  1070  002B                     ___awdiv@sign:	; 1 bytes @ 0xB
  1071                           	global	___awmod@sign
  1072  002B                     ___awmod@sign:	; 1 bytes @ 0xB
  1073                           	global	CheckKeyPad@colomnNo
  1074  002B                     CheckKeyPad@colomnNo:	; 2 bytes @ 0xB
  1075                           	global	___lwdiv@quotient
  1076  002B                     ___lwdiv@quotient:	; 2 bytes @ 0xB
  1077  002B                     	ds	1
  1078                           	global	??_a2d_read
  1079  002C                     ??_a2d_read:	; 0 bytes @ 0xC
  1080                           	global	___awdiv@quotient
  1081  002C                     ___awdiv@quotient:	; 2 bytes @ 0xC
  1082  002C                     	ds	1
  1083                           	global	?___lwmod
  1084  002D                     ?___lwmod:	; 2 bytes @ 0xD
  1085                           	global	CheckKeyPad@rowNo
  1086  002D                     CheckKeyPad@rowNo:	; 2 bytes @ 0xD
  1087                           	global	___lwmod@divisor
  1088  002D                     ___lwmod@divisor:	; 2 bytes @ 0xD
  1089  002D                     	ds	1
  1090                           	global	?_Serial_Println_Int
  1091  002E                     ?_Serial_Println_Int:	; 1 bit 
  1092                           	global	?_Serial_Print_Int
  1093  002E                     ?_Serial_Print_Int:	; 1 bit 
  1094                           	global	Serial_Println_Int@val
  1095  002E                     Serial_Println_Int@val:	; 2 bytes @ 0xE
  1096                           	global	Serial_Print_Int@val
  1097  002E                     Serial_Print_Int@val:	; 2 bytes @ 0xE
  1098  002E                     	ds	1
  1099                           	global	___lwmod@dividend
  1100  002F                     ___lwmod@dividend:	; 2 bytes @ 0xF
  1101  002F                     	ds	1
  1102                           	global	??_Serial_Println_Int
  1103  0030                     ??_Serial_Println_Int:	; 0 bytes @ 0x10
  1104                           	global	??_Serial_Print_Int
  1105  0030                     ??_Serial_Print_Int:	; 0 bytes @ 0x10
  1106  0030                     	ds	1
  1107                           	global	??_CheckMode
  1108  0031                     ??_CheckMode:	; 0 bytes @ 0x11
  1109                           	global	??___lwmod
  1110  0031                     ??___lwmod:	; 0 bytes @ 0x11
  1111  0031                     	ds	1
  1112                           	global	___lwmod@counter
  1113  0032                     ___lwmod@counter:	; 1 bytes @ 0x12
  1114  0032                     	ds	1
  1115                           	global	?_LCD_print_char
  1116  0033                     ?_LCD_print_char:	; 0 bytes @ 0x13
  1117                           	global	?_printf
  1118  0033                     ?_printf:	; 2 bytes @ 0x13
  1119                           	global	CheckMode@pressedKey
  1120  0033                     CheckMode@pressedKey:	; 1 bytes @ 0x13
  1121                           	global	LCD_print_char@row
  1122  0033                     LCD_print_char@row:	; 2 bytes @ 0x13
  1123  0033                     	ds	2
  1124                           	global	??_printf
  1125  0035                     ??_printf:	; 0 bytes @ 0x15
  1126                           	global	LCD_print_char@column
  1127  0035                     LCD_print_char@column:	; 2 bytes @ 0x15
  1128  0035                     	ds	2
  1129                           	global	LCD_print_char@print_value
  1130  0037                     LCD_print_char@print_value:	; 1 bytes @ 0x17
  1131  0037                     	ds	1
  1132                           	global	??_LCD_print_char
  1133  0038                     ??_LCD_print_char:	; 0 bytes @ 0x18
  1134                           	global	_printf$1463
  1135  0038                     _printf$1463:	; 2 bytes @ 0x18
  1136  0038                     	ds	1
  1137                           	global	??_LCDTimeUpdate
  1138  0039                     ??_LCDTimeUpdate:	; 0 bytes @ 0x19
  1139  0039                     	ds	1
  1140                           	global	_printf$1464
  1141  003A                     _printf$1464:	; 2 bytes @ 0x1A
  1142  003A                     	ds	2
  1143                           	global	_printf$1467
  1144  003C                     _printf$1467:	; 1 bytes @ 0x1C
  1145  003C                     	ds	1
  1146                           	global	printf@ap
  1147  003D                     printf@ap:	; 1 bytes @ 0x1D
  1148  003D                     	ds	1
  1149                           	global	printf@f
  1150  003E                     printf@f:	; 1 bytes @ 0x1E
  1151  003E                     	ds	1
  1152                           	global	printf@prec
  1153  003F                     printf@prec:	; 1 bytes @ 0x1F
  1154  003F                     	ds	1
  1155                           	global	printf@width
  1156  0040                     printf@width:	; 2 bytes @ 0x20
  1157  0040                     	ds	2
  1158                           	global	printf@_val
  1159  0042                     printf@_val:	; 3 bytes @ 0x22
  1160  0042                     	ds	3
  1161                           	global	printf@c
  1162  0045                     printf@c:	; 1 bytes @ 0x25
  1163  0045                     	ds	1
  1164                           	global	printf@flag
  1165  0046                     printf@flag:	; 2 bytes @ 0x26
  1166  0046                     	ds	2
  1167 ;;Data sizes: Strings 197, constant 30, data 2, bss 70, persistent 0 stack 0
  1168 ;;Auto spaces:   Size  Autos    Used
  1169 ;; COMMON          13     13      13
  1170 ;; BANK0           80     40      74
  1171 ;; BANK1           80      5      45
  1172 ;; BANK3           85      0       0
  1173 ;; BANK2           96      0       0
  1174                           
  1175 ;;
  1176 ;; Pointer list with targets:
  1177                           
  1178 ;; ?i1___lwmod	unsigned int  size(1) Largest target is 0
  1179 ;;
  1180 ;; ?___wmul	unsigned int  size(1) Largest target is 0
  1181 ;;
  1182 ;; ?___lwdiv	unsigned int  size(1) Largest target is 0
  1183 ;;
  1184 ;; ?___lwmod	unsigned int  size(1) Largest target is 0
  1185 ;;
  1186 ;; ?_RowNo	int  size(1) Largest target is 0
  1187 ;;
  1188 ;; ?___awmod	int  size(1) Largest target is 0
  1189 ;;
  1190 ;; ?___awdiv	int  size(1) Largest target is 0
  1191 ;;
  1192 ;; ?_read_a2d_value	unsigned int  size(1) Largest target is 0
  1193 ;;
  1194 ;; printf$1467	PTR const unsigned char  size(1) Largest target is 17
  1195 ;;		 -> STR_15(CODE[17]), STR_14(CODE[17]), 
  1196 ;;
  1197 ;; printf@_val._cp	PTR const unsigned char  size(1) Largest target is 1
  1198 ;;		 -> printf@c(BANK0[1]), 
  1199 ;;
  1200 ;; printf@f	PTR const unsigned char  size(1) Largest target is 18
  1201 ;;		 -> STR_8(CODE[17]), STR_7(CODE[17]), STR_6(CODE[17]), STR_5(CODE[17]), 
  1202 ;;		 -> STR_4(CODE[18]), STR_3(CODE[18]), STR_2(CODE[18]), STR_1(CODE[18]), 
  1203 ;;
  1204 ;; ?_printf	int  size(1) Largest target is 0
  1205 ;;
  1206 ;; printf@ap	PTR void [1] size(1) Largest target is 2
  1207 ;;		 -> ?_printf(BANK0[2]), 
  1208 ;;
  1209 ;; S1450$_cp	PTR const unsigned char  size(1) Largest target is 1
  1210 ;;		 -> printf@c(BANK0[1]), 
  1211 ;;
  1212 ;; _val._str._cp	PTR const unsigned char  size(1) Largest target is 1
  1213 ;;		 -> printf@c(BANK0[1]), 
  1214 ;;
  1215 ;; Serial_Print@a	PTR unsigned char  size(1) Largest target is 20
  1216 ;;		 -> STR_13(CODE[20]), STR_12(CODE[3]), STR_11(CODE[3]), STR_10(CODE[3]), 
  1217 ;;		 -> STR_9(CODE[3]), 
  1218 ;;
  1219                           
  1220                           
  1221 ;;
  1222 ;; Critical Paths under _main in COMMON
  1223 ;;
  1224 ;;   None.
  1225 ;;
  1226 ;; Critical Paths under _isr in COMMON
  1227 ;;
  1228 ;;   _isr->i1_LCD_print_char
  1229 ;;   i1_LCD_print_char->i1_position
  1230 ;;   i1_position->i1_lcd_add
  1231 ;;
  1232 ;; Critical Paths under _main in BANK0
  1233 ;;
  1234 ;;   _main->_printf
  1235 ;;   _LCDTimeUpdate->_LCD_print_char
  1236 ;;   _CheckMode->_Serial_Println_Int
  1237 ;;   _printf->___lwmod
  1238 ;;   _LCD_print_char->___lwmod
  1239 ;;   _CheckKeyPad->_RowNo
  1240 ;;   _a2d_read->_read_a2d_value
  1241 ;;   _clr_display->_lcd_add
  1242 ;;   _position->_lcd_add
  1243 ;;   _putch->_lcd_add
  1244 ;;   _Serial_Print_Int->___awdiv
  1245 ;;   _Serial_Println_Int->___awdiv
  1246 ;;   ___lwmod->___lwdiv
  1247 ;;
  1248 ;; Critical Paths under _isr in BANK0
  1249 ;;
  1250 ;;   None.
  1251 ;;
  1252 ;; Critical Paths under _main in BANK1
  1253 ;;
  1254 ;;   None.
  1255 ;;
  1256 ;; Critical Paths under _isr in BANK1
  1257 ;;
  1258 ;;   None.
  1259 ;;
  1260 ;; Critical Paths under _main in BANK3
  1261 ;;
  1262 ;;   None.
  1263 ;;
  1264 ;; Critical Paths under _isr in BANK3
  1265 ;;
  1266 ;;   None.
  1267 ;;
  1268 ;; Critical Paths under _main in BANK2
  1269 ;;
  1270 ;;   None.
  1271 ;;
  1272 ;; Critical Paths under _isr in BANK2
  1273 ;;
  1274 ;;   None.
  1275                           
  1276 ;;
  1277 ;;Main: autosize = 0, tempsize = 3, incstack = 0, save=0
  1278 ;;
  1279                           
  1280 ;;
  1281 ;;Call Graph Tables:
  1282 ;;
  1283 ;; ---------------------------------------------------------------------------------
  1284 ;; (Depth) Function   	        Calls       Base Space   Used Autos Params    Refs
  1285 ;; ---------------------------------------------------------------------------------
  1286 ;; (0) _main                                                 6     6      0   11195
  1287 ;;                                              0 BANK1      5     5      0
  1288 ;;                      _Setup_IOports
  1289 ;;                          _atod_init
  1290 ;;                           _lcd_init
  1291 ;;                        _clr_display
  1292 ;;                        _Serial_Init
  1293 ;;                        _Timer1_Init
  1294 ;;                    _enableInterrupt
  1295 ;;                             _printf
  1296 ;;                           _position
  1297 ;;                       _eeprom_write
  1298 ;;                        _eeprom_read
  1299 ;;                                _nop
  1300 ;;                      _LCDTimeUpdate
  1301 ;;                           _a2d_read
  1302 ;;                   _Serial_Print_Int
  1303 ;;                       _Serial_Print
  1304 ;;                     _Serial_NewLine
  1305 ;;                          _CheckMode
  1306 ;;                    _RotateMotorLeft
  1307 ;;                   _RotateMotorRight
  1308 ;; ---------------------------------------------------------------------------------
  1309 ;; (1) _LCDTimeUpdate                                        1     1      0     736
  1310 ;;                                             25 BANK0      1     1      0
  1311 ;;                            ___lwdiv
  1312 ;;                     _LCD_print_char
  1313 ;;                            ___lwmod
  1314 ;; ---------------------------------------------------------------------------------
  1315 ;; (1) _CheckMode                                            3     3      0    3320
  1316 ;;                                             17 BANK0      3     3      0
  1317 ;;                        _CheckKeyPad
  1318 ;;                       _Serial_Print
  1319 ;;                 _Serial_Println_Int
  1320 ;;                                _nop
  1321 ;; ---------------------------------------------------------------------------------
  1322 ;; (1) _printf                                              21    19      2    4373
  1323 ;;                                             19 BANK0     21    19      2
  1324 ;;                              _putch
  1325 ;;                            _isdigit
  1326 ;;                             ___wmul
  1327 ;;                             ___bmul
  1328 ;;                            ___lwdiv
  1329 ;;                            ___lwmod
  1330 ;; ---------------------------------------------------------------------------------
  1331 ;; (2) _LCD_print_char                                       6     1      5     263
  1332 ;;                                             19 BANK0      6     1      5
  1333 ;;                           _position
  1334 ;;                            _lcd_add
  1335 ;;                            ___lwdiv (ARG)
  1336 ;;                            ___lwmod (ARG)
  1337 ;; ---------------------------------------------------------------------------------
  1338 ;; (2) _CheckKeyPad                                          6     6      0    1442
  1339 ;;                                              9 BANK0      6     6      0
  1340 ;;                              _RowNo
  1341 ;;                           _ColomnNo
  1342 ;; ---------------------------------------------------------------------------------
  1343 ;; (1) _a2d_read                                             0     0      0     167
  1344 ;;                     _read_a2d_value
  1345 ;; ---------------------------------------------------------------------------------
  1346 ;; (1) _clr_display                                          2     2      0       0
  1347 ;;                                              7 BANK0      2     2      0
  1348 ;;                            _lcd_add
  1349 ;; ---------------------------------------------------------------------------------
  1350 ;; (3) _position                                             5     4      1     170
  1351 ;;                                              7 BANK0      5     4      1
  1352 ;;                            _lcd_add
  1353 ;; ---------------------------------------------------------------------------------
  1354 ;; (2) _putch                                                2     2      0      31
  1355 ;;                                              7 BANK0      2     2      0
  1356 ;;                            _lcd_add
  1357 ;; ---------------------------------------------------------------------------------
  1358 ;; (3) _ColomnNo                                             2     0      2     124
  1359 ;;                                              5 BANK0      2     0      2
  1360 ;; ---------------------------------------------------------------------------------
  1361 ;; (1) _RotateMotorRight                                     6     4      2      71
  1362 ;;                                              5 BANK0      6     4      2
  1363 ;; ---------------------------------------------------------------------------------
  1364 ;; (1) _RotateMotorLeft                                      6     4      2      71
  1365 ;;                                              5 BANK0      6     4      2
  1366 ;; ---------------------------------------------------------------------------------
  1367 ;; (1) _Serial_Print_Int                                     3     1      2    1748
  1368 ;;                                             14 BANK0      3     1      2
  1369 ;;                            ___awdiv
  1370 ;;                            ___awmod
  1371 ;; ---------------------------------------------------------------------------------
  1372 ;; (2) _Serial_Println_Int                                   3     1      2    1748
  1373 ;;                                             14 BANK0      3     1      2
  1374 ;;                            ___awdiv
  1375 ;;                            ___awmod
  1376 ;; ---------------------------------------------------------------------------------
  1377 ;; (1) _Serial_NewLine                                       1     1      0       0
  1378 ;;                                              5 BANK0      1     1      0
  1379 ;; ---------------------------------------------------------------------------------
  1380 ;; (2) _Serial_Print                                         2     2      0      96
  1381 ;;                                              5 BANK0      2     2      0
  1382 ;; ---------------------------------------------------------------------------------
  1383 ;; (1) _Serial_Init                                          3     3      0       0
  1384 ;;                                              5 BANK0      3     3      0
  1385 ;; ---------------------------------------------------------------------------------
  1386 ;; (2) _read_a2d_value                                       7     5      2     167
  1387 ;;                                              5 BANK0      7     5      2
  1388 ;; ---------------------------------------------------------------------------------
  1389 ;; (3) _lcd_add                                              2     2      0       0
  1390 ;;                                              5 BANK0      2     2      0
  1391 ;; ---------------------------------------------------------------------------------
  1392 ;; (3) ___awmod                                              7     3      4     433
  1393 ;;                                              5 BANK0      7     3      4
  1394 ;; ---------------------------------------------------------------------------------
  1395 ;; (3) ___awdiv                                              9     5      4     445
  1396 ;;                                              5 BANK0      9     5      4
  1397 ;; ---------------------------------------------------------------------------------
  1398 ;; (2) ___lwmod                                              6     2      4     232
  1399 ;;                                             13 BANK0      6     2      4
  1400 ;;                            ___lwdiv (ARG)
  1401 ;; ---------------------------------------------------------------------------------
  1402 ;; (2) ___lwdiv                                              8     4      4     241
  1403 ;;                                              5 BANK0      8     4      4
  1404 ;; ---------------------------------------------------------------------------------
  1405 ;; (2) ___wmul                                               6     2      4     136
  1406 ;;                                              5 BANK0      6     2      4
  1407 ;; ---------------------------------------------------------------------------------
  1408 ;; (2) ___bmul                                               4     3      1     136
  1409 ;;                                              5 BANK0      4     3      1
  1410 ;; ---------------------------------------------------------------------------------
  1411 ;; (2) _isdigit                                              2     2      0      99
  1412 ;;                                              5 BANK0      2     2      0
  1413 ;; ---------------------------------------------------------------------------------
  1414 ;; (3) _RowNo                                                4     2      2      46
  1415 ;;                                              5 BANK0      4     2      2
  1416 ;; ---------------------------------------------------------------------------------
  1417 ;; (1) _eeprom_read                                          2     2      0      31
  1418 ;;                                              5 BANK0      2     2      0
  1419 ;; ---------------------------------------------------------------------------------
  1420 ;; (1) _eeprom_write                                         3     2      1      69
  1421 ;;                                              5 BANK0      3     2      1
  1422 ;; ---------------------------------------------------------------------------------
  1423 ;; (1) _Timer1_Init                                          0     0      0       0
  1424 ;; ---------------------------------------------------------------------------------
  1425 ;; (1) _enableInterrupt                                      0     0      0       0
  1426 ;; ---------------------------------------------------------------------------------
  1427 ;; (1) _atod_init                                            0     0      0       0
  1428 ;; ---------------------------------------------------------------------------------
  1429 ;; (1) _lcd_init                                             2     2      0     340
  1430 ;;                                              5 BANK0      2     2      0
  1431 ;; ---------------------------------------------------------------------------------
  1432 ;; (1) _Setup_IOports                                        0     0      0       0
  1433 ;; ---------------------------------------------------------------------------------
  1434 ;; (2) _nop                                                  0     0      0       0
  1435 ;; ---------------------------------------------------------------------------------
  1436 ;; Estimated maximum stack depth 3
  1437 ;; ---------------------------------------------------------------------------------
  1438 ;; (Depth) Function   	        Calls       Base Space   Used Autos Params    Refs
  1439 ;; ---------------------------------------------------------------------------------
  1440 ;; (5) _isr                                                  5     5      0    1115
  1441 ;;                                              0 BANK0      5     5      0
  1442 ;;                   i1_LCD_print_char
  1443 ;;                          i1___lwmod
  1444 ;; ---------------------------------------------------------------------------------
  1445 ;; (6) i1_LCD_print_char                                     6     1      5     594
  1446 ;;                                              7 COMMON     6     1      5
  1447 ;;                         i1_position
  1448 ;;                          i1_lcd_add
  1449 ;;                          i1___lwmod (ARG)
  1450 ;; ---------------------------------------------------------------------------------
  1451 ;; (7) i1_position                                           5     4      1     375
  1452 ;;                                              2 COMMON     5     4      1
  1453 ;;                          i1_lcd_add
  1454 ;; ---------------------------------------------------------------------------------
  1455 ;; (7) i1_lcd_add                                            2     2      0       0
  1456 ;;                                              0 COMMON     2     2      0
  1457 ;; ---------------------------------------------------------------------------------
  1458 ;; (6) i1___lwmod                                            6     2      4     521
  1459 ;;                                              0 COMMON     6     2      4
  1460 ;; ---------------------------------------------------------------------------------
  1461 ;; Estimated maximum stack depth 7
  1462 ;; ---------------------------------------------------------------------------------
  1463                           
  1464 ;; Call Graph Graphs:
  1465                           
  1466 ;; _main (ROOT)
  1467 ;;   _Setup_IOports
  1468 ;;   _atod_init
  1469 ;;   _lcd_init
  1470 ;;   _clr_display
  1471 ;;     _lcd_add
  1472 ;;   _Serial_Init
  1473 ;;   _Timer1_Init
  1474 ;;   _enableInterrupt
  1475 ;;   _printf
  1476 ;;     _putch
  1477 ;;       _lcd_add
  1478 ;;     _isdigit
  1479 ;;     ___wmul
  1480 ;;     ___bmul
  1481 ;;     ___lwdiv
  1482 ;;     ___lwmod
  1483 ;;       ___lwdiv (ARG)
  1484 ;;   _position
  1485 ;;     _lcd_add
  1486 ;;   _eeprom_write
  1487 ;;   _eeprom_read
  1488 ;;   _nop
  1489 ;;   _LCDTimeUpdate
  1490 ;;     ___lwdiv
  1491 ;;     _LCD_print_char
  1492 ;;       _position
  1493 ;;         _lcd_add
  1494 ;;       _lcd_add
  1495 ;;       ___lwdiv (ARG)
  1496 ;;       ___lwmod (ARG)
  1497 ;;         ___lwdiv (ARG)
  1498 ;;     ___lwmod
  1499 ;;       ___lwdiv (ARG)
  1500 ;;   _a2d_read
  1501 ;;     _read_a2d_value
  1502 ;;   _Serial_Print_Int
  1503 ;;     ___awdiv
  1504 ;;     ___awmod
  1505 ;;   _Serial_Print
  1506 ;;   _Serial_NewLine
  1507 ;;   _CheckMode
  1508 ;;     _CheckKeyPad
  1509 ;;       _RowNo
  1510 ;;       _ColomnNo
  1511 ;;     _Serial_Print
  1512 ;;     _Serial_Println_Int
  1513 ;;       ___awdiv
  1514 ;;       ___awmod
  1515 ;;     _nop
  1516 ;;   _RotateMotorLeft
  1517 ;;   _RotateMotorRight
  1518 ;;
  1519 ;; _isr (ROOT)
  1520 ;;   i1_LCD_print_char
  1521 ;;     i1_position
  1522 ;;       i1_lcd_add
  1523 ;;     i1_lcd_add
  1524 ;;     i1___lwmod (ARG)
  1525 ;;   i1___lwmod
  1526 ;;
  1527                           
  1528 ;; Address spaces:
  1529                           
  1530 ;;Name               Size   Autos  Total    Cost      Usage
  1531 ;;BANK3               55      0       0       9        0.0%
  1532 ;;BITBANK3            55      0       0       8        0.0%
  1533 ;;SFR3                 0      0       0       4        0.0%
  1534 ;;BITSFR3              0      0       0       4        0.0%
  1535 ;;BANK2               60      0       0      11        0.0%
  1536 ;;BITBANK2            60      0       0      10        0.0%
  1537 ;;SFR2                 0      0       0       5        0.0%
  1538 ;;BITSFR2              0      0       0       5        0.0%
  1539 ;;SFR1                 0      0       0       2        0.0%
  1540 ;;BITSFR1              0      0       0       2        0.0%
  1541 ;;BANK1               50      5      2D       7       56.3%
  1542 ;;BITBANK1            50      0       0       6        0.0%
  1543 ;;CODE                 0      0       0       0        0.0%
  1544 ;;DATA                 0      0      90      12        0.0%
  1545 ;;ABS                  0      0      84       3        0.0%
  1546 ;;NULL                 0      0       0       0        0.0%
  1547 ;;STACK                0      0       C       2        0.0%
  1548 ;;BANK0               50     28      4A       5       92.5%
  1549 ;;BITBANK0            50      0       2       4        2.5%
  1550 ;;SFR0                 0      0       0       1        0.0%
  1551 ;;BITSFR0              0      0       0       1        0.0%
  1552 ;;COMMON               D      D       D       1      100.0%
  1553 ;;BITCOMMON            D      0       0       0        0.0%
  1554 ;;EEDATA             100      0       0       0        0.0%
  1555                           
  1556                           	global	_main
  1557                           psect	maintext,global,class=CODE,delta=2
  1558                           global __pmaintext
  1559  0033                     __pmaintext:
  1560                           
  1561 ;; *************** function _main *****************
  1562 ;; Defined at:
  1563 ;;		line 64 in file "D:\ELECTRONIC\2016\1. Automated Solar Panel Orientation Setter\Firmware\ver4\Automated Solar Panel 
       Orientation Setter.c"
  1564 ;; Parameters:    Size  Location     Type
  1565 ;;		None
  1566 ;; Auto vars:     Size  Location     Type
  1567 ;;  abc             2    3[BANK1 ] int 
  1568 ;;  pressedKey      1    0        unsigned char 
  1569 ;; Return value:  Size  Location     Type
  1570 ;;		None               void
  1571 ;; Registers used:
  1572 ;;		wreg, fsr0l, fsr0h, status,2, status,0, btemp+1, pclath, cstack
  1573 ;; Tracked objects:
  1574 ;;		On entry : 17F/0
  1575 ;;		On exit  : 0/0
  1576 ;;		Unchanged: 0/0
  1577 ;; Data sizes:     COMMON   BANK0   BANK1   BANK3   BANK2
  1578 ;;      Params:         0       0       0       0       0
  1579 ;;      Locals:         0       0       2       0       0
  1580 ;;      Temps:          0       0       3       0       0
  1581 ;;      Totals:         0       0       5       0       0
  1582 ;;Total ram usage:        5 bytes
  1583 ;; Hardware stack levels required when called:    8
  1584 ;; This function calls:
  1585 ;;		_Setup_IOports
  1586 ;;		_atod_init
  1587 ;;		_lcd_init
  1588 ;;		_clr_display
  1589 ;;		_Serial_Init
  1590 ;;		_Timer1_Init
  1591 ;;		_enableInterrupt
  1592 ;;		_printf
  1593 ;;		_position
  1594 ;;		_eeprom_write
  1595 ;;		_eeprom_read
  1596 ;;		_nop
  1597 ;;		_LCDTimeUpdate
  1598 ;;		_a2d_read
  1599 ;;		_Serial_Print_Int
  1600 ;;		_Serial_Print
  1601 ;;		_Serial_NewLine
  1602 ;;		_CheckMode
  1603 ;;		_RotateMotorLeft
  1604 ;;		_RotateMotorRight
  1605 ;; This function is called by:
  1606 ;;		Startup code after reset
  1607 ;; This function uses a non-reentrant model
  1608 ;;
  1609                           psect	maintext
  1610                           	file	"D:\ELECTRONIC\2016\1. Automated Solar Panel Orientation Setter\Firmware\ver4\Auto
                                 mated Solar Panel Orientation Setter.c"
  1611                           	line	64
  1612                           	global	__size_of_main
  1613  0204                     	__size_of_main	equ	__end_of_main-_main
  1614                           	
  1615  0033                     _main:	
  1616                           	opt	stack 0
  1617                           ; Regs used in _main: [wreg-fsr0h+status,2+status,0+btemp+1+pclath+cstack]
  1618                           	line	68
  1619                           	
  1620  0033                     l10186:	
  1621                           ;Automated Solar Panel Orientation Setter.c: 66: char pressedKey;
  1622                           ;Automated Solar Panel Orientation Setter.c: 68: Setup_IOports();
  1623  0033  160A  158A  23E7   	fcall	_Setup_IOports
              120A  118A         
  1624                           	line	71
  1625                           ;Automated Solar Panel Orientation Setter.c: 71: atod_init();
  1626  0038  160A  158A  22E2   	fcall	_atod_init
              120A  118A         
  1627                           	line	75
  1628                           ;Automated Solar Panel Orientation Setter.c: 75: lcd_init();
  1629  003D  160A  118A  2227   	fcall	_lcd_init
              120A  118A         
  1630                           	line	76
  1631                           ;Automated Solar Panel Orientation Setter.c: 76: clr_display();
  1632  0042  160A  158A  235E   	fcall	_clr_display
              120A  118A         
  1633                           	line	78
  1634                           ;Automated Solar Panel Orientation Setter.c: 78: Serial_Init();
  1635  0047  160A  158A  233E   	fcall	_Serial_Init
              120A  118A         
  1636                           	line	79
  1637                           ;Automated Solar Panel Orientation Setter.c: 79: Timer1_Init();
  1638  004C  160A  158A  22EB   	fcall	_Timer1_Init
              120A  118A         
  1639                           	line	80
  1640                           	
  1641  0051                     l10188:	
  1642                           ;Automated Solar Panel Orientation Setter.c: 80: enableInterrupt();
  1643  0051  160A  158A  22FA   	fcall	_enableInterrupt
              120A  118A         
  1644                           	line	84
  1645                           	
  1646  0056                     l10190:	
  1647                           ;Automated Solar Panel Orientation Setter.c: 84: lcd_init();
  1648  0056  160A  118A  2227   	fcall	_lcd_init
              120A  118A         
  1649                           	line	85
  1650                           	
  1651  005B                     l10192:	
  1652                           ;Automated Solar Panel Orientation Setter.c: 85: clr_display();
  1653  005B  160A  158A  235E   	fcall	_clr_display
              120A  118A         
  1654                           	line	87
  1655                           	
  1656  0060                     l10194:	
  1657                           ;Automated Solar Panel Orientation Setter.c: 87: printf("Body Temperature ");
  1658  0060  3069               	movlw	((STR_1-__stringbase))&0ffh
  1659  0061  120A  118A  2237   	fcall	_printf
              120A  118A         
  1660                           	line	88
  1661                           	
  1662  0066                     l10196:	
  1663                           ;Automated Solar Panel Orientation Setter.c: 88: position(2,1);
  1664  0066  1283               	bcf	status, 5	;RP0=0, select bank0
  1665  0067  1303               	bcf	status, 6	;RP1=0, select bank0
  1666  0068  01A7               	clrf	(?_position)
  1667  0069  1403               	bsf	status,0
  1668  006A  0DA7               	rlf	(?_position),f
  1669  006B  3002               	movlw	(02h)
  1670  006C  160A  158A  2591   	fcall	_position
              120A  118A         
  1671                           	line	89
  1672                           	
  1673  0071                     l10198:	
  1674                           ;Automated Solar Panel Orientation Setter.c: 89: printf(" and Heart Rate  ");
  1675  0071  3057               	movlw	((STR_2-__stringbase))&0ffh
  1676  0072  120A  118A  2237   	fcall	_printf
              120A  118A         
  1677                           	line	90
  1678                           	
  1679  0077                     l10200:	
  1680                           ;Automated Solar Panel Orientation Setter.c: 90: _delay((unsigned long)((1000)*(4000000/
                                 4000.0)));
  1681                           	opt asmopt_off
  1682  0077  3006               movlw  6
  1683  0078  1683               	bsf	status, 5	;RP0=1, select bank1
  1684  0079  1303               	bcf	status, 6	;RP1=0, select bank1
  1685  007A  00CA               movwf	((??_main+0)^080h+0+2),f
  1686  007B  3013               movlw	19
  1687  007C  00C9               movwf	((??_main+0)^080h+0+1),f
  1688  007D  30B1               	movlw	177
  1689  007E  00C8               movwf	((??_main+0)^080h+0),f
  1690  007F                     u12347:
  1691  007F  0BC8               	decfsz	((??_main+0)^080h+0),f
  1692  0080  287F               	goto	u12347
  1693  0081  0BC9               	decfsz	((??_main+0)^080h+0+1),f
  1694  0082  287F               	goto	u12347
  1695  0083  0BCA               	decfsz	((??_main+0)^080h+0+2),f
  1696  0084  287F               	goto	u12347
  1697  0085  2886               	nop2
  1698                           opt asmopt_on
  1699                           
  1700                           	line	91
  1701                           ;Automated Solar Panel Orientation Setter.c: 91: position(1,1);
  1702  0086  1283               	bcf	status, 5	;RP0=0, select bank0
  1703  0087  1303               	bcf	status, 6	;RP1=0, select bank0
  1704  0088  01A7               	clrf	(?_position)
  1705  0089  1403               	bsf	status,0
  1706  008A  0DA7               	rlf	(?_position),f
  1707  008B  3001               	movlw	(01h)
  1708  008C  160A  158A  2591   	fcall	_position
              120A  118A         
  1709                           	line	92
  1710                           	
  1711  0091                     l10202:	
  1712                           ;Automated Solar Panel Orientation Setter.c: 92: printf("    Monitoring   ");
  1713  0091  3045               	movlw	((STR_3-__stringbase))&0ffh
  1714  0092  120A  118A  2237   	fcall	_printf
              120A  118A         
  1715                           	line	93
  1716                           	
  1717  0097                     l10204:	
  1718                           ;Automated Solar Panel Orientation Setter.c: 93: position(2,1);
  1719  0097  1283               	bcf	status, 5	;RP0=0, select bank0
  1720  0098  1303               	bcf	status, 6	;RP1=0, select bank0
  1721  0099  01A7               	clrf	(?_position)
  1722  009A  1403               	bsf	status,0
  1723  009B  0DA7               	rlf	(?_position),f
  1724  009C  3002               	movlw	(02h)
  1725  009D  160A  158A  2591   	fcall	_position
              120A  118A         
  1726                           	line	94
  1727                           ;Automated Solar Panel Orientation Setter.c: 94: printf("      System     ");
  1728  00A2  3033               	movlw	((STR_4-__stringbase))&0ffh
  1729  00A3  120A  118A  2237   	fcall	_printf
              120A  118A         
  1730                           	line	95
  1731                           	
  1732  00A8                     l10206:	
  1733                           ;Automated Solar Panel Orientation Setter.c: 95: _delay((unsigned long)((1000)*(4000000/
                                 4000.0)));
  1734                           	opt asmopt_off
  1735  00A8  3006               movlw  6
  1736  00A9  1683               	bsf	status, 5	;RP0=1, select bank1
  1737  00AA  1303               	bcf	status, 6	;RP1=0, select bank1
  1738  00AB  00CA               movwf	((??_main+0)^080h+0+2),f
  1739  00AC  3013               movlw	19
  1740  00AD  00C9               movwf	((??_main+0)^080h+0+1),f
  1741  00AE  30B1               	movlw	177
  1742  00AF  00C8               movwf	((??_main+0)^080h+0),f
  1743  00B0                     u12357:
  1744  00B0  0BC8               	decfsz	((??_main+0)^080h+0),f
  1745  00B1  28B0               	goto	u12357
  1746  00B2  0BC9               	decfsz	((??_main+0)^080h+0+1),f
  1747  00B3  28B0               	goto	u12357
  1748  00B4  0BCA               	decfsz	((??_main+0)^080h+0+2),f
  1749  00B5  28B0               	goto	u12357
  1750  00B6  28B7               	nop2
  1751                           opt asmopt_on
  1752                           
  1753                           	line	96
  1754                           	
  1755  00B7                     l10208:	
  1756                           ;Automated Solar Panel Orientation Setter.c: 96: position(1,1);
  1757  00B7  1283               	bcf	status, 5	;RP0=0, select bank0
  1758  00B8  1303               	bcf	status, 6	;RP1=0, select bank0
  1759  00B9  01A7               	clrf	(?_position)
  1760  00BA  1403               	bsf	status,0
  1761  00BB  0DA7               	rlf	(?_position),f
  1762  00BC  3001               	movlw	(01h)
  1763  00BD  160A  158A  2591   	fcall	_position
              120A  118A         
  1764                           	line	97
  1765                           	
  1766  00C2                     l10210:	
  1767                           ;Automated Solar Panel Orientation Setter.c: 97: printf("       for      ");
  1768  00C2  309D               	movlw	((STR_5-__stringbase))&0ffh
  1769  00C3  120A  118A  2237   	fcall	_printf
              120A  118A         
  1770                           	line	98
  1771                           	
  1772  00C8                     l10212:	
  1773                           ;Automated Solar Panel Orientation Setter.c: 98: position(2,1);
  1774  00C8  1283               	bcf	status, 5	;RP0=0, select bank0
  1775  00C9  1303               	bcf	status, 6	;RP1=0, select bank0
  1776  00CA  01A7               	clrf	(?_position)
  1777  00CB  1403               	bsf	status,0
  1778  00CC  0DA7               	rlf	(?_position),f
  1779  00CD  3002               	movlw	(02h)
  1780  00CE  160A  158A  2591   	fcall	_position
              120A  118A         
  1781                           	line	99
  1782                           	
  1783  00D3                     l10214:	
  1784                           ;Automated Solar Panel Orientation Setter.c: 99: printf("    Patients    ");
  1785  00D3  30AE               	movlw	((STR_6-__stringbase))&0ffh
  1786  00D4  120A  118A  2237   	fcall	_printf
              120A  118A         
  1787                           	line	100
  1788                           	
  1789  00D9                     l10216:	
  1790                           ;Automated Solar Panel Orientation Setter.c: 100: _delay((unsigned long)((1000)*(4000000
                                 /4000.0)));
  1791                           	opt asmopt_off
  1792  00D9  3006               movlw  6
  1793  00DA  1683               	bsf	status, 5	;RP0=1, select bank1
  1794  00DB  1303               	bcf	status, 6	;RP1=0, select bank1
  1795  00DC  00CA               movwf	((??_main+0)^080h+0+2),f
  1796  00DD  3013               movlw	19
  1797  00DE  00C9               movwf	((??_main+0)^080h+0+1),f
  1798  00DF  30B1               	movlw	177
  1799  00E0  00C8               movwf	((??_main+0)^080h+0),f
  1800  00E1                     u12367:
  1801  00E1  0BC8               	decfsz	((??_main+0)^080h+0),f
  1802  00E2  28E1               	goto	u12367
  1803  00E3  0BC9               	decfsz	((??_main+0)^080h+0+1),f
  1804  00E4  28E1               	goto	u12367
  1805  00E5  0BCA               	decfsz	((??_main+0)^080h+0+2),f
  1806  00E6  28E1               	goto	u12367
  1807  00E7  28E8               	nop2
  1808                           opt asmopt_on
  1809                           
  1810                           	line	101
  1811                           	
  1812  00E8                     l10218:	
  1813                           ;Automated Solar Panel Orientation Setter.c: 101: position(1,1);
  1814  00E8  1283               	bcf	status, 5	;RP0=0, select bank0
  1815  00E9  1303               	bcf	status, 6	;RP1=0, select bank0
  1816  00EA  01A7               	clrf	(?_position)
  1817  00EB  1403               	bsf	status,0
  1818  00EC  0DA7               	rlf	(?_position),f
  1819  00ED  3001               	movlw	(01h)
  1820  00EE  160A  158A  2591   	fcall	_position
              120A  118A         
  1821                           	line	102
  1822                           	
  1823  00F3                     l10220:	
  1824                           ;Automated Solar Panel Orientation Setter.c: 102: printf("H:  62PPM Low   ",HeartRate);
  1825  00F3  1283               	bcf	status, 5	;RP0=0, select bank0
  1826  00F4  1303               	bcf	status, 6	;RP1=0, select bank0
  1827  00F5  084B               	movf	(_HeartRate+1),w
  1828  00F6  01B4               	clrf	(?_printf+1)
  1829  00F7  07B4               	addwf	(?_printf+1)
  1830  00F8  084A               	movf	(_HeartRate),w
  1831  00F9  01B3               	clrf	(?_printf)
  1832  00FA  07B3               	addwf	(?_printf)
  1833                           
  1834  00FB  30D0               	movlw	((STR_7-__stringbase))&0ffh
  1835  00FC  120A  118A  2237   	fcall	_printf
              120A  118A         
  1836                           	line	103
  1837                           ;Automated Solar Panel Orientation Setter.c: 103: position(2,1);
  1838  0101  1283               	bcf	status, 5	;RP0=0, select bank0
  1839  0102  1303               	bcf	status, 6	;RP1=0, select bank0
  1840  0103  01A7               	clrf	(?_position)
  1841  0104  1403               	bsf	status,0
  1842  0105  0DA7               	rlf	(?_position),f
  1843  0106  3002               	movlw	(02h)
  1844  0107  160A  158A  2591   	fcall	_position
              120A  118A         
  1845                           	line	104
  1846                           	
  1847  010C                     l10222:	
  1848                           ;Automated Solar Panel Orientation Setter.c: 104: printf("T:  84F   Low   ",analogReadVa
                                 l);
  1849  010C  1283               	bcf	status, 5	;RP0=0, select bank0
  1850  010D  1303               	bcf	status, 6	;RP1=0, select bank0
  1851  010E  084F               	movf	(_analogReadVal+1),w
  1852  010F  01B4               	clrf	(?_printf+1)
  1853  0110  07B4               	addwf	(?_printf+1)
  1854  0111  084E               	movf	(_analogReadVal),w
  1855  0112  01B3               	clrf	(?_printf)
  1856  0113  07B3               	addwf	(?_printf)
  1857                           
  1858  0114  30BF               	movlw	((STR_8-__stringbase))&0ffh
  1859  0115  120A  118A  2237   	fcall	_printf
              120A  118A         
  1860                           	line	108
  1861                           	
  1862  011A                     l10224:	
  1863                           ;Automated Solar Panel Orientation Setter.c: 108: clr_display();
  1864  011A  160A  158A  235E   	fcall	_clr_display
              120A  118A         
  1865                           	line	109
  1866                           	
  1867  011F                     l10226:	
  1868                           ;Automated Solar Panel Orientation Setter.c: 109: state = 91;
  1869  011F  305B               	movlw	(05Bh)
  1870  0120  1683               	bsf	status, 5	;RP0=1, select bank1
  1871  0121  1303               	bcf	status, 6	;RP1=0, select bank1
  1872  0122  00C8               	movwf	(??_main+0)^080h+0
  1873  0123  0848               	movf	(??_main+0)^080h+0,w
  1874  0124  1283               	bcf	status, 5	;RP0=0, select bank0
  1875  0125  1303               	bcf	status, 6	;RP1=0, select bank0
  1876  0126  00DF               	movwf	(_state)
  1877                           	line	112
  1878                           	
  1879  0127                     l10228:	
  1880                           ;Automated Solar Panel Orientation Setter.c: 112: _delay((unsigned long)((20)*(4000000/4
                                 000.0)));
  1881                           	opt asmopt_off
  1882  0127  301A               movlw	26
  1883  0128  1683               	bsf	status, 5	;RP0=1, select bank1
  1884  0129  1303               	bcf	status, 6	;RP1=0, select bank1
  1885  012A  00C9               movwf	((??_main+0)^080h+0+1),f
  1886  012B  30F8               	movlw	248
  1887  012C  00C8               movwf	((??_main+0)^080h+0),f
  1888  012D                     u12377:
  1889  012D  0BC8               	decfsz	((??_main+0)^080h+0),f
  1890  012E  292D               	goto	u12377
  1891  012F  0BC9               	decfsz	((??_main+0)^080h+0+1),f
  1892  0130  292D               	goto	u12377
  1893  0131  0064               	clrwdt
  1894                           opt asmopt_on
  1895                           
  1896                           	line	113
  1897                           	
  1898  0132                     l10230:	
  1899                           ;Automated Solar Panel Orientation Setter.c: 113: eeprom_write(0x01, 0x2A );
  1900  0132  302A               	movlw	(02Ah)
  1901  0133  1683               	bsf	status, 5	;RP0=1, select bank1
  1902  0134  1303               	bcf	status, 6	;RP1=0, select bank1
  1903  0135  00C8               	movwf	(??_main+0)^080h+0
  1904  0136  0848               	movf	(??_main+0)^080h+0,w
  1905  0137  1283               	bcf	status, 5	;RP0=0, select bank0
  1906  0138  1303               	bcf	status, 6	;RP1=0, select bank0
  1907  0139  00A5               	movwf	(?_eeprom_write)
  1908  013A  3001               	movlw	(01h)
  1909  013B  160A  158A  2556   	fcall	_eeprom_write
              120A  118A         
  1910                           	line	114
  1911                           	
  1912  0140                     l10232:	
  1913                           ;Automated Solar Panel Orientation Setter.c: 114: int abc = eeprom_read(0x00);
  1914  0140  3000               	movlw	(0)
  1915  0141  160A  158A  240B   	fcall	_eeprom_read
              120A  118A         
  1916  0146  1683               	bsf	status, 5	;RP0=1, select bank1
  1917  0147  1303               	bcf	status, 6	;RP1=0, select bank1
  1918  0148  00C8               	movwf	(??_main+0)^080h+0
  1919  0149  01C9               	clrf	(??_main+0)^080h+0+1
  1920  014A  0848               	movf	0+(??_main+0)^080h+0,w
  1921  014B  00CB               	movwf	(main@abc)^080h
  1922  014C  0849               	movf	1+(??_main+0)^080h+0,w
  1923  014D  00CC               	movwf	(main@abc+1)^080h
  1924                           	line	115
  1925                           	
  1926  014E                     l10234:	
  1927                           ;Automated Solar Panel Orientation Setter.c: 115: nop();
  1928  014E  160A  158A  22D5   	fcall	_nop
              120A  118A         
  1929                           	line	116
  1930                           	
  1931  0153                     l10236:	
  1932                           ;Automated Solar Panel Orientation Setter.c: 116: LCDTimeUpdate();
  1933  0153  160A  118A  2192   	fcall	_LCDTimeUpdate
              120A  118A         
  1934  0158  2A10               	goto	l10280
  1935                           	line	117
  1936                           ;Automated Solar Panel Orientation Setter.c: 117: while(1){
  1937                           	
  1938  0159                     l998:	
  1939                           	line	118
  1940                           ;Automated Solar Panel Orientation Setter.c: 118: switch (state){
  1941  0159  2A10               	goto	l10280
  1942                           	line	122
  1943                           ;Automated Solar Panel Orientation Setter.c: 122: case 0:
  1944                           	
  1945  015A                     l1000:	
  1946                           	line	124
  1947                           ;Automated Solar Panel Orientation Setter.c: 124: break;
  1948  015A  2A10               	goto	l10280
  1949                           	line	126
  1950                           ;Automated Solar Panel Orientation Setter.c: 126: case 1:
  1951                           	
  1952  015B                     l1002:	
  1953                           	line	127
  1954                           	
  1955  015B                     l10238:	
  1956                           ;Automated Solar Panel Orientation Setter.c: 127: state = 10;
  1957  015B  300A               	movlw	(0Ah)
  1958  015C  1683               	bsf	status, 5	;RP0=1, select bank1
  1959  015D  1303               	bcf	status, 6	;RP1=0, select bank1
  1960  015E  00C8               	movwf	(??_main+0)^080h+0
  1961  015F  0848               	movf	(??_main+0)^080h+0,w
  1962  0160  1283               	bcf	status, 5	;RP0=0, select bank0
  1963  0161  1303               	bcf	status, 6	;RP1=0, select bank0
  1964  0162  00DF               	movwf	(_state)
  1965                           	line	128
  1966                           ;Automated Solar Panel Orientation Setter.c: 128: break;
  1967  0163  2A10               	goto	l10280
  1968                           	line	129
  1969                           ;Automated Solar Panel Orientation Setter.c: 129: case 2:
  1970                           	
  1971  0164                     l1003:	
  1972                           	line	130
  1973                           	
  1974  0164                     l10240:	
  1975                           ;Automated Solar Panel Orientation Setter.c: 130: state = 20;
  1976  0164  3014               	movlw	(014h)
  1977  0165  1683               	bsf	status, 5	;RP0=1, select bank1
  1978  0166  1303               	bcf	status, 6	;RP1=0, select bank1
  1979  0167  00C8               	movwf	(??_main+0)^080h+0
  1980  0168  0848               	movf	(??_main+0)^080h+0,w
  1981  0169  1283               	bcf	status, 5	;RP0=0, select bank0
  1982  016A  1303               	bcf	status, 6	;RP1=0, select bank0
  1983  016B  00DF               	movwf	(_state)
  1984                           	line	131
  1985                           ;Automated Solar Panel Orientation Setter.c: 131: break;
  1986  016C  2A10               	goto	l10280
  1987                           	line	132
  1988                           ;Automated Solar Panel Orientation Setter.c: 132: case 3:
  1989                           	
  1990  016D                     l1004:	
  1991                           	line	133
  1992                           	
  1993  016D                     l10242:	
  1994                           ;Automated Solar Panel Orientation Setter.c: 133: state = 30;
  1995  016D  301E               	movlw	(01Eh)
  1996  016E  1683               	bsf	status, 5	;RP0=1, select bank1
  1997  016F  1303               	bcf	status, 6	;RP1=0, select bank1
  1998  0170  00C8               	movwf	(??_main+0)^080h+0
  1999  0171  0848               	movf	(??_main+0)^080h+0,w
  2000  0172  1283               	bcf	status, 5	;RP0=0, select bank0
  2001  0173  1303               	bcf	status, 6	;RP1=0, select bank0
  2002  0174  00DF               	movwf	(_state)
  2003                           	line	134
  2004                           ;Automated Solar Panel Orientation Setter.c: 134: break;
  2005  0175  2A10               	goto	l10280
  2006                           	line	137
  2007                           ;Automated Solar Panel Orientation Setter.c: 137: case 91:
  2008                           	
  2009  0176                     l1005:	
  2010                           	line	142
  2011                           	
  2012  0176                     l10244:	
  2013                           ;Automated Solar Panel Orientation Setter.c: 142: state = 10;
  2014  0176  300A               	movlw	(0Ah)
  2015  0177  1683               	bsf	status, 5	;RP0=1, select bank1
  2016  0178  1303               	bcf	status, 6	;RP1=0, select bank1
  2017  0179  00C8               	movwf	(??_main+0)^080h+0
  2018  017A  0848               	movf	(??_main+0)^080h+0,w
  2019  017B  1283               	bcf	status, 5	;RP0=0, select bank0
  2020  017C  1303               	bcf	status, 6	;RP1=0, select bank0
  2021  017D  00DF               	movwf	(_state)
  2022                           	line	143
  2023                           ;Automated Solar Panel Orientation Setter.c: 143: break;
  2024  017E  2A10               	goto	l10280
  2025                           	line	144
  2026                           ;Automated Solar Panel Orientation Setter.c: 144: case 10 :
  2027                           	
  2028  017F                     l1006:	
  2029                           	line	145
  2030                           	
  2031  017F                     l10246:	
  2032                           ;Automated Solar Panel Orientation Setter.c: 145: a2d_read();
  2033  017F  160A  158A  24E2   	fcall	_a2d_read
              120A  118A         
  2034                           	line	147
  2035                           	
  2036  0184                     l10248:	
  2037                           ;Automated Solar Panel Orientation Setter.c: 147: Serial_Print_Int(ldr1);
  2038  0184  1283               	bcf	status, 5	;RP0=0, select bank0
  2039  0185  1303               	bcf	status, 6	;RP1=0, select bank0
  2040  0186  0855               	movf	(_ldr1+1),w
  2041  0187  01AF               	clrf	(?_Serial_Print_Int+1)
  2042  0188  07AF               	addwf	(?_Serial_Print_Int+1)
  2043  0189  0854               	movf	(_ldr1),w
  2044  018A  01AE               	clrf	(?_Serial_Print_Int)
  2045  018B  07AE               	addwf	(?_Serial_Print_Int)
  2046                           
  2047  018C  120A  158A  22A6   	fcall	_Serial_Print_Int
              120A  118A         
  2048                           	line	148
  2049                           	
  2050  0191                     l10250:	
  2051                           ;Automated Solar Panel Orientation Setter.c: 148: Serial_Print(", ");
  2052  0191  30E1               	movlw	((STR_9-__stringbase))&0ffh
  2053  0192  160A  158A  2482   	fcall	_Serial_Print
              120A  118A         
  2054                           	line	149
  2055                           	
  2056  0197                     l10252:	
  2057                           ;Automated Solar Panel Orientation Setter.c: 149: Serial_Print_Int(ldr2);
  2058  0197  1283               	bcf	status, 5	;RP0=0, select bank0
  2059  0198  1303               	bcf	status, 6	;RP1=0, select bank0
  2060  0199  0857               	movf	(_ldr2+1),w
  2061  019A  01AF               	clrf	(?_Serial_Print_Int+1)
  2062  019B  07AF               	addwf	(?_Serial_Print_Int+1)
  2063  019C  0856               	movf	(_ldr2),w
  2064  019D  01AE               	clrf	(?_Serial_Print_Int)
  2065  019E  07AE               	addwf	(?_Serial_Print_Int)
  2066                           
  2067  019F  120A  158A  22A6   	fcall	_Serial_Print_Int
              120A  118A         
  2068                           	line	150
  2069                           	
  2070  01A4                     l10254:	
  2071                           ;Automated Solar Panel Orientation Setter.c: 150: Serial_Print(", ");
  2072  01A4  30E1               	movlw	((STR_10-__stringbase))&0ffh
  2073  01A5  160A  158A  2482   	fcall	_Serial_Print
              120A  118A         
  2074                           	line	151
  2075                           	
  2076  01AA                     l10256:	
  2077                           ;Automated Solar Panel Orientation Setter.c: 151: Serial_Print_Int(V_Bat);
  2078  01AA  1283               	bcf	status, 5	;RP0=0, select bank0
  2079  01AB  1303               	bcf	status, 6	;RP1=0, select bank0
  2080  01AC  084D               	movf	(_V_Bat+1),w
  2081  01AD  01AF               	clrf	(?_Serial_Print_Int+1)
  2082  01AE  07AF               	addwf	(?_Serial_Print_Int+1)
  2083  01AF  084C               	movf	(_V_Bat),w
  2084  01B0  01AE               	clrf	(?_Serial_Print_Int)
  2085  01B1  07AE               	addwf	(?_Serial_Print_Int)
  2086                           
  2087  01B2  120A  158A  22A6   	fcall	_Serial_Print_Int
              120A  118A         
  2088                           	line	152
  2089                           	
  2090  01B7                     l10258:	
  2091                           ;Automated Solar Panel Orientation Setter.c: 152: Serial_Print(", ");
  2092  01B7  30E1               	movlw	((STR_11-__stringbase))&0ffh
  2093  01B8  160A  158A  2482   	fcall	_Serial_Print
              120A  118A         
  2094                           	line	153
  2095                           	
  2096  01BD                     l10260:	
  2097                           ;Automated Solar Panel Orientation Setter.c: 153: Serial_Print_Int(C_Bat);
  2098  01BD  1283               	bcf	status, 5	;RP0=0, select bank0
  2099  01BE  1303               	bcf	status, 6	;RP1=0, select bank0
  2100  01BF  0849               	movf	(_C_Bat+1),w
  2101  01C0  01AF               	clrf	(?_Serial_Print_Int+1)
  2102  01C1  07AF               	addwf	(?_Serial_Print_Int+1)
  2103  01C2  0848               	movf	(_C_Bat),w
  2104  01C3  01AE               	clrf	(?_Serial_Print_Int)
  2105  01C4  07AE               	addwf	(?_Serial_Print_Int)
  2106                           
  2107  01C5  120A  158A  22A6   	fcall	_Serial_Print_Int
              120A  118A         
  2108                           	line	154
  2109                           	
  2110  01CA                     l10262:	
  2111                           ;Automated Solar Panel Orientation Setter.c: 154: Serial_Print(", ");
  2112  01CA  30E1               	movlw	((STR_12-__stringbase))&0ffh
  2113  01CB  160A  158A  2482   	fcall	_Serial_Print
              120A  118A         
  2114                           	line	155
  2115                           ;Automated Solar Panel Orientation Setter.c: 155: Serial_NewLine();
  2116  01D0  160A  158A  23A1   	fcall	_Serial_NewLine
              120A  118A         
  2117                           	line	156
  2118                           	
  2119  01D5                     l10264:	
  2120                           ;Automated Solar Panel Orientation Setter.c: 156: _delay((unsigned long)((50)*(4000000/4
                                 000.0)));
  2121                           	opt asmopt_off
  2122  01D5  3041               movlw	65
  2123  01D6  1683               	bsf	status, 5	;RP0=1, select bank1
  2124  01D7  1303               	bcf	status, 6	;RP1=0, select bank1
  2125  01D8  00C9               movwf	((??_main+0)^080h+0+1),f
  2126  01D9  30EE               	movlw	238
  2127  01DA  00C8               movwf	((??_main+0)^080h+0),f
  2128  01DB                     u12387:
  2129  01DB  0BC8               	decfsz	((??_main+0)^080h+0),f
  2130  01DC  29DB               	goto	u12387
  2131  01DD  0BC9               	decfsz	((??_main+0)^080h+0+1),f
  2132  01DE  29DB               	goto	u12387
  2133  01DF  0064               	clrwdt
  2134                           opt asmopt_on
  2135                           
  2136                           	line	157
  2137                           	
  2138  01E0                     l10266:	
  2139                           ;Automated Solar Panel Orientation Setter.c: 157: nop();
  2140  01E0  160A  158A  22D5   	fcall	_nop
              120A  118A         
  2141                           	line	161
  2142                           	
  2143  01E5                     l10268:	
  2144                           ;Automated Solar Panel Orientation Setter.c: 161: CheckMode();
  2145  01E5  160A  118A  22F9   	fcall	_CheckMode
              120A  118A         
  2146                           	line	163
  2147                           	
  2148  01EA                     l10270:	
  2149                           ;Automated Solar Panel Orientation Setter.c: 163: RotateMotorLeft(50);
  2150  01EA  3032               	movlw	low(032h)
  2151  01EB  1283               	bcf	status, 5	;RP0=0, select bank0
  2152  01EC  1303               	bcf	status, 6	;RP1=0, select bank0
  2153  01ED  00A5               	movwf	(?_RotateMotorLeft)
  2154  01EE  3000               	movlw	high(032h)
  2155  01EF  00A6               	movwf	((?_RotateMotorLeft))+1
  2156  01F0  160A  158A  26A0   	fcall	_RotateMotorLeft
              120A  118A         
  2157                           	line	164
  2158                           	
  2159  01F5                     l10272:	
  2160                           ;Automated Solar Panel Orientation Setter.c: 164: RotateMotorRight(50);
  2161  01F5  3032               	movlw	low(032h)
  2162  01F6  1283               	bcf	status, 5	;RP0=0, select bank0
  2163  01F7  1303               	bcf	status, 6	;RP1=0, select bank0
  2164  01F8  00A5               	movwf	(?_RotateMotorRight)
  2165  01F9  3000               	movlw	high(032h)
  2166  01FA  00A6               	movwf	((?_RotateMotorRight))+1
  2167  01FB  160A  118A  2054   	fcall	_RotateMotorRight
              120A  118A         
  2168                           	line	166
  2169                           ;Automated Solar Panel Orientation Setter.c: 166: break;
  2170  0200  2A10               	goto	l10280
  2171                           	line	169
  2172                           ;Automated Solar Panel Orientation Setter.c: 169: case 92 :
  2173                           	
  2174  0201                     l1007:	
  2175                           	line	170
  2176                           ;Automated Solar Panel Orientation Setter.c: 170: break;
  2177  0201  2A10               	goto	l10280
  2178                           	line	172
  2179                           ;Automated Solar Panel Orientation Setter.c: 172: case 20 :
  2180                           	
  2181  0202                     l1008:	
  2182                           	line	173
  2183                           	
  2184  0202                     l10274:	
  2185                           ;Automated Solar Panel Orientation Setter.c: 173: CheckMode();
  2186  0202  160A  118A  22F9   	fcall	_CheckMode
              120A  118A         
  2187                           	line	174
  2188                           ;Automated Solar Panel Orientation Setter.c: 174: break;
  2189  0207  2A10               	goto	l10280
  2190                           	line	176
  2191                           ;Automated Solar Panel Orientation Setter.c: 176: case 93 :
  2192                           	
  2193  0208                     l1009:	
  2194                           	line	177
  2195                           ;Automated Solar Panel Orientation Setter.c: 177: break;
  2196  0208  2A10               	goto	l10280
  2197                           	line	179
  2198                           ;Automated Solar Panel Orientation Setter.c: 179: case 30 :
  2199                           	
  2200  0209                     l1010:	
  2201                           	line	180
  2202                           	
  2203  0209                     l10276:	
  2204                           ;Automated Solar Panel Orientation Setter.c: 180: CheckMode();
  2205  0209  160A  118A  22F9   	fcall	_CheckMode
              120A  118A         
  2206                           	line	181
  2207                           ;Automated Solar Panel Orientation Setter.c: 181: break;
  2208  020E  2A10               	goto	l10280
  2209                           	line	185
  2210                           	
  2211  020F                     l10278:	
  2212                           ;Automated Solar Panel Orientation Setter.c: 185: }
  2213  020F  2A10               	goto	l10280
  2214                           	line	118
  2215                           	
  2216  0210                     l999:	
  2217                           	
  2218  0210                     l10280:	
  2219  0210  1283               	bcf	status, 5	;RP0=0, select bank0
  2220  0211  1303               	bcf	status, 6	;RP1=0, select bank0
  2221  0212  085F               	movf	(_state),w
  2222                           	; Switch size 1, requested type "space"
  2223                           ; Number of cases is 10, Range of values is 0 to 93
  2224                           ; switch strategies available:
  2225                           ; Name         Instructions Cycles
  2226                           ; simple_byte           31    16 (average)
  2227                           ; jumptable            260     6 (fixed)
  2228                           ; rangetable            98     6 (fixed)
  2229                           ; spacedrange          194     9 (fixed)
  2230                           ; locatedrange          94     3 (fixed)
  2231                           ;	Chosen strategy is simple_byte
  2232                           
  2233                           	opt asmopt_off
  2234  0213  3A00               	xorlw	0^0	; case 0
  2235  0214  1903               	skipnz
  2236  0215  2A10               	goto	l10280
  2237  0216  3A01               	xorlw	1^0	; case 1
  2238  0217  1903               	skipnz
  2239  0218  295B               	goto	l10238
  2240  0219  3A03               	xorlw	2^1	; case 2
  2241  021A  1903               	skipnz
  2242  021B  2964               	goto	l10240
  2243  021C  3A01               	xorlw	3^2	; case 3
  2244  021D  1903               	skipnz
  2245  021E  296D               	goto	l10242
  2246  021F  3A09               	xorlw	10^3	; case 10
  2247  0220  1903               	skipnz
  2248  0221  297F               	goto	l10246
  2249  0222  3A1E               	xorlw	20^10	; case 20
  2250  0223  1903               	skipnz
  2251  0224  2A02               	goto	l10274
  2252  0225  3A0A               	xorlw	30^20	; case 30
  2253  0226  1903               	skipnz
  2254  0227  2A09               	goto	l10276
  2255  0228  3A45               	xorlw	91^30	; case 91
  2256  0229  1903               	skipnz
  2257  022A  2976               	goto	l10244
  2258  022B  3A07               	xorlw	92^91	; case 92
  2259  022C  1903               	skipnz
  2260  022D  2A10               	goto	l10280
  2261  022E  3A01               	xorlw	93^92	; case 93
  2262  022F  1903               	skipnz
  2263  0230  2A10               	goto	l10280
  2264  0231  2A10               	goto	l10280
  2265                           	opt asmopt_on
  2266                           
  2267                           	line	185
  2268                           	
  2269  0232                     l1001:	
  2270  0232  2A10               	goto	l10280
  2271                           	line	186
  2272                           	
  2273  0233                     l1011:	
  2274                           	line	117
  2275  0233  2A10               	goto	l10280
  2276                           	
  2277  0234                     l1012:	
  2278                           	line	187
  2279                           	
  2280  0234                     l1013:	
  2281                           	global	start
  2282  0234  120A  118A  2812   	ljmp	start
  2283                           	opt stack 0
  2284                           GLOBAL	__end_of_main
  2285  0237                     	__end_of_main:
  2286 ;; =============== function _main ends ============
  2287                           
  2288                           	signat	_main,88
  2289                           	global	_LCDTimeUpdate
  2290                           psect	text1487,local,class=CODE,delta=2
  2291                           global __ptext1487
  2292  1192                     __ptext1487:
  2293                           
  2294 ;; *************** function _LCDTimeUpdate *****************
  2295 ;; Defined at:
  2296 ;;		line 594 in file "D:\ELECTRONIC\2016\1. Automated Solar Panel Orientation Setter\Firmware\ver4\Automated Solar Panel
        Orientation Setter.c"
  2297 ;; Parameters:    Size  Location     Type
  2298 ;;		None
  2299 ;; Auto vars:     Size  Location     Type
  2300 ;;		None
  2301 ;; Return value:  Size  Location     Type
  2302 ;;		None               void
  2303 ;; Registers used:
  2304 ;;		wreg, status,2, status,0, pclath, cstack
  2305 ;; Tracked objects:
  2306 ;;		On entry : 0/0
  2307 ;;		On exit  : 0/0
  2308 ;;		Unchanged: 0/0
  2309 ;; Data sizes:     COMMON   BANK0   BANK1   BANK3   BANK2
  2310 ;;      Params:         0       0       0       0       0
  2311 ;;      Locals:         0       0       0       0       0
  2312 ;;      Temps:          0       1       0       0       0
  2313 ;;      Totals:         0       1       0       0       0
  2314 ;;Total ram usage:        1 bytes
  2315 ;; Hardware stack levels used:    1
  2316 ;; Hardware stack levels required when called:    7
  2317 ;; This function calls:
  2318 ;;		___lwdiv
  2319 ;;		_LCD_print_char
  2320 ;;		___lwmod
  2321 ;; This function is called by:
  2322 ;;		_main
  2323 ;; This function uses a non-reentrant model
  2324 ;;
  2325                           psect	text1487
  2326                           	file	"D:\ELECTRONIC\2016\1. Automated Solar Panel Orientation Setter\Firmware\ver4\Auto
                                 mated Solar Panel Orientation Setter.c"
  2327                           	line	594
  2328                           	global	__size_of_LCDTimeUpdate
  2329  0095                     	__size_of_LCDTimeUpdate	equ	__end_of_LCDTimeUpdate-_LCDTimeUpdate
  2330                           	
  2331  1192                     _LCDTimeUpdate:	
  2332                           	opt	stack 0
  2333                           ; Regs used in _LCDTimeUpdate: [wreg+status,2+status,0+pclath+cstack]
  2334                           	line	595
  2335                           	
  2336  1192                     l10184:	
  2337                           ;Automated Solar Panel Orientation Setter.c: 595: LCD_print_char(2,12,hour/10+48);
  2338  1192  3002               	movlw	low(02h)
  2339  1193  1283               	bcf	status, 5	;RP0=0, select bank0
  2340  1194  1303               	bcf	status, 6	;RP1=0, select bank0
  2341  1195  00B3               	movwf	(?_LCD_print_char)
  2342  1196  3000               	movlw	high(02h)
  2343  1197  00B4               	movwf	((?_LCD_print_char))+1
  2344  1198  300C               	movlw	low(0Ch)
  2345  1199  00B5               	movwf	0+(?_LCD_print_char)+02h
  2346  119A  3000               	movlw	high(0Ch)
  2347  119B  00B6               	movwf	(0+(?_LCD_print_char)+02h)+1
  2348  119C  300A               	movlw	low(0Ah)
  2349  119D  00A5               	movwf	(?___lwdiv)
  2350  119E  3000               	movlw	high(0Ah)
  2351  119F  00A6               	movwf	((?___lwdiv))+1
  2352  11A0  0853               	movf	(_hour+1),w
  2353  11A1  01A8               	clrf	1+(?___lwdiv)+02h
  2354  11A2  07A8               	addwf	1+(?___lwdiv)+02h
  2355  11A3  0852               	movf	(_hour),w
  2356  11A4  01A7               	clrf	0+(?___lwdiv)+02h
  2357  11A5  07A7               	addwf	0+(?___lwdiv)+02h
  2358                           
  2359  11A6  160A  118A  2004   	fcall	___lwdiv
              160A  118A         
  2360  11AB  1283               	bcf	status, 5	;RP0=0, select bank0
  2361  11AC  1303               	bcf	status, 6	;RP1=0, select bank0
  2362  11AD  0825               	movf	(0+(?___lwdiv)),w
  2363  11AE  3E30               	addlw	030h
  2364  11AF  00B9               	movwf	(??_LCDTimeUpdate+0)+0
  2365  11B0  0839               	movf	(??_LCDTimeUpdate+0)+0,w
  2366  11B1  00B7               	movwf	0+(?_LCD_print_char)+04h
  2367  11B2  160A  158A  2430   	fcall	_LCD_print_char
              160A  118A         
  2368                           	line	596
  2369                           ;Automated Solar Panel Orientation Setter.c: 596: LCD_print_char(2,13,hour%10+48);
  2370  11B7  3002               	movlw	low(02h)
  2371  11B8  1283               	bcf	status, 5	;RP0=0, select bank0
  2372  11B9  1303               	bcf	status, 6	;RP1=0, select bank0
  2373  11BA  00B3               	movwf	(?_LCD_print_char)
  2374  11BB  3000               	movlw	high(02h)
  2375  11BC  00B4               	movwf	((?_LCD_print_char))+1
  2376  11BD  300D               	movlw	low(0Dh)
  2377  11BE  00B5               	movwf	0+(?_LCD_print_char)+02h
  2378  11BF  3000               	movlw	high(0Dh)
  2379  11C0  00B6               	movwf	(0+(?_LCD_print_char)+02h)+1
  2380  11C1  300A               	movlw	low(0Ah)
  2381  11C2  00AD               	movwf	(?___lwmod)
  2382  11C3  3000               	movlw	high(0Ah)
  2383  11C4  00AE               	movwf	((?___lwmod))+1
  2384  11C5  0853               	movf	(_hour+1),w
  2385  11C6  01B0               	clrf	1+(?___lwmod)+02h
  2386  11C7  07B0               	addwf	1+(?___lwmod)+02h
  2387  11C8  0852               	movf	(_hour),w
  2388  11C9  01AF               	clrf	0+(?___lwmod)+02h
  2389  11CA  07AF               	addwf	0+(?___lwmod)+02h
  2390                           
  2391  11CB  160A  158A  2614   	fcall	___lwmod
              160A  118A         
  2392  11D0  1283               	bcf	status, 5	;RP0=0, select bank0
  2393  11D1  1303               	bcf	status, 6	;RP1=0, select bank0
  2394  11D2  082D               	movf	(0+(?___lwmod)),w
  2395  11D3  3E30               	addlw	030h
  2396  11D4  00B9               	movwf	(??_LCDTimeUpdate+0)+0
  2397  11D5  0839               	movf	(??_LCDTimeUpdate+0)+0,w
  2398  11D6  00B7               	movwf	0+(?_LCD_print_char)+04h
  2399  11D7  160A  158A  2430   	fcall	_LCD_print_char
              160A  118A         
  2400                           	line	597
  2401                           ;Automated Solar Panel Orientation Setter.c: 597: LCD_print_char(2,15,minute/10+48);
  2402  11DC  3002               	movlw	low(02h)
  2403  11DD  1283               	bcf	status, 5	;RP0=0, select bank0
  2404  11DE  1303               	bcf	status, 6	;RP1=0, select bank0
  2405  11DF  00B3               	movwf	(?_LCD_print_char)
  2406  11E0  3000               	movlw	high(02h)
  2407  11E1  00B4               	movwf	((?_LCD_print_char))+1
  2408  11E2  300F               	movlw	low(0Fh)
  2409  11E3  00B5               	movwf	0+(?_LCD_print_char)+02h
  2410  11E4  3000               	movlw	high(0Fh)
  2411  11E5  00B6               	movwf	(0+(?_LCD_print_char)+02h)+1
  2412  11E6  300A               	movlw	low(0Ah)
  2413  11E7  00A5               	movwf	(?___lwdiv)
  2414  11E8  3000               	movlw	high(0Ah)
  2415  11E9  00A6               	movwf	((?___lwdiv))+1
  2416  11EA  0859               	movf	(_minute+1),w
  2417  11EB  01A8               	clrf	1+(?___lwdiv)+02h
  2418  11EC  07A8               	addwf	1+(?___lwdiv)+02h
  2419  11ED  0858               	movf	(_minute),w
  2420  11EE  01A7               	clrf	0+(?___lwdiv)+02h
  2421  11EF  07A7               	addwf	0+(?___lwdiv)+02h
  2422                           
  2423  11F0  160A  118A  2004   	fcall	___lwdiv
              160A  118A         
  2424  11F5  1283               	bcf	status, 5	;RP0=0, select bank0
  2425  11F6  1303               	bcf	status, 6	;RP1=0, select bank0
  2426  11F7  0825               	movf	(0+(?___lwdiv)),w
  2427  11F8  3E30               	addlw	030h
  2428  11F9  00B9               	movwf	(??_LCDTimeUpdate+0)+0
  2429  11FA  0839               	movf	(??_LCDTimeUpdate+0)+0,w
  2430  11FB  00B7               	movwf	0+(?_LCD_print_char)+04h
  2431  11FC  160A  158A  2430   	fcall	_LCD_print_char
              160A  118A         
  2432                           	line	598
  2433                           ;Automated Solar Panel Orientation Setter.c: 598: LCD_print_char(2,16,minute%10+48);
  2434  1201  3002               	movlw	low(02h)
  2435  1202  1283               	bcf	status, 5	;RP0=0, select bank0
  2436  1203  1303               	bcf	status, 6	;RP1=0, select bank0
  2437  1204  00B3               	movwf	(?_LCD_print_char)
  2438  1205  3000               	movlw	high(02h)
  2439  1206  00B4               	movwf	((?_LCD_print_char))+1
  2440  1207  3010               	movlw	low(010h)
  2441  1208  00B5               	movwf	0+(?_LCD_print_char)+02h
  2442  1209  3000               	movlw	high(010h)
  2443  120A  00B6               	movwf	(0+(?_LCD_print_char)+02h)+1
  2444  120B  300A               	movlw	low(0Ah)
  2445  120C  00AD               	movwf	(?___lwmod)
  2446  120D  3000               	movlw	high(0Ah)
  2447  120E  00AE               	movwf	((?___lwmod))+1
  2448  120F  0859               	movf	(_minute+1),w
  2449  1210  01B0               	clrf	1+(?___lwmod)+02h
  2450  1211  07B0               	addwf	1+(?___lwmod)+02h
  2451  1212  0858               	movf	(_minute),w
  2452  1213  01AF               	clrf	0+(?___lwmod)+02h
  2453  1214  07AF               	addwf	0+(?___lwmod)+02h
  2454                           
  2455  1215  160A  158A  2614   	fcall	___lwmod
              160A  118A         
  2456  121A  1283               	bcf	status, 5	;RP0=0, select bank0
  2457  121B  1303               	bcf	status, 6	;RP1=0, select bank0
  2458  121C  082D               	movf	(0+(?___lwmod)),w
  2459  121D  3E30               	addlw	030h
  2460  121E  00B9               	movwf	(??_LCDTimeUpdate+0)+0
  2461  121F  0839               	movf	(??_LCDTimeUpdate+0)+0,w
  2462  1220  00B7               	movwf	0+(?_LCD_print_char)+04h
  2463  1221  160A  158A  2430   	fcall	_LCD_print_char
              160A  118A         
  2464                           	line	599
  2465                           	
  2466  1226                     l1196:	
  2467  1226  0008               	return
  2468                           	opt stack 0
  2469                           GLOBAL	__end_of_LCDTimeUpdate
  2470  1227                     	__end_of_LCDTimeUpdate:
  2471 ;; =============== function _LCDTimeUpdate ends ============
  2472                           
  2473                           	signat	_LCDTimeUpdate,88
  2474                           	global	_CheckMode
  2475                           psect	text1488,local,class=CODE,delta=2
  2476                           global __ptext1488
  2477  12F9                     __ptext1488:
  2478                           
  2479 ;; *************** function _CheckMode *****************
  2480 ;; Defined at:
  2481 ;;		line 189 in file "D:\ELECTRONIC\2016\1. Automated Solar Panel Orientation Setter\Firmware\ver4\Automated Solar Panel
        Orientation Setter.c"
  2482 ;; Parameters:    Size  Location     Type
  2483 ;;		None
  2484 ;; Auto vars:     Size  Location     Type
  2485 ;;  pressedKey      1   19[BANK0 ] unsigned char 
  2486 ;; Return value:  Size  Location     Type
  2487 ;;		None               void
  2488 ;; Registers used:
  2489 ;;		wreg, fsr0l, fsr0h, status,2, status,0, btemp+1, pclath, cstack
  2490 ;; Tracked objects:
  2491 ;;		On entry : 0/0
  2492 ;;		On exit  : 0/0
  2493 ;;		Unchanged: 0/0
  2494 ;; Data sizes:     COMMON   BANK0   BANK1   BANK3   BANK2
  2495 ;;      Params:         0       0       0       0       0
  2496 ;;      Locals:         0       1       0       0       0
  2497 ;;      Temps:          0       2       0       0       0
  2498 ;;      Totals:         0       3       0       0       0
  2499 ;;Total ram usage:        3 bytes
  2500 ;; Hardware stack levels used:    1
  2501 ;; Hardware stack levels required when called:    6
  2502 ;; This function calls:
  2503 ;;		_CheckKeyPad
  2504 ;;		_Serial_Print
  2505 ;;		_Serial_Println_Int
  2506 ;;		_nop
  2507 ;; This function is called by:
  2508 ;;		_main
  2509 ;; This function uses a non-reentrant model
  2510 ;;
  2511                           psect	text1488
  2512                           	file	"D:\ELECTRONIC\2016\1. Automated Solar Panel Orientation Setter\Firmware\ver4\Auto
                                 mated Solar Panel Orientation Setter.c"
  2513                           	line	189
  2514                           	global	__size_of_CheckMode
  2515  00F5                     	__size_of_CheckMode	equ	__end_of_CheckMode-_CheckMode
  2516                           	
  2517  12F9                     _CheckMode:	
  2518                           	opt	stack 1
  2519                           ; Regs used in _CheckMode: [wreg-fsr0h+status,2+status,0+btemp+1+pclath+cstack]
  2520                           	line	191
  2521                           	
  2522  12F9                     l10096:	
  2523                           ;Automated Solar Panel Orientation Setter.c: 190: char pressedKey;
  2524                           ;Automated Solar Panel Orientation Setter.c: 191: pressedKey = CheckKeyPad();
  2525  12F9  120A  158A  20EA   	fcall	_CheckKeyPad
              160A  118A         
  2526  12FE  1283               	bcf	status, 5	;RP0=0, select bank0
  2527  12FF  1303               	bcf	status, 6	;RP1=0, select bank0
  2528  1300  00B1               	movwf	(??_CheckMode+0)+0
  2529  1301  0831               	movf	(??_CheckMode+0)+0,w
  2530  1302  00B3               	movwf	(CheckMode@pressedKey)
  2531                           	line	193
  2532                           	
  2533  1303                     l10098:	
  2534                           ;Automated Solar Panel Orientation Setter.c: 193: if( pressedKey=='*' ){
  2535  1303  0833               	movf	(CheckMode@pressedKey),w
  2536  1304  3A2A               	xorlw	02Ah
  2537  1305  1D03               	skipz
  2538  1306  2B08               	goto	u12321
  2539  1307  2B09               	goto	u12320
  2540  1308                     u12321:
  2541  1308  2BED               	goto	l1018
  2542  1309                     u12320:
  2543                           	line	194
  2544                           	
  2545  1309                     l10100:	
  2546                           ;Automated Solar Panel Orientation Setter.c: 194: currentMode++;
  2547  1309  3001               	movlw	low(01h)
  2548  130A  07D0               	addwf	(_currentMode),f
  2549  130B  1803               	skipnc
  2550  130C  0AD1               	incf	(_currentMode+1),f
  2551  130D  3000               	movlw	high(01h)
  2552  130E  07D1               	addwf	(_currentMode+1),f
  2553                           	line	195
  2554                           ;Automated Solar Panel Orientation Setter.c: 195: if (currentMode>3) currentMode = 1;
  2555  130F  3000               	movlw	high(04h)
  2556  1310  0251               	subwf	(_currentMode+1),w
  2557  1311  3004               	movlw	low(04h)
  2558  1312  1903               	skipnz
  2559  1313  0250               	subwf	(_currentMode),w
  2560  1314  1C03               	skipc
  2561  1315  2B17               	goto	u12331
  2562  1316  2B18               	goto	u12330
  2563  1317                     u12331:
  2564  1317  2B1C               	goto	l1017
  2565  1318                     u12330:
  2566                           	
  2567  1318                     l10102:	
  2568  1318  3001               	movlw	low(01h)
  2569  1319  00D0               	movwf	(_currentMode)
  2570  131A  3000               	movlw	high(01h)
  2571  131B  00D1               	movwf	((_currentMode))+1
  2572                           	
  2573  131C                     l1017:	
  2574                           	line	196
  2575                           ;Automated Solar Panel Orientation Setter.c: 196: state = currentMode;
  2576  131C  0850               	movf	(_currentMode),w
  2577  131D  00B1               	movwf	(??_CheckMode+0)+0
  2578  131E  0831               	movf	(??_CheckMode+0)+0,w
  2579  131F  00DF               	movwf	(_state)
  2580                           	line	198
  2581                           	
  2582  1320                     l10104:	
  2583                           ;Automated Solar Panel Orientation Setter.c: 198: RC1 = 1;
  2584  1320  1487               	bsf	(57/8),(57)&7
  2585                           	line	199
  2586                           	
  2587  1321                     l10106:	
  2588                           ;Automated Solar Panel Orientation Setter.c: 199: Serial_Print("Switched to Mode : ");
  2589  1321  301F               	movlw	((STR_13-__stringbase))&0ffh
  2590  1322  160A  158A  2482   	fcall	_Serial_Print
              160A  118A         
  2591                           	line	200
  2592                           	
  2593  1327                     l10108:	
  2594                           ;Automated Solar Panel Orientation Setter.c: 200: Serial_Println_Int((int)state);
  2595  1327  1283               	bcf	status, 5	;RP0=0, select bank0
  2596  1328  1303               	bcf	status, 6	;RP1=0, select bank0
  2597  1329  085F               	movf	(_state),w
  2598  132A  00B1               	movwf	(??_CheckMode+0)+0
  2599  132B  01B2               	clrf	(??_CheckMode+0)+0+1
  2600  132C  0831               	movf	0+(??_CheckMode+0)+0,w
  2601  132D  00AE               	movwf	(?_Serial_Println_Int)
  2602  132E  0832               	movf	1+(??_CheckMode+0)+0,w
  2603  132F  00AF               	movwf	(?_Serial_Println_Int+1)
  2604  1330  120A  158A  2545   	fcall	_Serial_Println_Int
              160A  118A         
  2605                           	line	201
  2606                           	
  2607  1335                     l10110:	
  2608                           ;Automated Solar Panel Orientation Setter.c: 201: RC1 = 0;
  2609  1335  1283               	bcf	status, 5	;RP0=0, select bank0
  2610  1336  1303               	bcf	status, 6	;RP1=0, select bank0
  2611  1337  1087               	bcf	(57/8),(57)&7
  2612                           	line	203
  2613                           	
  2614  1338                     l10112:	
  2615                           ;Automated Solar Panel Orientation Setter.c: 203: ; nop();nop();nop();nop();nop();nop();
                                 nop();nop();nop();nop();nop();nop();nop();nop();nop();nop();nop();nop();nop();nop();nop(
                                 );nop();nop();nop();nop();nop();nop();nop();nop();nop();nop();nop();nop();nop();nop();no
                                 p();;
  2616  1338  160A  158A  22D5   	fcall	_nop
              160A  118A         
  2617                           	
  2618  133D                     l10114:	
  2619  133D  160A  158A  22D5   	fcall	_nop
              160A  118A         
  2620                           	
  2621  1342                     l10116:	
  2622  1342  160A  158A  22D5   	fcall	_nop
              160A  118A         
  2623                           	
  2624  1347                     l10118:	
  2625  1347  160A  158A  22D5   	fcall	_nop
              160A  118A         
  2626                           	
  2627  134C                     l10120:	
  2628  134C  160A  158A  22D5   	fcall	_nop
              160A  118A         
  2629                           	
  2630  1351                     l10122:	
  2631  1351  160A  158A  22D5   	fcall	_nop
              160A  118A         
  2632                           	
  2633  1356                     l10124:	
  2634  1356  160A  158A  22D5   	fcall	_nop
              160A  118A         
  2635                           	
  2636  135B                     l10126:	
  2637  135B  160A  158A  22D5   	fcall	_nop
              160A  118A         
  2638                           	
  2639  1360                     l10128:	
  2640  1360  160A  158A  22D5   	fcall	_nop
              160A  118A         
  2641                           	
  2642  1365                     l10130:	
  2643  1365  160A  158A  22D5   	fcall	_nop
              160A  118A         
  2644                           	
  2645  136A                     l10132:	
  2646  136A  160A  158A  22D5   	fcall	_nop
              160A  118A         
  2647                           	
  2648  136F                     l10134:	
  2649  136F  160A  158A  22D5   	fcall	_nop
              160A  118A         
  2650                           	
  2651  1374                     l10136:	
  2652  1374  160A  158A  22D5   	fcall	_nop
              160A  118A         
  2653                           	
  2654  1379                     l10138:	
  2655  1379  160A  158A  22D5   	fcall	_nop
              160A  118A         
  2656                           	
  2657  137E                     l10140:	
  2658  137E  160A  158A  22D5   	fcall	_nop
              160A  118A         
  2659                           	
  2660  1383                     l10142:	
  2661  1383  160A  158A  22D5   	fcall	_nop
              160A  118A         
  2662                           	
  2663  1388                     l10144:	
  2664  1388  160A  158A  22D5   	fcall	_nop
              160A  118A         
  2665                           	
  2666  138D                     l10146:	
  2667  138D  160A  158A  22D5   	fcall	_nop
              160A  118A         
  2668                           	
  2669  1392                     l10148:	
  2670  1392  160A  158A  22D5   	fcall	_nop
              160A  118A         
  2671                           	
  2672  1397                     l10150:	
  2673  1397  160A  158A  22D5   	fcall	_nop
              160A  118A         
  2674                           	
  2675  139C                     l10152:	
  2676  139C  160A  158A  22D5   	fcall	_nop
              160A  118A         
  2677                           	
  2678  13A1                     l10154:	
  2679  13A1  160A  158A  22D5   	fcall	_nop
              160A  118A         
  2680                           	
  2681  13A6                     l10156:	
  2682  13A6  160A  158A  22D5   	fcall	_nop
              160A  118A         
  2683                           	
  2684  13AB                     l10158:	
  2685  13AB  160A  158A  22D5   	fcall	_nop
              160A  118A         
  2686                           	
  2687  13B0                     l10160:	
  2688  13B0  160A  158A  22D5   	fcall	_nop
              160A  118A         
  2689                           	
  2690  13B5                     l10162:	
  2691  13B5  160A  158A  22D5   	fcall	_nop
              160A  118A         
  2692                           	
  2693  13BA                     l10164:	
  2694  13BA  160A  158A  22D5   	fcall	_nop
              160A  118A         
  2695                           	
  2696  13BF                     l10166:	
  2697  13BF  160A  158A  22D5   	fcall	_nop
              160A  118A         
  2698                           	
  2699  13C4                     l10168:	
  2700  13C4  160A  158A  22D5   	fcall	_nop
              160A  118A         
  2701                           	
  2702  13C9                     l10170:	
  2703  13C9  160A  158A  22D5   	fcall	_nop
              160A  118A         
  2704                           	
  2705  13CE                     l10172:	
  2706  13CE  160A  158A  22D5   	fcall	_nop
              160A  118A         
  2707                           	
  2708  13D3                     l10174:	
  2709  13D3  160A  158A  22D5   	fcall	_nop
              160A  118A         
  2710                           	
  2711  13D8                     l10176:	
  2712  13D8  160A  158A  22D5   	fcall	_nop
              160A  118A         
  2713                           	
  2714  13DD                     l10178:	
  2715  13DD  160A  158A  22D5   	fcall	_nop
              160A  118A         
  2716                           	
  2717  13E2                     l10180:	
  2718  13E2  160A  158A  22D5   	fcall	_nop
              160A  118A         
  2719                           	
  2720  13E7                     l10182:	
  2721  13E7  160A  158A  22D5   	fcall	_nop
              160A  118A         
  2722  13EC  2BED               	goto	l1018
  2723                           	line	204
  2724                           	
  2725  13ED                     l1016:	
  2726                           	line	205
  2727                           	
  2728  13ED                     l1018:	
  2729  13ED  0008               	return
  2730                           	opt stack 0
  2731                           GLOBAL	__end_of_CheckMode
  2732  13EE                     	__end_of_CheckMode:
  2733 ;; =============== function _CheckMode ends ============
  2734                           
  2735                           	signat	_CheckMode,88
  2736                           	global	_printf
  2737                           psect	text1489,local,class=CODE,delta=2
  2738                           global __ptext1489
  2739  0237                     __ptext1489:
  2740                           
  2741 ;; *************** function _printf *****************
  2742 ;; Defined at:
  2743 ;;		line 461 in file "C:\Program Files (x86)\HI-TECH Software\PICC\9.83\lib\doprnt.c"
  2744 ;; Parameters:    Size  Location     Type
  2745 ;;  f               1    wreg     PTR const unsigned char 
  2746 ;;		 -> STR_8(17), STR_7(17), STR_6(17), STR_5(17), 
  2747 ;;		 -> STR_4(18), STR_3(18), STR_2(18), STR_1(18), 
  2748 ;; Auto vars:     Size  Location     Type
  2749 ;;  f               1   30[BANK0 ] PTR const unsigned char 
  2750 ;;		 -> STR_8(17), STR_7(17), STR_6(17), STR_5(17), 
  2751 ;;		 -> STR_4(18), STR_3(18), STR_2(18), STR_1(18), 
  2752 ;;  _val            3   34[BANK0 ] struct .
  2753 ;;  flag            2   38[BANK0 ] unsigned short 
  2754 ;;  width           2   32[BANK0 ] int 
  2755 ;;  c               1   37[BANK0 ] char 
  2756 ;;  prec            1   31[BANK0 ] char 
  2757 ;;  ap              1   29[BANK0 ] PTR void [1]
  2758 ;;		 -> ?_printf(2), 
  2759 ;; Return value:  Size  Location     Type
  2760 ;;                  2   19[BANK0 ] int 
  2761 ;; Registers used:
  2762 ;;		wreg, fsr0l, fsr0h, status,2, status,0, btemp+1, pclath, cstack
  2763 ;; Tracked objects:
  2764 ;;		On entry : 0/0
  2765 ;;		On exit  : 0/0
  2766 ;;		Unchanged: 0/0
  2767 ;; Data sizes:     COMMON   BANK0   BANK1   BANK3   BANK2
  2768 ;;      Params:         0       2       0       0       0
  2769 ;;      Locals:         0      16       0       0       0
  2770 ;;      Temps:          0       3       0       0       0
  2771 ;;      Totals:         0      21       0       0       0
  2772 ;;Total ram usage:       21 bytes
  2773 ;; Hardware stack levels used:    1
  2774 ;; Hardware stack levels required when called:    6
  2775 ;; This function calls:
  2776 ;;		_putch
  2777 ;;		_isdigit
  2778 ;;		___wmul
  2779 ;;		___bmul
  2780 ;;		___lwdiv
  2781 ;;		___lwmod
  2782 ;; This function is called by:
  2783 ;;		_main
  2784 ;; This function uses a non-reentrant model
  2785 ;;
  2786                           psect	text1489
  2787                           	file	"C:\Program Files (x86)\HI-TECH Software\PICC\9.83\sources\doprnt.c"
  2788                           	line	461
  2789                           	global	__size_of_printf
  2790  05C9                     	__size_of_printf	equ	__end_of_printf-_printf
  2791                           	
  2792  0237                     _printf:	
  2793                           	opt	stack 1
  2794                           ; Regs used in _printf: [wreg-fsr0h+status,2+status,0+btemp+1+pclath+cstack]
  2795                           ;printf@f stored from wreg
  2796                           	line	537
  2797  0237  1283               	bcf	status, 5	;RP0=0, select bank0
  2798  0238  1303               	bcf	status, 6	;RP1=0, select bank0
  2799  0239  00BE               	movwf	(printf@f)
  2800                           	
  2801  023A                     l9800:	
  2802  023A  3033               	movlw	(?_printf)&0ffh
  2803  023B  00B5               	movwf	(??_printf+0)+0
  2804  023C  0835               	movf	(??_printf+0)+0,w
  2805  023D  00BD               	movwf	(printf@ap)
  2806                           	line	540
  2807  023E  2FE9               	goto	l10094
  2808                           	
  2809  023F                     l1214:	
  2810                           	line	542
  2811                           	
  2812  023F                     l9802:	
  2813  023F  0845               	movf	(printf@c),w
  2814  0240  3A25               	xorlw	025h
  2815  0241  1903               	skipnz
  2816  0242  2A44               	goto	u11711
  2817  0243  2A45               	goto	u11710
  2818  0244                     u11711:
  2819  0244  2A4C               	goto	l9806
  2820  0245                     u11710:
  2821                           	line	545
  2822                           	
  2823  0245                     l9804:	
  2824  0245  0845               	movf	(printf@c),w
  2825  0246  120A  118A  2018   	fcall	_putch
              120A  118A         
  2826                           	line	546
  2827  024B  2FE9               	goto	l10094
  2828                           	line	547
  2829                           	
  2830  024C                     l1215:	
  2831                           	line	550
  2832                           	
  2833  024C                     l9806:	
  2834  024C  1283               	bcf	status, 5	;RP0=0, select bank0
  2835  024D  1303               	bcf	status, 6	;RP1=0, select bank0
  2836  024E  01C0               	clrf	(printf@width)
  2837  024F  01C1               	clrf	(printf@width+1)
  2838                           	line	552
  2839  0250  01C6               	clrf	(printf@flag)
  2840  0251  01C7               	clrf	(printf@flag+1)
  2841  0252  2A6D               	goto	l9818
  2842                           	line	554
  2843                           	
  2844  0253                     l1216:	
  2845                           	line	555
  2846  0253  2A6D               	goto	l9818
  2847                           	line	557
  2848                           	
  2849  0254                     l1218:	
  2850                           	line	558
  2851  0254  15C6               	bsf	(printf@flag)+(3/8),(3)&7
  2852                           	line	559
  2853                           	
  2854  0255                     l9808:	
  2855  0255  3001               	movlw	(01h)
  2856  0256  00B5               	movwf	(??_printf+0)+0
  2857  0257  0835               	movf	(??_printf+0)+0,w
  2858  0258  07BE               	addwf	(printf@f),f
  2859                           	line	560
  2860  0259  2A6D               	goto	l9818
  2861                           	line	564
  2862                           	
  2863  025A                     l1220:	
  2864                           	line	565
  2865  025A  1446               	bsf	(printf@flag)+(0/8),(0)&7
  2866                           	line	566
  2867                           	
  2868  025B                     l9810:	
  2869  025B  3001               	movlw	(01h)
  2870  025C  00B5               	movwf	(??_printf+0)+0
  2871  025D  0835               	movf	(??_printf+0)+0,w
  2872  025E  07BE               	addwf	(printf@f),f
  2873                           	line	567
  2874  025F  2A6D               	goto	l9818
  2875                           	line	577
  2876                           	
  2877  0260                     l1221:	
  2878                           	line	578
  2879  0260  15C7               	bsf	(printf@flag)+(11/8),(11)&7
  2880                           	line	579
  2881                           	
  2882  0261                     l9812:	
  2883  0261  3001               	movlw	(01h)
  2884  0262  00B5               	movwf	(??_printf+0)+0
  2885  0263  0835               	movf	(??_printf+0)+0,w
  2886  0264  07BE               	addwf	(printf@f),f
  2887                           	line	580
  2888  0265  2A6D               	goto	l9818
  2889                           	line	583
  2890                           	
  2891  0266                     l1222:	
  2892                           	line	584
  2893  0266  1546               	bsf	(printf@flag)+(2/8),(2)&7
  2894                           	line	585
  2895                           	
  2896  0267                     l9814:	
  2897  0267  3001               	movlw	(01h)
  2898  0268  00B5               	movwf	(??_printf+0)+0
  2899  0269  0835               	movf	(??_printf+0)+0,w
  2900  026A  07BE               	addwf	(printf@f),f
  2901                           	line	586
  2902  026B  2A6D               	goto	l9818
  2903                           	line	588
  2904                           	
  2905  026C                     l9816:	
  2906  026C  2A83               	goto	l1224
  2907                           	line	555
  2908                           	
  2909  026D                     l1217:	
  2910                           	
  2911  026D                     l9818:	
  2912  026D  083E               	movf	(printf@f),w
  2913  026E  0084               	movwf	fsr0
  2914  026F  120A  158A  2000   	fcall	stringdir
              120A  118A         
  2915                           	; Switch size 1, requested type "space"
  2916                           ; Number of cases is 4, Range of values is 32 to 48
  2917                           ; switch strategies available:
  2918                           ; Name         Instructions Cycles
  2919                           ; simple_byte           13     7 (average)
  2920                           ; direct_byte           62    11 (fixed)
  2921                           ; jumptable            263     9 (fixed)
  2922                           ;	Chosen strategy is simple_byte
  2923                           
  2924                           	opt asmopt_off
  2925  0274  3A20               	xorlw	32^0	; case 32
  2926  0275  1903               	skipnz
  2927  0276  2A5A               	goto	l1220
  2928  0277  3A03               	xorlw	35^32	; case 35
  2929  0278  1903               	skipnz
  2930  0279  2A60               	goto	l1221
  2931  027A  3A0E               	xorlw	45^35	; case 45
  2932  027B  1903               	skipnz
  2933  027C  2A54               	goto	l1218
  2934  027D  3A1D               	xorlw	48^45	; case 48
  2935  027E  1903               	skipnz
  2936  027F  2A66               	goto	l1222
  2937  0280  2A83               	goto	l1224
  2938                           	opt asmopt_on
  2939                           
  2940                           	line	588
  2941                           	
  2942  0281                     l1223:	
  2943                           	line	589
  2944  0281  2A83               	goto	l1224
  2945                           	line	590
  2946                           	
  2947  0282                     l1219:	
  2948  0282  2A6D               	goto	l9818
  2949                           	
  2950  0283                     l1224:	
  2951                           	line	597
  2952  0283  1DC6               	btfss	(printf@flag),(3)&7
  2953  0284  2A86               	goto	u11721
  2954  0285  2A87               	goto	u11720
  2955  0286                     u11721:
  2956  0286  2A8C               	goto	l9822
  2957  0287                     u11720:
  2958                           	line	598
  2959                           	
  2960  0287                     l9820:	
  2961  0287  30FB               	movlw	low(0FFFBh)
  2962  0288  05C6               	andwf	(printf@flag),f
  2963  0289  30FF               	movlw	high(0FFFBh)
  2964  028A  05C7               	andwf	(printf@flag+1),f
  2965  028B  2A8C               	goto	l9822
  2966                           	
  2967  028C                     l1225:	
  2968                           	line	601
  2969                           	
  2970  028C                     l9822:	
  2971  028C  083E               	movf	(printf@f),w
  2972  028D  0084               	movwf	fsr0
  2973  028E  120A  158A  2000   	fcall	stringdir
              120A  118A         
  2974  0293  160A  158A  230D   	fcall	_isdigit
              120A  118A         
  2975  0298  1C03               	btfss	status,0
  2976  0299  2A9B               	goto	u11731
  2977  029A  2A9C               	goto	u11730
  2978  029B                     u11731:
  2979  029B  2AE0               	goto	l9832
  2980  029C                     u11730:
  2981                           	line	602
  2982                           	
  2983  029C                     l9824:	
  2984  029C  1283               	bcf	status, 5	;RP0=0, select bank0
  2985  029D  1303               	bcf	status, 6	;RP1=0, select bank0
  2986  029E  01C0               	clrf	(printf@width)
  2987  029F  01C1               	clrf	(printf@width+1)
  2988  02A0  2AA1               	goto	l9826
  2989                           	line	603
  2990                           	
  2991  02A1                     l1227:	
  2992                           	line	604
  2993                           	
  2994  02A1                     l9826:	
  2995  02A1  1283               	bcf	status, 5	;RP0=0, select bank0
  2996  02A2  1303               	bcf	status, 6	;RP1=0, select bank0
  2997  02A3  0841               	movf	(printf@width+1),w
  2998  02A4  01A6               	clrf	(?___wmul+1)
  2999  02A5  07A6               	addwf	(?___wmul+1)
  3000  02A6  0840               	movf	(printf@width),w
  3001  02A7  01A5               	clrf	(?___wmul)
  3002  02A8  07A5               	addwf	(?___wmul)
  3003                           
  3004  02A9  300A               	movlw	low(0Ah)
  3005  02AA  00A7               	movwf	0+(?___wmul)+02h
  3006  02AB  3000               	movlw	high(0Ah)
  3007  02AC  00A8               	movwf	(0+(?___wmul)+02h)+1
  3008  02AD  160A  158A  2456   	fcall	___wmul
              120A  118A         
  3009  02B2  1283               	bcf	status, 5	;RP0=0, select bank0
  3010  02B3  1303               	bcf	status, 6	;RP1=0, select bank0
  3011  02B4  083E               	movf	(printf@f),w
  3012  02B5  0084               	movwf	fsr0
  3013  02B6  120A  158A  2000   	fcall	stringdir
              120A  118A         
  3014  02BB  0725               	addwf	(0+(?___wmul)),w
  3015  02BC  00B5               	movwf	(??_printf+0)+0
  3016  02BD  3000               	movlw	0
  3017  02BE  1803               	skipnc
  3018  02BF  3001               	movlw	1
  3019  02C0  0726               	addwf	(1+(?___wmul)),w
  3020  02C1  00B6               	movwf	1+(??_printf+0)+0
  3021  02C2  0835               	movf	0+(??_printf+0)+0,w
  3022  02C3  3ED0               	addlw	low(0FFD0h)
  3023  02C4  00C0               	movwf	(printf@width)
  3024  02C5  0836               	movf	1+(??_printf+0)+0,w
  3025  02C6  1803               	skipnc
  3026  02C7  3E01               	addlw	1
  3027  02C8  3EFF               	addlw	high(0FFD0h)
  3028  02C9  00C1               	movwf	1+(printf@width)
  3029                           	
  3030  02CA                     l9828:	
  3031  02CA  3001               	movlw	(01h)
  3032  02CB  00B5               	movwf	(??_printf+0)+0
  3033  02CC  0835               	movf	(??_printf+0)+0,w
  3034  02CD  07BE               	addwf	(printf@f),f
  3035                           	line	605
  3036                           	
  3037  02CE                     l9830:	
  3038  02CE  083E               	movf	(printf@f),w
  3039  02CF  0084               	movwf	fsr0
  3040  02D0  120A  158A  2000   	fcall	stringdir
              120A  118A         
  3041  02D5  160A  158A  230D   	fcall	_isdigit
              120A  118A         
  3042  02DA  1803               	btfsc	status,0
  3043  02DB  2ADD               	goto	u11741
  3044  02DC  2ADE               	goto	u11740
  3045  02DD                     u11741:
  3046  02DD  2AA1               	goto	l9826
  3047  02DE                     u11740:
  3048  02DE  2B00               	goto	l9840
  3049                           	
  3050  02DF                     l1228:	
  3051                           	line	607
  3052  02DF  2B00               	goto	l9840
  3053                           	
  3054  02E0                     l1226:	
  3055                           	
  3056  02E0                     l9832:	
  3057  02E0  1283               	bcf	status, 5	;RP0=0, select bank0
  3058  02E1  1303               	bcf	status, 6	;RP1=0, select bank0
  3059  02E2  083E               	movf	(printf@f),w
  3060  02E3  0084               	movwf	fsr0
  3061  02E4  120A  158A  2000   	fcall	stringdir
              120A  118A         
  3062  02E9  3A2A               	xorlw	02Ah
  3063  02EA  1D03               	skipz
  3064  02EB  2AED               	goto	u11751
  3065  02EC  2AEE               	goto	u11750
  3066  02ED                     u11751:
  3067  02ED  2B00               	goto	l9840
  3068  02EE                     u11750:
  3069                           	line	608
  3070                           	
  3071  02EE                     l9834:	
  3072  02EE  083D               	movf	(printf@ap),w
  3073  02EF  0084               	movwf	fsr0
  3074  02F0  1383               	bcf	status, 7	;select IRP bank0
  3075  02F1  0800               	movf	indf,w
  3076  02F2  00C0               	movwf	(printf@width)
  3077  02F3  0A84               	incf	fsr0,f
  3078  02F4  0800               	movf	indf,w
  3079  02F5  00C1               	movwf	(printf@width+1)
  3080                           	
  3081  02F6                     l9836:	
  3082  02F6  3002               	movlw	(02h)
  3083  02F7  00B5               	movwf	(??_printf+0)+0
  3084  02F8  0835               	movf	(??_printf+0)+0,w
  3085  02F9  07BD               	addwf	(printf@ap),f
  3086                           	line	609
  3087                           	
  3088  02FA                     l9838:	
  3089  02FA  3001               	movlw	(01h)
  3090  02FB  00B5               	movwf	(??_printf+0)+0
  3091  02FC  0835               	movf	(??_printf+0)+0,w
  3092  02FD  07BE               	addwf	(printf@f),f
  3093  02FE  2B00               	goto	l9840
  3094                           	line	611
  3095                           	
  3096  02FF                     l1230:	
  3097  02FF  2B00               	goto	l9840
  3098                           	line	614
  3099                           	
  3100  0300                     l1229:	
  3101                           	
  3102  0300                     l9840:	
  3103  0300  1283               	bcf	status, 5	;RP0=0, select bank0
  3104  0301  1303               	bcf	status, 6	;RP1=0, select bank0
  3105  0302  083E               	movf	(printf@f),w
  3106  0303  0084               	movwf	fsr0
  3107  0304  120A  158A  2000   	fcall	stringdir
              120A  118A         
  3108  0309  3A2E               	xorlw	02Eh
  3109  030A  1D03               	skipz
  3110  030B  2B0D               	goto	u11761
  3111  030C  2B0E               	goto	u11760
  3112  030D                     u11761:
  3113  030D  2B64               	goto	l1231
  3114  030E                     u11760:
  3115                           	line	615
  3116                           	
  3117  030E                     l9842:	
  3118  030E  1747               	bsf	(printf@flag)+(14/8),(14)&7
  3119                           	line	616
  3120                           	
  3121  030F                     l9844:	
  3122  030F  3001               	movlw	(01h)
  3123  0310  00B5               	movwf	(??_printf+0)+0
  3124  0311  0835               	movf	(??_printf+0)+0,w
  3125  0312  07BE               	addwf	(printf@f),f
  3126                           	line	618
  3127                           	
  3128  0313                     l9846:	
  3129  0313  083E               	movf	(printf@f),w
  3130  0314  0084               	movwf	fsr0
  3131  0315  120A  158A  2000   	fcall	stringdir
              120A  118A         
  3132  031A  3A2A               	xorlw	02Ah
  3133  031B  1D03               	skipz
  3134  031C  2B1E               	goto	u11771
  3135  031D  2B1F               	goto	u11770
  3136  031E                     u11771:
  3137  031E  2B2F               	goto	l1232
  3138  031F                     u11770:
  3139                           	line	619
  3140                           	
  3141  031F                     l9848:	
  3142  031F  083D               	movf	(printf@ap),w
  3143  0320  0084               	movwf	fsr0
  3144  0321  1383               	bcf	status, 7	;select IRP bank0
  3145  0322  0800               	movf	indf,w
  3146  0323  00B5               	movwf	(??_printf+0)+0
  3147  0324  0835               	movf	(??_printf+0)+0,w
  3148  0325  00BF               	movwf	(printf@prec)
  3149                           	
  3150  0326                     l9850:	
  3151  0326  3002               	movlw	(02h)
  3152  0327  00B5               	movwf	(??_printf+0)+0
  3153  0328  0835               	movf	(??_printf+0)+0,w
  3154  0329  07BD               	addwf	(printf@ap),f
  3155                           	line	620
  3156                           	
  3157  032A                     l9852:	
  3158  032A  3001               	movlw	(01h)
  3159  032B  00B5               	movwf	(??_printf+0)+0
  3160  032C  0835               	movf	(??_printf+0)+0,w
  3161  032D  07BE               	addwf	(printf@f),f
  3162                           	line	621
  3163  032E  2C1B               	goto	l9904
  3164                           	
  3165  032F                     l1232:	
  3166                           	line	624
  3167  032F  01BF               	clrf	(printf@prec)
  3168                           	line	625
  3169  0330  2B51               	goto	l9858
  3170                           	
  3171  0331                     l1235:	
  3172                           	line	626
  3173                           	
  3174  0331                     l9854:	
  3175  0331  300A               	movlw	(0Ah)
  3176  0332  1283               	bcf	status, 5	;RP0=0, select bank0
  3177  0333  1303               	bcf	status, 6	;RP1=0, select bank0
  3178  0334  00B5               	movwf	(??_printf+0)+0
  3179  0335  0835               	movf	(??_printf+0)+0,w
  3180  0336  00A5               	movwf	(?___bmul)
  3181  0337  083F               	movf	(printf@prec),w
  3182  0338  160A  158A  2324   	fcall	___bmul
              120A  118A         
  3183  033D  1283               	bcf	status, 5	;RP0=0, select bank0
  3184  033E  1303               	bcf	status, 6	;RP1=0, select bank0
  3185  033F  00B6               	movwf	(??_printf+1)+0
  3186  0340  083E               	movf	(printf@f),w
  3187  0341  0084               	movwf	fsr0
  3188  0342  120A  158A  2000   	fcall	stringdir
              120A  118A         
  3189  0347  0736               	addwf	0+(??_printf+1)+0,w
  3190  0348  3ED0               	addlw	-48
  3191  0349  00B7               	movwf	(??_printf+2)+0
  3192  034A  0837               	movf	(??_printf+2)+0,w
  3193  034B  00BF               	movwf	(printf@prec)
  3194                           	
  3195  034C                     l9856:	
  3196  034C  3001               	movlw	(01h)
  3197  034D  00B5               	movwf	(??_printf+0)+0
  3198  034E  0835               	movf	(??_printf+0)+0,w
  3199  034F  07BE               	addwf	(printf@f),f
  3200  0350  2B51               	goto	l9858
  3201                           	
  3202  0351                     l1234:	
  3203                           	line	625
  3204                           	
  3205  0351                     l9858:	
  3206  0351  083E               	movf	(printf@f),w
  3207  0352  0084               	movwf	fsr0
  3208  0353  120A  158A  2000   	fcall	stringdir
              120A  118A         
  3209  0358  160A  158A  230D   	fcall	_isdigit
              120A  118A         
  3210  035D  1803               	btfsc	status,0
  3211  035E  2B60               	goto	u11781
  3212  035F  2B61               	goto	u11780
  3213  0360                     u11781:
  3214  0360  2B31               	goto	l9854
  3215  0361                     u11780:
  3216  0361  2C1B               	goto	l9904
  3217                           	
  3218  0362                     l1236:	
  3219  0362  2C1B               	goto	l9904
  3220                           	line	627
  3221                           	
  3222  0363                     l1233:	
  3223                           	line	628
  3224  0363  2C1B               	goto	l9904
  3225                           	
  3226  0364                     l1231:	
  3227                           	line	629
  3228  0364  01BF               	clrf	(printf@prec)
  3229  0365  2C1B               	goto	l9904
  3230                           	line	633
  3231                           	
  3232  0366                     l1237:	
  3233                           	line	638
  3234  0366  2C1B               	goto	l9904
  3235                           	line	640
  3236                           	
  3237  0367                     l1239:	
  3238                           	line	641
  3239  0367  2FFF               	goto	l1343
  3240                           	line	692
  3241                           	
  3242  0368                     l1241:	
  3243                           	line	694
  3244  0368  1746               	bsf	(printf@flag)+(6/8),(6)&7
  3245                           	line	696
  3246  0369  2C41               	goto	l9906
  3247                           	line	700
  3248                           	
  3249  036A                     l1243:	
  3250  036A  2C41               	goto	l9906
  3251                           	line	701
  3252                           	
  3253  036B                     l1244:	
  3254                           	line	702
  3255  036B  2C41               	goto	l9906
  3256                           	line	715
  3257                           	
  3258  036C                     l1245:	
  3259                           	line	717
  3260  036C  16C6               	bsf	(printf@flag)+(5/8),(5)&7
  3261                           	line	721
  3262                           	
  3263  036D                     l1246:	
  3264                           	line	724
  3265  036D  17C6               	bsf	(printf@flag)+(7/8),(7)&7
  3266                           	line	726
  3267  036E  2C41               	goto	l9906
  3268                           	line	753
  3269                           	
  3270  036F                     l1247:	
  3271                           	line	756
  3272                           	
  3273  036F                     l9860:	
  3274  036F  083F               	movf	(printf@prec),w
  3275  0370  1D03               	skipz
  3276  0371  2B73               	goto	u11790
  3277  0372  2B88               	goto	l9866
  3278  0373                     u11790:
  3279                           	
  3280  0373                     l9862:	
  3281  0373  083F               	movf	(printf@prec),w
  3282  0374  00B5               	movwf	(??_printf+0)+0
  3283  0375  01B6               	clrf	(??_printf+0)+0+1
  3284  0376  1BB5               	btfsc	(??_printf+0)+0,7
  3285  0377  03B6               	decf	(??_printf+0)+0+1,f
  3286  0378  0844               	movf	1+(printf@_val)+01h,w
  3287  0379  0236               	subwf	1+(??_printf+0)+0,w
  3288  037A  1D03               	skipz
  3289  037B  2B7E               	goto	u11805
  3290  037C  0843               	movf	0+(printf@_val)+01h,w
  3291  037D  0235               	subwf	0+(??_printf+0)+0,w
  3292  037E                     u11805:
  3293  037E  1803               	skipnc
  3294  037F  2B81               	goto	u11801
  3295  0380  2B82               	goto	u11800
  3296  0381                     u11801:
  3297  0381  2B88               	goto	l9866
  3298  0382                     u11800:
  3299                           	line	757
  3300                           	
  3301  0382                     l9864:	
  3302  0382  083F               	movf	(printf@prec),w
  3303  0383  00C3               	movwf	0+(printf@_val)+01h
  3304  0384  01C4               	clrf	1+(printf@_val)+01h
  3305  0385  1BC3               	btfsc	0+(printf@_val)+01h,7
  3306  0386  03C4               	decf	1+(printf@_val)+01h,f
  3307  0387  2B88               	goto	l9866
  3308                           	
  3309  0388                     l1248:	
  3310                           	line	760
  3311                           	
  3312  0388                     l9866:	
  3313  0388  0841               	movf	(printf@width+1),w
  3314  0389  0244               	subwf	1+(printf@_val)+01h,w
  3315  038A  1D03               	skipz
  3316  038B  2B8E               	goto	u11815
  3317  038C  0840               	movf	(printf@width),w
  3318  038D  0243               	subwf	0+(printf@_val)+01h,w
  3319  038E                     u11815:
  3320  038E  1803               	skipnc
  3321  038F  2B91               	goto	u11811
  3322  0390  2B92               	goto	u11810
  3323  0391                     u11811:
  3324  0391  2B99               	goto	l9870
  3325  0392                     u11810:
  3326                           	line	761
  3327                           	
  3328  0392                     l9868:	
  3329  0392  0843               	movf	0+(printf@_val)+01h,w
  3330  0393  02C0               	subwf	(printf@width),f
  3331  0394  0844               	movf	1+(printf@_val)+01h,w
  3332  0395  1C03               	skipc
  3333  0396  03C1               	decf	(printf@width+1),f
  3334  0397  02C1               	subwf	(printf@width+1),f
  3335  0398  2B9C               	goto	l9872
  3336                           	line	762
  3337                           	
  3338  0399                     l1249:	
  3339                           	line	763
  3340                           	
  3341  0399                     l9870:	
  3342  0399  01C0               	clrf	(printf@width)
  3343  039A  01C1               	clrf	(printf@width+1)
  3344  039B  2B9C               	goto	l9872
  3345                           	
  3346  039C                     l1250:	
  3347                           	line	765
  3348                           	
  3349  039C                     l9872:	
  3350  039C  19C6               	btfsc	(printf@flag),(3)&7
  3351  039D  2B9F               	goto	u11821
  3352  039E  2BA0               	goto	u11820
  3353  039F                     u11821:
  3354  039F  2BCE               	goto	l9884
  3355  03A0                     u11820:
  3356  03A0  2BA9               	goto	l9878
  3357                           	line	767
  3358                           	
  3359  03A1                     l9874:	
  3360  03A1  2BA9               	goto	l9878
  3361                           	
  3362  03A2                     l1253:	
  3363                           	line	768
  3364                           	
  3365  03A2                     l9876:	
  3366  03A2  3020               	movlw	(020h)
  3367  03A3  120A  118A  2018   	fcall	_putch
              120A  118A         
  3368  03A8  2BA9               	goto	l9878
  3369                           	
  3370  03A9                     l1252:	
  3371                           	line	767
  3372                           	
  3373  03A9                     l9878:	
  3374  03A9  30FF               	movlw	low(-1)
  3375  03AA  1283               	bcf	status, 5	;RP0=0, select bank0
  3376  03AB  1303               	bcf	status, 6	;RP1=0, select bank0
  3377  03AC  07C0               	addwf	(printf@width),f
  3378  03AD  1803               	skipnc
  3379  03AE  0AC1               	incf	(printf@width+1),f
  3380  03AF  30FF               	movlw	high(-1)
  3381  03B0  07C1               	addwf	(printf@width+1),f
  3382  03B1  30FF               	movlw	high(-1)
  3383  03B2  0641               	xorwf	((printf@width+1)),w
  3384  03B3  1D03               	skipz
  3385  03B4  2BB7               	goto	u11835
  3386  03B5  30FF               	movlw	low(-1)
  3387  03B6  0640               	xorwf	((printf@width)),w
  3388  03B7                     u11835:
  3389                           
  3390  03B7  1D03               	skipz
  3391  03B8  2BBA               	goto	u11831
  3392  03B9  2BBB               	goto	u11830
  3393  03BA                     u11831:
  3394  03BA  2BA2               	goto	l9876
  3395  03BB                     u11830:
  3396  03BB  2BCE               	goto	l9884
  3397                           	
  3398  03BC                     l1254:	
  3399  03BC  2BCE               	goto	l9884
  3400                           	line	768
  3401                           	
  3402  03BD                     l1251:	
  3403                           	line	770
  3404  03BD  2BCE               	goto	l9884
  3405                           	
  3406  03BE                     l1256:	
  3407                           	line	771
  3408                           	
  3409  03BE                     l9880:	
  3410  03BE  0842               	movf	(printf@_val),w
  3411  03BF  0084               	movwf	fsr0
  3412  03C0  1383               	bcf	status, 7	;select IRP bank0
  3413  03C1  0800               	movf	indf,w
  3414  03C2  120A  118A  2018   	fcall	_putch
              120A  118A         
  3415                           	
  3416  03C7                     l9882:	
  3417  03C7  3001               	movlw	(01h)
  3418  03C8  1283               	bcf	status, 5	;RP0=0, select bank0
  3419  03C9  1303               	bcf	status, 6	;RP1=0, select bank0
  3420  03CA  00B5               	movwf	(??_printf+0)+0
  3421  03CB  0835               	movf	(??_printf+0)+0,w
  3422  03CC  07C2               	addwf	(printf@_val),f
  3423  03CD  2BCE               	goto	l9884
  3424                           	
  3425  03CE                     l1255:	
  3426                           	line	770
  3427                           	
  3428  03CE                     l9884:	
  3429  03CE  3001               	movlw	low(01h)
  3430  03CF  02C3               	subwf	0+(printf@_val)+01h,f
  3431  03D0  3000               	movlw	high(01h)
  3432  03D1  1C03               	skipc
  3433  03D2  03C4               	decf	1+(printf@_val)+01h,f
  3434  03D3  02C4               	subwf	1+(printf@_val)+01h,f
  3435  03D4  30FF               	movlw	high(0FFFFh)
  3436  03D5  0644               	xorwf	(1+(printf@_val)+01h),w
  3437  03D6  1D03               	skipz
  3438  03D7  2BDA               	goto	u11845
  3439  03D8  30FF               	movlw	low(0FFFFh)
  3440  03D9  0643               	xorwf	(0+(printf@_val)+01h),w
  3441  03DA                     u11845:
  3442                           
  3443  03DA  1D03               	skipz
  3444  03DB  2BDD               	goto	u11841
  3445  03DC  2BDE               	goto	u11840
  3446  03DD                     u11841:
  3447  03DD  2BBE               	goto	l9880
  3448  03DE                     u11840:
  3449                           	
  3450  03DE                     l1257:	
  3451                           	line	773
  3452  03DE  1DC6               	btfss	(printf@flag),(3)&7
  3453  03DF  2BE1               	goto	u11851
  3454  03E0  2BE2               	goto	u11850
  3455  03E1                     u11851:
  3456  03E1  2FE9               	goto	l10094
  3457  03E2                     u11850:
  3458  03E2  2BEB               	goto	l9890
  3459                           	line	774
  3460                           	
  3461  03E3                     l9886:	
  3462  03E3  2BEB               	goto	l9890
  3463                           	
  3464  03E4                     l1260:	
  3465                           	line	775
  3466                           	
  3467  03E4                     l9888:	
  3468  03E4  3020               	movlw	(020h)
  3469  03E5  120A  118A  2018   	fcall	_putch
              120A  118A         
  3470  03EA  2BEB               	goto	l9890
  3471                           	
  3472  03EB                     l1259:	
  3473                           	line	774
  3474                           	
  3475  03EB                     l9890:	
  3476  03EB  30FF               	movlw	low(-1)
  3477  03EC  1283               	bcf	status, 5	;RP0=0, select bank0
  3478  03ED  1303               	bcf	status, 6	;RP1=0, select bank0
  3479  03EE  07C0               	addwf	(printf@width),f
  3480  03EF  1803               	skipnc
  3481  03F0  0AC1               	incf	(printf@width+1),f
  3482  03F1  30FF               	movlw	high(-1)
  3483  03F2  07C1               	addwf	(printf@width+1),f
  3484  03F3  30FF               	movlw	high(-1)
  3485  03F4  0641               	xorwf	((printf@width+1)),w
  3486  03F5  1D03               	skipz
  3487  03F6  2BF9               	goto	u11865
  3488  03F7  30FF               	movlw	low(-1)
  3489  03F8  0640               	xorwf	((printf@width)),w
  3490  03F9                     u11865:
  3491                           
  3492  03F9  1D03               	skipz
  3493  03FA  2BFC               	goto	u11861
  3494  03FB  2BFD               	goto	u11860
  3495  03FC                     u11861:
  3496  03FC  2BE4               	goto	l9888
  3497  03FD                     u11860:
  3498  03FD  2FE9               	goto	l10094
  3499                           	
  3500  03FE                     l1261:	
  3501  03FE  2FE9               	goto	l10094
  3502                           	line	775
  3503                           	
  3504  03FF                     l1258:	
  3505                           	line	777
  3506  03FF  2FE9               	goto	l10094
  3507                           	line	787
  3508                           	
  3509  0400                     l1262:	
  3510                           	line	802
  3511                           	
  3512  0400                     l9892:	
  3513  0400  083D               	movf	(printf@ap),w
  3514  0401  0084               	movwf	fsr0
  3515  0402  1383               	bcf	status, 7	;select IRP bank0
  3516  0403  0800               	movf	indf,w
  3517  0404  00B5               	movwf	(??_printf+0)+0
  3518  0405  0835               	movf	(??_printf+0)+0,w
  3519  0406  00C5               	movwf	(printf@c)
  3520                           	
  3521  0407                     l9894:	
  3522  0407  3002               	movlw	(02h)
  3523  0408  00B5               	movwf	(??_printf+0)+0
  3524  0409  0835               	movf	(??_printf+0)+0,w
  3525  040A  07BD               	addwf	(printf@ap),f
  3526  040B  2C0C               	goto	l9896
  3527                           	line	805
  3528                           	
  3529  040C                     l1263:	
  3530                           	line	808
  3531                           	
  3532  040C                     l9896:	
  3533  040C  3045               	movlw	(printf@c)&0ffh
  3534  040D  00B5               	movwf	(??_printf+0)+0
  3535  040E  0835               	movf	(??_printf+0)+0,w
  3536  040F  00C2               	movwf	(printf@_val)
  3537                           	line	809
  3538                           	
  3539  0410                     l9898:	
  3540  0410  3001               	movlw	low(01h)
  3541  0411  00C3               	movwf	0+(printf@_val)+01h
  3542  0412  3000               	movlw	high(01h)
  3543  0413  00C4               	movwf	(0+(printf@_val)+01h)+1
  3544                           	line	810
  3545  0414  2B6F               	goto	l9860
  3546                           	line	820
  3547                           	
  3548  0415                     l1264:	
  3549                           	line	821
  3550                           	
  3551  0415                     l9900:	
  3552  0415  30C0               	movlw	low(0C0h)
  3553  0416  04C6               	iorwf	(printf@flag),f
  3554  0417  3000               	movlw	high(0C0h)
  3555  0418  04C7               	iorwf	(printf@flag+1),f
  3556                           	line	822
  3557  0419  2C41               	goto	l9906
  3558                           	line	825
  3559                           	
  3560  041A                     l9902:	
  3561  041A  2C41               	goto	l9906
  3562                           	line	638
  3563                           	
  3564  041B                     l1238:	
  3565                           	
  3566  041B                     l9904:	
  3567  041B  3001               	movlw	01h
  3568  041C  1283               	bcf	status, 5	;RP0=0, select bank0
  3569  041D  1303               	bcf	status, 6	;RP1=0, select bank0
  3570  041E  07BE               	addwf	(printf@f),f
  3571  041F  30FF               	movlw	-01h
  3572  0420  073E               	addwf	(printf@f),w
  3573  0421  0084               	movwf	fsr0
  3574  0422  120A  158A  2000   	fcall	stringdir
              120A  118A         
  3575  0427  00C5               	movwf	(printf@c)
  3576                           	; Switch size 1, requested type "space"
  3577                           ; Number of cases is 8, Range of values is 0 to 120
  3578                           ; switch strategies available:
  3579                           ; Name         Instructions Cycles
  3580                           ; simple_byte           25    13 (average)
  3581                           ; jumptable            260     6 (fixed)
  3582                           ; rangetable           125     6 (fixed)
  3583                           ; spacedrange          248     9 (fixed)
  3584                           ; locatedrange         121     3 (fixed)
  3585                           ;	Chosen strategy is simple_byte
  3586                           
  3587                           	opt asmopt_off
  3588  0428  3A00               	xorlw	0^0	; case 0
  3589  0429  1903               	skipnz
  3590  042A  2FFF               	goto	l1343
  3591  042B  3A58               	xorlw	88^0	; case 88
  3592  042C  1903               	skipnz
  3593  042D  2B6C               	goto	l1245
  3594  042E  3A3B               	xorlw	99^88	; case 99
  3595  042F  1903               	skipnz
  3596  0430  2C00               	goto	l9892
  3597  0431  3A07               	xorlw	100^99	; case 100
  3598  0432  1903               	skipnz
  3599  0433  2C41               	goto	l9906
  3600  0434  3A0D               	xorlw	105^100	; case 105
  3601  0435  1903               	skipnz
  3602  0436  2C41               	goto	l9906
  3603  0437  3A06               	xorlw	111^105	; case 111
  3604  0438  1903               	skipnz
  3605  0439  2B68               	goto	l1241
  3606  043A  3A1A               	xorlw	117^111	; case 117
  3607  043B  1903               	skipnz
  3608  043C  2C15               	goto	l9900
  3609  043D  3A0D               	xorlw	120^117	; case 120
  3610  043E  1903               	skipnz
  3611  043F  2B6D               	goto	l1246
  3612  0440  2C0C               	goto	l9896
  3613                           	opt asmopt_on
  3614                           
  3615                           	line	825
  3616                           	
  3617  0441                     l1242:	
  3618                           	line	1246
  3619                           	
  3620  0441                     l9906:	
  3621  0441  30C0               	movlw	low(0C0h)
  3622  0442  0546               	andwf	(printf@flag),w
  3623  0443  00B5               	movwf	(??_printf+0)+0
  3624  0444  3000               	movlw	high(0C0h)
  3625  0445  0547               	andwf	(printf@flag+1),w
  3626  0446  00B6               	movwf	1+(??_printf+0)+0
  3627  0447  0836               	movf	1+(??_printf+0)+0,w
  3628  0448  0435               	iorwf	0+(??_printf+0)+0,w
  3629  0449  1D03               	skipz
  3630  044A  2C4C               	goto	u11871
  3631  044B  2C4D               	goto	u11870
  3632  044C                     u11871:
  3633  044C  2C68               	goto	l9918
  3634  044D                     u11870:
  3635                           	line	1254
  3636                           	
  3637  044D                     l9908:	
  3638  044D  083D               	movf	(printf@ap),w
  3639  044E  0084               	movwf	fsr0
  3640  044F  1383               	bcf	status, 7	;select IRP bank0
  3641  0450  0800               	movf	indf,w
  3642  0451  00C2               	movwf	(printf@_val)
  3643  0452  0A84               	incf	fsr0,f
  3644  0453  0800               	movf	indf,w
  3645  0454  00C3               	movwf	(printf@_val+1)
  3646                           	
  3647  0455                     l9910:	
  3648  0455  3002               	movlw	(02h)
  3649  0456  00B5               	movwf	(??_printf+0)+0
  3650  0457  0835               	movf	(??_printf+0)+0,w
  3651  0458  07BD               	addwf	(printf@ap),f
  3652                           	line	1256
  3653                           	
  3654  0459                     l9912:	
  3655  0459  1FC3               	btfss	(printf@_val+1),7
  3656  045A  2C5C               	goto	u11881
  3657  045B  2C5D               	goto	u11880
  3658  045C                     u11881:
  3659  045C  2C75               	goto	l9922
  3660  045D                     u11880:
  3661                           	line	1257
  3662                           	
  3663  045D                     l9914:	
  3664  045D  3003               	movlw	low(03h)
  3665  045E  04C6               	iorwf	(printf@flag),f
  3666  045F  3000               	movlw	high(03h)
  3667  0460  04C7               	iorwf	(printf@flag+1),f
  3668                           	line	1258
  3669                           	
  3670  0461                     l9916:	
  3671  0461  09C2               	comf	(printf@_val),f
  3672  0462  09C3               	comf	(printf@_val+1),f
  3673  0463  0AC2               	incf	(printf@_val),f
  3674  0464  1903               	skipnz
  3675  0465  0AC3               	incf	(printf@_val+1),f
  3676  0466  2C75               	goto	l9922
  3677                           	line	1259
  3678                           	
  3679  0467                     l1266:	
  3680                           	line	1261
  3681  0467  2C75               	goto	l9922
  3682                           	line	1263
  3683                           	
  3684  0468                     l1265:	
  3685                           	line	1281
  3686                           	
  3687  0468                     l9918:	
  3688  0468  083D               	movf	(printf@ap),w
  3689  0469  0084               	movwf	fsr0
  3690  046A  1383               	bcf	status, 7	;select IRP bank0
  3691  046B  0800               	movf	indf,w
  3692  046C  00C2               	movwf	(printf@_val)
  3693  046D  0A84               	incf	fsr0,f
  3694  046E  0800               	movf	indf,w
  3695  046F  00C3               	movwf	(printf@_val+1)
  3696                           	
  3697  0470                     l9920:	
  3698  0470  3002               	movlw	(02h)
  3699  0471  00B5               	movwf	(??_printf+0)+0
  3700  0472  0835               	movf	(??_printf+0)+0,w
  3701  0473  07BD               	addwf	(printf@ap),f
  3702  0474  2C75               	goto	l9922
  3703                           	line	1282
  3704                           	
  3705  0475                     l1267:	
  3706                           	line	1285
  3707                           	
  3708  0475                     l9922:	
  3709  0475  08BF               	movf	(printf@prec),f
  3710  0476  1D03               	skipz
  3711  0477  2C79               	goto	u11891
  3712  0478  2C7A               	goto	u11890
  3713  0479                     u11891:
  3714  0479  2D24               	goto	l9972
  3715  047A                     u11890:
  3716                           	
  3717  047A                     l9924:	
  3718  047A  0843               	movf	((printf@_val+1)),w
  3719  047B  0442               	iorwf	((printf@_val)),w
  3720  047C  1D03               	skipz
  3721  047D  2C7F               	goto	u11901
  3722  047E  2C80               	goto	u11900
  3723  047F                     u11901:
  3724  047F  2D24               	goto	l9972
  3725  0480                     u11900:
  3726                           	line	1286
  3727                           	
  3728  0480                     l9926:	
  3729  0480  3001               	movlw	(01h)
  3730  0481  00B5               	movwf	(??_printf+0)+0
  3731  0482  0835               	movf	(??_printf+0)+0,w
  3732  0483  07BF               	addwf	(printf@prec),f
  3733  0484  2D24               	goto	l9972
  3734                           	
  3735  0485                     l1268:	
  3736                           	line	1289
  3737  0485  2D24               	goto	l9972
  3738                           	line	1294
  3739                           	
  3740  0486                     l1270:	
  3741  0486  2C87               	goto	l9928
  3742                           	line	1297
  3743                           	
  3744  0487                     l1271:	
  3745                           	line	1300
  3746                           	
  3747  0487                     l9928:	
  3748  0487  01C5               	clrf	(printf@c)
  3749  0488  1403               	bsf	status,0
  3750  0489  0DC5               	rlf	(printf@c),f
  3751                           	
  3752  048A                     l9930:	
  3753  048A  0845               	movf	(printf@c),w
  3754  048B  3A05               	xorlw	05h
  3755  048C  1D03               	skipz
  3756  048D  2C8F               	goto	u11911
  3757  048E  2C90               	goto	u11910
  3758  048F                     u11911:
  3759  048F  2C92               	goto	l9934
  3760  0490                     u11910:
  3761  0490  2D33               	goto	l9974
  3762                           	
  3763  0491                     l9932:	
  3764  0491  2D33               	goto	l9974
  3765                           	line	1301
  3766                           	
  3767  0492                     l1272:	
  3768                           	
  3769  0492                     l9934:	
  3770  0492  0845               	movf	(printf@c),w
  3771  0493  00B5               	movwf	(??_printf+0)+0
  3772  0494  0735               	addwf	(??_printf+0)+0,w
  3773  0495  3E0D               	addlw	low((_dpowers-__stringbase))
  3774  0496  0084               	movwf	fsr0
  3775  0497  120A  158A  2000   	fcall	stringdir
              120A  118A         
  3776  049C  00B6               	movwf	(??_printf+1)+0
  3777  049D  120A  158A  2000   	fcall	stringdir
              120A  118A         
  3778  04A2  00B7               	movwf	(??_printf+1)+0+1
  3779  04A3  0837               	movf	1+(??_printf+1)+0,w
  3780  04A4  0243               	subwf	(printf@_val+1),w
  3781  04A5  1D03               	skipz
  3782  04A6  2CA9               	goto	u11925
  3783  04A7  0836               	movf	0+(??_printf+1)+0,w
  3784  04A8  0242               	subwf	(printf@_val),w
  3785  04A9                     u11925:
  3786  04A9  1803               	skipnc
  3787  04AA  2CAC               	goto	u11921
  3788  04AB  2CAD               	goto	u11920
  3789  04AC                     u11921:
  3790  04AC  2CAF               	goto	l9938
  3791  04AD                     u11920:
  3792  04AD  2D33               	goto	l9974
  3793                           	line	1302
  3794                           	
  3795  04AE                     l9936:	
  3796  04AE  2D33               	goto	l9974
  3797                           	
  3798  04AF                     l1274:	
  3799                           	line	1300
  3800                           	
  3801  04AF                     l9938:	
  3802  04AF  3001               	movlw	(01h)
  3803  04B0  00B5               	movwf	(??_printf+0)+0
  3804  04B1  0835               	movf	(??_printf+0)+0,w
  3805  04B2  07C5               	addwf	(printf@c),f
  3806                           	
  3807  04B3                     l9940:	
  3808  04B3  0845               	movf	(printf@c),w
  3809  04B4  3A05               	xorlw	05h
  3810  04B5  1D03               	skipz
  3811  04B6  2CB8               	goto	u11931
  3812  04B7  2CB9               	goto	u11930
  3813  04B8                     u11931:
  3814  04B8  2C92               	goto	l9934
  3815  04B9                     u11930:
  3816  04B9  2D33               	goto	l9974
  3817                           	
  3818  04BA                     l1273:	
  3819                           	line	1304
  3820  04BA  2D33               	goto	l9974
  3821                           	line	1309
  3822                           	
  3823  04BB                     l1276:	
  3824                           	line	1311
  3825                           	
  3826  04BB                     l9942:	
  3827  04BB  01C5               	clrf	(printf@c)
  3828  04BC  1403               	bsf	status,0
  3829  04BD  0DC5               	rlf	(printf@c),f
  3830                           	
  3831  04BE                     l9944:	
  3832  04BE  0845               	movf	(printf@c),w
  3833  04BF  3A04               	xorlw	04h
  3834  04C0  1D03               	skipz
  3835  04C1  2CC3               	goto	u11941
  3836  04C2  2CC4               	goto	u11940
  3837  04C3                     u11941:
  3838  04C3  2CC6               	goto	l9948
  3839  04C4                     u11940:
  3840  04C4  2D33               	goto	l9974
  3841                           	
  3842  04C5                     l9946:	
  3843  04C5  2D33               	goto	l9974
  3844                           	line	1312
  3845                           	
  3846  04C6                     l1277:	
  3847                           	
  3848  04C6                     l9948:	
  3849  04C6  0845               	movf	(printf@c),w
  3850  04C7  00B5               	movwf	(??_printf+0)+0
  3851  04C8  0735               	addwf	(??_printf+0)+0,w
  3852  04C9  3E17               	addlw	low((_hexpowers-__stringbase))
  3853  04CA  0084               	movwf	fsr0
  3854  04CB  120A  158A  2000   	fcall	stringdir
              120A  118A         
  3855  04D0  00B6               	movwf	(??_printf+1)+0
  3856  04D1  120A  158A  2000   	fcall	stringdir
              120A  118A         
  3857  04D6  00B7               	movwf	(??_printf+1)+0+1
  3858  04D7  0837               	movf	1+(??_printf+1)+0,w
  3859  04D8  0243               	subwf	(printf@_val+1),w
  3860  04D9  1D03               	skipz
  3861  04DA  2CDD               	goto	u11955
  3862  04DB  0836               	movf	0+(??_printf+1)+0,w
  3863  04DC  0242               	subwf	(printf@_val),w
  3864  04DD                     u11955:
  3865  04DD  1803               	skipnc
  3866  04DE  2CE0               	goto	u11951
  3867  04DF  2CE1               	goto	u11950
  3868  04E0                     u11951:
  3869  04E0  2CE3               	goto	l9952
  3870  04E1                     u11950:
  3871  04E1  2D33               	goto	l9974
  3872                           	line	1313
  3873                           	
  3874  04E2                     l9950:	
  3875  04E2  2D33               	goto	l9974
  3876                           	
  3877  04E3                     l1279:	
  3878                           	line	1311
  3879                           	
  3880  04E3                     l9952:	
  3881  04E3  3001               	movlw	(01h)
  3882  04E4  00B5               	movwf	(??_printf+0)+0
  3883  04E5  0835               	movf	(??_printf+0)+0,w
  3884  04E6  07C5               	addwf	(printf@c),f
  3885                           	
  3886  04E7                     l9954:	
  3887  04E7  0845               	movf	(printf@c),w
  3888  04E8  3A04               	xorlw	04h
  3889  04E9  1D03               	skipz
  3890  04EA  2CEC               	goto	u11961
  3891  04EB  2CED               	goto	u11960
  3892  04EC                     u11961:
  3893  04EC  2CC6               	goto	l9948
  3894  04ED                     u11960:
  3895  04ED  2D33               	goto	l9974
  3896                           	
  3897  04EE                     l1278:	
  3898                           	line	1315
  3899  04EE  2D33               	goto	l9974
  3900                           	line	1321
  3901                           	
  3902  04EF                     l1280:	
  3903                           	line	1323
  3904                           	
  3905  04EF                     l9956:	
  3906  04EF  01C5               	clrf	(printf@c)
  3907  04F0  1403               	bsf	status,0
  3908  04F1  0DC5               	rlf	(printf@c),f
  3909                           	
  3910  04F2                     l9958:	
  3911  04F2  0845               	movf	(printf@c),w
  3912  04F3  3A06               	xorlw	06h
  3913  04F4  1D03               	skipz
  3914  04F5  2CF7               	goto	u11971
  3915  04F6  2CF8               	goto	u11970
  3916  04F7                     u11971:
  3917  04F7  2CFA               	goto	l9962
  3918  04F8                     u11970:
  3919  04F8  2D33               	goto	l9974
  3920                           	
  3921  04F9                     l9960:	
  3922  04F9  2D33               	goto	l9974
  3923                           	line	1324
  3924                           	
  3925  04FA                     l1281:	
  3926                           	
  3927  04FA                     l9962:	
  3928  04FA  0845               	movf	(printf@c),w
  3929  04FB  00B5               	movwf	(??_printf+0)+0
  3930  04FC  0735               	addwf	(??_printf+0)+0,w
  3931  04FD  3E01               	addlw	low((_octpowers-__stringbase))
  3932  04FE  0084               	movwf	fsr0
  3933  04FF  120A  158A  2000   	fcall	stringdir
              120A  118A         
  3934  0504  00B6               	movwf	(??_printf+1)+0
  3935  0505  120A  158A  2000   	fcall	stringdir
              120A  118A         
  3936  050A  00B7               	movwf	(??_printf+1)+0+1
  3937  050B  0837               	movf	1+(??_printf+1)+0,w
  3938  050C  0243               	subwf	(printf@_val+1),w
  3939  050D  1D03               	skipz
  3940  050E  2D11               	goto	u11985
  3941  050F  0836               	movf	0+(??_printf+1)+0,w
  3942  0510  0242               	subwf	(printf@_val),w
  3943  0511                     u11985:
  3944  0511  1803               	skipnc
  3945  0512  2D14               	goto	u11981
  3946  0513  2D15               	goto	u11980
  3947  0514                     u11981:
  3948  0514  2D17               	goto	l9966
  3949  0515                     u11980:
  3950  0515  2D33               	goto	l9974
  3951                           	line	1325
  3952                           	
  3953  0516                     l9964:	
  3954  0516  2D33               	goto	l9974
  3955                           	
  3956  0517                     l1283:	
  3957                           	line	1323
  3958                           	
  3959  0517                     l9966:	
  3960  0517  3001               	movlw	(01h)
  3961  0518  00B5               	movwf	(??_printf+0)+0
  3962  0519  0835               	movf	(??_printf+0)+0,w
  3963  051A  07C5               	addwf	(printf@c),f
  3964                           	
  3965  051B                     l9968:	
  3966  051B  0845               	movf	(printf@c),w
  3967  051C  3A06               	xorlw	06h
  3968  051D  1D03               	skipz
  3969  051E  2D20               	goto	u11991
  3970  051F  2D21               	goto	u11990
  3971  0520                     u11991:
  3972  0520  2CFA               	goto	l9962
  3973  0521                     u11990:
  3974  0521  2D33               	goto	l9974
  3975                           	
  3976  0522                     l1282:	
  3977                           	line	1327
  3978  0522  2D33               	goto	l9974
  3979                           	line	1331
  3980                           	
  3981  0523                     l9970:	
  3982  0523  2D33               	goto	l9974
  3983                           	line	1289
  3984                           	
  3985  0524                     l1269:	
  3986                           	
  3987  0524                     l9972:	
  3988  0524  0846               	movf	(printf@flag),w
  3989  0525  39C0               	andlw	0C0h
  3990                           	; Switch size 1, requested type "space"
  3991                           ; Number of cases is 4, Range of values is 0 to 192
  3992                           ; switch strategies available:
  3993                           ; Name         Instructions Cycles
  3994                           ; simple_byte           13     7 (average)
  3995                           ; jumptable            260     6 (fixed)
  3996                           ; rangetable           197     6 (fixed)
  3997                           ; spacedrange          392     9 (fixed)
  3998                           ; locatedrange         193     3 (fixed)
  3999                           ;	Chosen strategy is simple_byte
  4000                           
  4001                           	opt asmopt_off
  4002  0526  3A00               	xorlw	0^0	; case 0
  4003  0527  1903               	skipnz
  4004  0528  2C87               	goto	l9928
  4005  0529  3A40               	xorlw	64^0	; case 64
  4006  052A  1903               	skipnz
  4007  052B  2CEF               	goto	l9956
  4008  052C  3AC0               	xorlw	128^64	; case 128
  4009  052D  1903               	skipnz
  4010  052E  2CBB               	goto	l9942
  4011  052F  3A40               	xorlw	192^128	; case 192
  4012  0530  1903               	skipnz
  4013  0531  2C87               	goto	l9928
  4014  0532  2D33               	goto	l9974
  4015                           	opt asmopt_on
  4016                           
  4017                           	line	1331
  4018                           	
  4019  0533                     l1275:	
  4020                           	line	1334
  4021                           	
  4022  0533                     l9974:	
  4023  0533  0845               	movf	(printf@c),w
  4024  0534  3A80               	xorlw	80h
  4025  0535  00B5               	movwf	(??_printf+0)+0
  4026  0536  083F               	movf	(printf@prec),w
  4027  0537  3A80               	xorlw	80h
  4028  0538  02B5               	subwf	(??_printf+0)+0
  4029  0539  1803               	skipnc
  4030  053A  2D3C               	goto	u12001
  4031  053B  2D3D               	goto	u12000
  4032  053C                     u12001:
  4033  053C  2D42               	goto	l9978
  4034  053D                     u12000:
  4035                           	line	1335
  4036                           	
  4037  053D                     l9976:	
  4038  053D  083F               	movf	(printf@prec),w
  4039  053E  00B5               	movwf	(??_printf+0)+0
  4040  053F  0835               	movf	(??_printf+0)+0,w
  4041  0540  00C5               	movwf	(printf@c)
  4042  0541  2D51               	goto	l1285
  4043                           	line	1336
  4044                           	
  4045  0542                     l1284:	
  4046                           	
  4047  0542                     l9978:	
  4048  0542  083F               	movf	(printf@prec),w
  4049  0543  3A80               	xorlw	80h
  4050  0544  00B5               	movwf	(??_printf+0)+0
  4051  0545  0845               	movf	(printf@c),w
  4052  0546  3A80               	xorlw	80h
  4053  0547  02B5               	subwf	(??_printf+0)+0
  4054  0548  1803               	skipnc
  4055  0549  2D4B               	goto	u12011
  4056  054A  2D4C               	goto	u12010
  4057  054B                     u12011:
  4058  054B  2D51               	goto	l1285
  4059  054C                     u12010:
  4060                           	line	1337
  4061                           	
  4062  054C                     l9980:	
  4063  054C  0845               	movf	(printf@c),w
  4064  054D  00B5               	movwf	(??_printf+0)+0
  4065  054E  0835               	movf	(??_printf+0)+0,w
  4066  054F  00BF               	movwf	(printf@prec)
  4067  0550  2D51               	goto	l1285
  4068                           	
  4069  0551                     l1286:	
  4070                           	line	1340
  4071                           	
  4072  0551                     l1285:	
  4073  0551  0841               	movf	(printf@width+1),w
  4074  0552  0440               	iorwf	(printf@width),w
  4075  0553  1903               	skipnz
  4076  0554  2D56               	goto	u12021
  4077  0555  2D57               	goto	u12020
  4078  0556                     u12021:
  4079  0556  2D6A               	goto	l9986
  4080  0557                     u12020:
  4081                           	
  4082  0557                     l9982:	
  4083  0557  3003               	movlw	low(03h)
  4084  0558  0546               	andwf	(printf@flag),w
  4085  0559  00B5               	movwf	(??_printf+0)+0
  4086  055A  3000               	movlw	high(03h)
  4087  055B  0547               	andwf	(printf@flag+1),w
  4088  055C  00B6               	movwf	1+(??_printf+0)+0
  4089  055D  0836               	movf	1+(??_printf+0)+0,w
  4090  055E  0435               	iorwf	0+(??_printf+0)+0,w
  4091  055F  1903               	skipnz
  4092  0560  2D62               	goto	u12031
  4093  0561  2D63               	goto	u12030
  4094  0562                     u12031:
  4095  0562  2D6A               	goto	l9986
  4096  0563                     u12030:
  4097                           	line	1341
  4098                           	
  4099  0563                     l9984:	
  4100  0563  30FF               	movlw	low(-1)
  4101  0564  07C0               	addwf	(printf@width),f
  4102  0565  1803               	skipnc
  4103  0566  0AC1               	incf	(printf@width+1),f
  4104  0567  30FF               	movlw	high(-1)
  4105  0568  07C1               	addwf	(printf@width+1),f
  4106  0569  2D6A               	goto	l9986
  4107                           	
  4108  056A                     l1287:	
  4109                           	line	1343
  4110                           	
  4111  056A                     l9986:	
  4112  056A  1F47               	btfss	(printf@flag+1),(14)&7
  4113  056B  2D6D               	goto	u12041
  4114  056C  2D6E               	goto	u12040
  4115  056D                     u12041:
  4116  056D  2D95               	goto	l9994
  4117  056E                     u12040:
  4118                           	line	1344
  4119                           	
  4120  056E                     l9988:	
  4121  056E  083F               	movf	(printf@prec),w
  4122  056F  00B5               	movwf	(??_printf+0)+0
  4123  0570  01B6               	clrf	(??_printf+0)+0+1
  4124  0571  1BB5               	btfsc	(??_printf+0)+0,7
  4125  0572  03B6               	decf	(??_printf+0)+0+1,f
  4126  0573  0836               	movf	1+(??_printf+0)+0,w
  4127  0574  3A80               	xorlw	80h
  4128  0575  00B7               	movwf	(??_printf+2)+0
  4129  0576  0841               	movf	(printf@width+1),w
  4130  0577  3A80               	xorlw	80h
  4131  0578  0237               	subwf	(??_printf+2)+0,w
  4132  0579  1D03               	skipz
  4133  057A  2D7D               	goto	u12055
  4134  057B  0840               	movf	(printf@width),w
  4135  057C  0235               	subwf	0+(??_printf+0)+0,w
  4136  057D                     u12055:
  4137                           
  4138  057D  1803               	skipnc
  4139  057E  2D80               	goto	u12051
  4140  057F  2D81               	goto	u12050
  4141  0580                     u12051:
  4142  0580  2D8F               	goto	l9992
  4143  0581                     u12050:
  4144                           	line	1345
  4145                           	
  4146  0581                     l9990:	
  4147  0581  1283               	bcf	status, 5	;RP0=0, select bank0
  4148  0582  1303               	bcf	status, 6	;RP1=0, select bank0
  4149  0583  083F               	movf	(printf@prec),w
  4150  0584  00B5               	movwf	(??_printf+0)+0
  4151  0585  01B6               	clrf	(??_printf+0)+0+1
  4152  0586  1BB5               	btfsc	(??_printf+0)+0,7
  4153  0587  03B6               	decf	(??_printf+0)+0+1,f
  4154  0588  0835               	movf	0+(??_printf+0)+0,w
  4155  0589  02C0               	subwf	(printf@width),f
  4156  058A  0836               	movf	1+(??_printf+0)+0,w
  4157  058B  1C03               	skipc
  4158  058C  03C1               	decf	(printf@width+1),f
  4159  058D  02C1               	subwf	(printf@width+1),f
  4160  058E  2D95               	goto	l9994
  4161                           	line	1346
  4162                           	
  4163  058F                     l1289:	
  4164                           	line	1347
  4165                           	
  4166  058F                     l9992:	
  4167  058F  1283               	bcf	status, 5	;RP0=0, select bank0
  4168  0590  1303               	bcf	status, 6	;RP1=0, select bank0
  4169  0591  01C0               	clrf	(printf@width)
  4170  0592  01C1               	clrf	(printf@width+1)
  4171  0593  2D95               	goto	l9994
  4172                           	
  4173  0594                     l1290:	
  4174  0594  2D95               	goto	l9994
  4175                           	line	1348
  4176                           	
  4177  0595                     l1288:	
  4178                           	line	1356
  4179                           	
  4180  0595                     l9994:	
  4181  0595  30C4               	movlw	low(08C4h)
  4182  0596  0546               	andwf	(printf@flag),w
  4183  0597  00B5               	movwf	(??_printf+0)+0
  4184  0598  3008               	movlw	high(08C4h)
  4185  0599  0547               	andwf	(printf@flag+1),w
  4186  059A  00B6               	movwf	1+(??_printf+0)+0
  4187  059B  3008               	movlw	high(0840h)
  4188  059C  0636               	xorwf	1+(??_printf+0)+0,w
  4189  059D  1D03               	skipz
  4190  059E  2DA1               	goto	u12065
  4191  059F  3040               	movlw	low(0840h)
  4192  05A0  0635               	xorwf	0+(??_printf+0)+0,w
  4193  05A1                     u12065:
  4194                           
  4195  05A1  1D03               	skipz
  4196  05A2  2DA4               	goto	u12061
  4197  05A3  2DA5               	goto	u12060
  4198  05A4                     u12061:
  4199  05A4  2DB3               	goto	l10000
  4200  05A5                     u12060:
  4201                           	line	1357
  4202                           	
  4203  05A5                     l9996:	
  4204  05A5  0841               	movf	(printf@width+1),w
  4205  05A6  0440               	iorwf	(printf@width),w
  4206  05A7  1903               	skipnz
  4207  05A8  2DAA               	goto	u12071
  4208  05A9  2DAB               	goto	u12070
  4209  05AA                     u12071:
  4210  05AA  2DE0               	goto	l10008
  4211  05AB                     u12070:
  4212                           	line	1358
  4213                           	
  4214  05AB                     l9998:	
  4215  05AB  30FF               	movlw	low(-1)
  4216  05AC  07C0               	addwf	(printf@width),f
  4217  05AD  1803               	skipnc
  4218  05AE  0AC1               	incf	(printf@width+1),f
  4219  05AF  30FF               	movlw	high(-1)
  4220  05B0  07C1               	addwf	(printf@width+1),f
  4221  05B1  2DE0               	goto	l10008
  4222                           	
  4223  05B2                     l1292:	
  4224                           	line	1359
  4225  05B2  2DE0               	goto	l10008
  4226                           	
  4227  05B3                     l1291:	
  4228                           	line	1363
  4229                           	
  4230  05B3                     l10000:	
  4231  05B3  30C0               	movlw	low(08C0h)
  4232  05B4  0546               	andwf	(printf@flag),w
  4233  05B5  00B5               	movwf	(??_printf+0)+0
  4234  05B6  3008               	movlw	high(08C0h)
  4235  05B7  0547               	andwf	(printf@flag+1),w
  4236  05B8  00B6               	movwf	1+(??_printf+0)+0
  4237  05B9  3008               	movlw	high(0880h)
  4238  05BA  0636               	xorwf	1+(??_printf+0)+0,w
  4239  05BB  1D03               	skipz
  4240  05BC  2DBF               	goto	u12085
  4241  05BD  3080               	movlw	low(0880h)
  4242  05BE  0635               	xorwf	0+(??_printf+0)+0,w
  4243  05BF                     u12085:
  4244                           
  4245  05BF  1D03               	skipz
  4246  05C0  2DC2               	goto	u12081
  4247  05C1  2DC3               	goto	u12080
  4248  05C2                     u12081:
  4249  05C2  2DE0               	goto	l10008
  4250  05C3                     u12080:
  4251                           	line	1367
  4252                           	
  4253  05C3                     l10002:	
  4254  05C3  0841               	movf	(printf@width+1),w
  4255  05C4  3A80               	xorlw	80h
  4256  05C5  00FF               	movwf	btemp+1
  4257  05C6  3080               	movlw	(high(03h))^80h
  4258  05C7  027F               	subwf	btemp+1,w
  4259  05C8  1D03               	skipz
  4260  05C9  2DCC               	goto	u12095
  4261  05CA  3003               	movlw	low(03h)
  4262  05CB  0240               	subwf	(printf@width),w
  4263  05CC                     u12095:
  4264                           
  4265  05CC  1C03               	skipc
  4266  05CD  2DCF               	goto	u12091
  4267  05CE  2DD0               	goto	u12090
  4268  05CF                     u12091:
  4269  05CF  2DD9               	goto	l10006
  4270  05D0                     u12090:
  4271                           	line	1368
  4272                           	
  4273  05D0                     l10004:	
  4274  05D0  30FE               	movlw	low(-2)
  4275  05D1  1283               	bcf	status, 5	;RP0=0, select bank0
  4276  05D2  1303               	bcf	status, 6	;RP1=0, select bank0
  4277  05D3  07C0               	addwf	(printf@width),f
  4278  05D4  1803               	skipnc
  4279  05D5  0AC1               	incf	(printf@width+1),f
  4280  05D6  30FF               	movlw	high(-2)
  4281  05D7  07C1               	addwf	(printf@width+1),f
  4282  05D8  2DE0               	goto	l10008
  4283                           	line	1369
  4284                           	
  4285  05D9                     l1295:	
  4286                           	line	1370
  4287                           	
  4288  05D9                     l10006:	
  4289  05D9  1283               	bcf	status, 5	;RP0=0, select bank0
  4290  05DA  1303               	bcf	status, 6	;RP1=0, select bank0
  4291  05DB  01C0               	clrf	(printf@width)
  4292  05DC  01C1               	clrf	(printf@width+1)
  4293  05DD  2DE0               	goto	l10008
  4294                           	
  4295  05DE                     l1296:	
  4296  05DE  2DE0               	goto	l10008
  4297                           	line	1371
  4298                           	
  4299  05DF                     l1294:	
  4300  05DF  2DE0               	goto	l10008
  4301                           	line	1376
  4302                           	
  4303  05E0                     l1293:	
  4304                           	
  4305  05E0                     l10008:	
  4306  05E0  0845               	movf	(printf@c),w
  4307  05E1  00B5               	movwf	(??_printf+0)+0
  4308  05E2  01B6               	clrf	(??_printf+0)+0+1
  4309  05E3  1BB5               	btfsc	(??_printf+0)+0,7
  4310  05E4  03B6               	decf	(??_printf+0)+0+1,f
  4311  05E5  0836               	movf	1+(??_printf+0)+0,w
  4312  05E6  3A80               	xorlw	80h
  4313  05E7  00B7               	movwf	(??_printf+2)+0
  4314  05E8  0841               	movf	(printf@width+1),w
  4315  05E9  3A80               	xorlw	80h
  4316  05EA  0237               	subwf	(??_printf+2)+0,w
  4317  05EB  1D03               	skipz
  4318  05EC  2DEF               	goto	u12105
  4319  05ED  0840               	movf	(printf@width),w
  4320  05EE  0235               	subwf	0+(??_printf+0)+0,w
  4321  05EF                     u12105:
  4322                           
  4323  05EF  1803               	skipnc
  4324  05F0  2DF2               	goto	u12101
  4325  05F1  2DF3               	goto	u12100
  4326  05F2                     u12101:
  4327  05F2  2E01               	goto	l10012
  4328  05F3                     u12100:
  4329                           	line	1377
  4330                           	
  4331  05F3                     l10010:	
  4332  05F3  1283               	bcf	status, 5	;RP0=0, select bank0
  4333  05F4  1303               	bcf	status, 6	;RP1=0, select bank0
  4334  05F5  0845               	movf	(printf@c),w
  4335  05F6  00B5               	movwf	(??_printf+0)+0
  4336  05F7  01B6               	clrf	(??_printf+0)+0+1
  4337  05F8  1BB5               	btfsc	(??_printf+0)+0,7
  4338  05F9  03B6               	decf	(??_printf+0)+0+1,f
  4339  05FA  0835               	movf	0+(??_printf+0)+0,w
  4340  05FB  02C0               	subwf	(printf@width),f
  4341  05FC  0836               	movf	1+(??_printf+0)+0,w
  4342  05FD  1C03               	skipc
  4343  05FE  03C1               	decf	(printf@width+1),f
  4344  05FF  02C1               	subwf	(printf@width+1),f
  4345  0600  2E06               	goto	l10014
  4346                           	line	1378
  4347                           	
  4348  0601                     l1297:	
  4349                           	line	1379
  4350                           	
  4351  0601                     l10012:	
  4352  0601  1283               	bcf	status, 5	;RP0=0, select bank0
  4353  0602  1303               	bcf	status, 6	;RP1=0, select bank0
  4354  0603  01C0               	clrf	(printf@width)
  4355  0604  01C1               	clrf	(printf@width+1)
  4356  0605  2E06               	goto	l10014
  4357                           	
  4358  0606                     l1298:	
  4359                           	line	1382
  4360                           	
  4361  0606                     l10014:	
  4362  0606  1D46               	btfss	(printf@flag),(2)&7
  4363  0607  2E09               	goto	u12111
  4364  0608  2E0A               	goto	u12110
  4365  0609                     u12111:
  4366  0609  2E79               	goto	l10040
  4367  060A                     u12110:
  4368                           	line	1387
  4369                           	
  4370  060A                     l10016:	
  4371  060A  3003               	movlw	low(03h)
  4372  060B  0546               	andwf	(printf@flag),w
  4373  060C  00B5               	movwf	(??_printf+0)+0
  4374  060D  3000               	movlw	high(03h)
  4375  060E  0547               	andwf	(printf@flag+1),w
  4376  060F  00B6               	movwf	1+(??_printf+0)+0
  4377  0610  0836               	movf	1+(??_printf+0)+0,w
  4378  0611  0435               	iorwf	0+(??_printf+0)+0,w
  4379  0612  1903               	skipnz
  4380  0613  2E15               	goto	u12121
  4381  0614  2E16               	goto	u12120
  4382  0615                     u12121:
  4383  0615  2E1D               	goto	l1300
  4384  0616                     u12120:
  4385                           	line	1388
  4386                           	
  4387  0616                     l10018:	
  4388  0616  302D               	movlw	(02Dh)
  4389  0617  120A  118A  2018   	fcall	_putch
              120A  118A         
  4390  061C  2E59               	goto	l10034
  4391                           	line	1391
  4392                           	
  4393  061D                     l1300:	
  4394                           	line	1394
  4395  061D  1C46               	btfss	(printf@flag),(0)&7
  4396  061E  2E20               	goto	u12131
  4397  061F  2E21               	goto	u12130
  4398  0620                     u12131:
  4399  0620  2E28               	goto	l10022
  4400  0621                     u12130:
  4401                           	line	1395
  4402                           	
  4403  0621                     l10020:	
  4404  0621  3020               	movlw	(020h)
  4405  0622  120A  118A  2018   	fcall	_putch
              120A  118A         
  4406  0627  2E59               	goto	l10034
  4407                           	line	1398
  4408                           	
  4409  0628                     l1302:	
  4410                           	
  4411  0628                     l10022:	
  4412  0628  30C0               	movlw	low(08C0h)
  4413  0629  1283               	bcf	status, 5	;RP0=0, select bank0
  4414  062A  1303               	bcf	status, 6	;RP1=0, select bank0
  4415  062B  0546               	andwf	(printf@flag),w
  4416  062C  00B5               	movwf	(??_printf+0)+0
  4417  062D  3008               	movlw	high(08C0h)
  4418  062E  0547               	andwf	(printf@flag+1),w
  4419  062F  00B6               	movwf	1+(??_printf+0)+0
  4420  0630  3008               	movlw	high(0880h)
  4421  0631  0636               	xorwf	1+(??_printf+0)+0,w
  4422  0632  1D03               	skipz
  4423  0633  2E36               	goto	u12145
  4424  0634  3080               	movlw	low(0880h)
  4425  0635  0635               	xorwf	0+(??_printf+0)+0,w
  4426  0636                     u12145:
  4427                           
  4428  0636  1D03               	skipz
  4429  0637  2E39               	goto	u12141
  4430  0638  2E3A               	goto	u12140
  4431  0639                     u12141:
  4432  0639  2E59               	goto	l10034
  4433  063A                     u12140:
  4434                           	line	1399
  4435                           	
  4436  063A                     l10024:	
  4437  063A  3030               	movlw	(030h)
  4438  063B  120A  118A  2018   	fcall	_putch
              120A  118A         
  4439                           	line	1401
  4440                           	
  4441  0640                     l10026:	
  4442  0640  1283               	bcf	status, 5	;RP0=0, select bank0
  4443  0641  1303               	bcf	status, 6	;RP1=0, select bank0
  4444  0642  1AC6               	btfsc	(printf@flag),(5)&7
  4445  0643  2E45               	goto	u12151
  4446  0644  2E46               	goto	u12150
  4447  0645                     u12151:
  4448  0645  2E4B               	goto	l10030
  4449  0646                     u12150:
  4450                           	
  4451  0646                     l10028:	
  4452  0646  3078               	movlw	low(078h)
  4453  0647  00B8               	movwf	(_printf$1463)
  4454  0648  3000               	movlw	high(078h)
  4455  0649  00B9               	movwf	((_printf$1463))+1
  4456  064A  2E50               	goto	l10032
  4457                           	
  4458  064B                     l1306:	
  4459                           	
  4460  064B                     l10030:	
  4461  064B  3058               	movlw	low(058h)
  4462  064C  00B8               	movwf	(_printf$1463)
  4463  064D  3000               	movlw	high(058h)
  4464  064E  00B9               	movwf	((_printf$1463))+1
  4465  064F  2E50               	goto	l10032
  4466                           	
  4467  0650                     l1308:	
  4468                           	
  4469  0650                     l10032:	
  4470  0650  0838               	movf	(_printf$1463),w
  4471  0651  120A  118A  2018   	fcall	_putch
              120A  118A         
  4472  0656  2E59               	goto	l10034
  4473                           	line	1407
  4474                           	
  4475  0657                     l1304:	
  4476  0657  2E59               	goto	l10034
  4477                           	line	1410
  4478                           	
  4479  0658                     l1303:	
  4480  0658  2E59               	goto	l10034
  4481                           	
  4482  0659                     l1301:	
  4483                           	
  4484  0659                     l10034:	
  4485  0659  1283               	bcf	status, 5	;RP0=0, select bank0
  4486  065A  1303               	bcf	status, 6	;RP1=0, select bank0
  4487  065B  0841               	movf	(printf@width+1),w
  4488  065C  0440               	iorwf	(printf@width),w
  4489  065D  1903               	skipnz
  4490  065E  2E60               	goto	u12161
  4491  065F  2E61               	goto	u12160
  4492  0660                     u12161:
  4493  0660  2FB4               	goto	l10086
  4494  0661                     u12160:
  4495  0661  2E62               	goto	l10036
  4496                           	line	1411
  4497                           	
  4498  0662                     l1310:	
  4499                           	line	1412
  4500                           	
  4501  0662                     l10036:	
  4502  0662  3030               	movlw	(030h)
  4503  0663  120A  118A  2018   	fcall	_putch
              120A  118A         
  4504                           	line	1413
  4505                           	
  4506  0668                     l10038:	
  4507  0668  30FF               	movlw	low(-1)
  4508  0669  1283               	bcf	status, 5	;RP0=0, select bank0
  4509  066A  1303               	bcf	status, 6	;RP1=0, select bank0
  4510  066B  07C0               	addwf	(printf@width),f
  4511  066C  1803               	skipnc
  4512  066D  0AC1               	incf	(printf@width+1),f
  4513  066E  30FF               	movlw	high(-1)
  4514  066F  07C1               	addwf	(printf@width+1),f
  4515  0670  0841               	movf	(((printf@width+1))),w
  4516  0671  0440               	iorwf	(((printf@width))),w
  4517  0672  1D03               	skipz
  4518  0673  2E75               	goto	u12171
  4519  0674  2E76               	goto	u12170
  4520  0675                     u12171:
  4521  0675  2E62               	goto	l10036
  4522  0676                     u12170:
  4523  0676  2FB4               	goto	l10086
  4524                           	
  4525  0677                     l1311:	
  4526  0677  2FB4               	goto	l10086
  4527                           	
  4528  0678                     l1309:	
  4529                           	line	1415
  4530  0678  2FB4               	goto	l10086
  4531                           	
  4532  0679                     l1299:	
  4533                           	line	1423
  4534                           	
  4535  0679                     l10040:	
  4536  0679  0841               	movf	(printf@width+1),w
  4537  067A  0440               	iorwf	(printf@width),w
  4538  067B  1903               	skipnz
  4539  067C  2E7E               	goto	u12181
  4540  067D  2E7F               	goto	u12180
  4541  067E                     u12181:
  4542  067E  2E9A               	goto	l10048
  4543  067F                     u12180:
  4544                           	
  4545  067F                     l10042:	
  4546  067F  19C6               	btfsc	(printf@flag),(3)&7
  4547  0680  2E82               	goto	u12191
  4548  0681  2E83               	goto	u12190
  4549  0682                     u12191:
  4550  0682  2E9A               	goto	l10048
  4551  0683                     u12190:
  4552  0683  2E84               	goto	l10044
  4553                           	line	1424
  4554                           	
  4555  0684                     l1314:	
  4556                           	line	1425
  4557                           	
  4558  0684                     l10044:	
  4559  0684  3020               	movlw	(020h)
  4560  0685  120A  118A  2018   	fcall	_putch
              120A  118A         
  4561                           	line	1426
  4562                           	
  4563  068A                     l10046:	
  4564  068A  30FF               	movlw	low(-1)
  4565  068B  1283               	bcf	status, 5	;RP0=0, select bank0
  4566  068C  1303               	bcf	status, 6	;RP1=0, select bank0
  4567  068D  07C0               	addwf	(printf@width),f
  4568  068E  1803               	skipnc
  4569  068F  0AC1               	incf	(printf@width+1),f
  4570  0690  30FF               	movlw	high(-1)
  4571  0691  07C1               	addwf	(printf@width+1),f
  4572  0692  0841               	movf	(((printf@width+1))),w
  4573  0693  0440               	iorwf	(((printf@width))),w
  4574  0694  1D03               	skipz
  4575  0695  2E97               	goto	u12201
  4576  0696  2E98               	goto	u12200
  4577  0697                     u12201:
  4578  0697  2E84               	goto	l10044
  4579  0698                     u12200:
  4580  0698  2E9A               	goto	l10048
  4581                           	
  4582  0699                     l1315:	
  4583  0699  2E9A               	goto	l10048
  4584                           	
  4585  069A                     l1313:	
  4586                           	line	1433
  4587                           	
  4588  069A                     l10048:	
  4589  069A  3003               	movlw	low(03h)
  4590  069B  0546               	andwf	(printf@flag),w
  4591  069C  00B5               	movwf	(??_printf+0)+0
  4592  069D  3000               	movlw	high(03h)
  4593  069E  0547               	andwf	(printf@flag+1),w
  4594  069F  00B6               	movwf	1+(??_printf+0)+0
  4595  06A0  0836               	movf	1+(??_printf+0)+0,w
  4596  06A1  0435               	iorwf	0+(??_printf+0)+0,w
  4597  06A2  1903               	skipnz
  4598  06A3  2EA5               	goto	u12211
  4599  06A4  2EA6               	goto	u12210
  4600  06A5                     u12211:
  4601  06A5  2EAD               	goto	l1316
  4602  06A6                     u12210:
  4603                           	line	1434
  4604                           	
  4605  06A6                     l10050:	
  4606  06A6  302D               	movlw	(02Dh)
  4607  06A7  120A  118A  2018   	fcall	_putch
              120A  118A         
  4608  06AC  2EB9               	goto	l10054
  4609                           	line	1438
  4610                           	
  4611  06AD                     l1316:	
  4612  06AD  1C46               	btfss	(printf@flag),(0)&7
  4613  06AE  2EB0               	goto	u12221
  4614  06AF  2EB1               	goto	u12220
  4615  06B0                     u12221:
  4616  06B0  2EB9               	goto	l10054
  4617  06B1                     u12220:
  4618                           	line	1439
  4619                           	
  4620  06B1                     l10052:	
  4621  06B1  3020               	movlw	(020h)
  4622  06B2  120A  118A  2018   	fcall	_putch
              120A  118A         
  4623  06B7  2EB9               	goto	l10054
  4624                           	
  4625  06B8                     l1318:	
  4626  06B8  2EB9               	goto	l10054
  4627                           	line	1443
  4628                           	
  4629  06B9                     l1317:	
  4630                           	
  4631  06B9                     l10054:	
  4632  06B9  30C0               	movlw	low(08C0h)
  4633  06BA  1283               	bcf	status, 5	;RP0=0, select bank0
  4634  06BB  1303               	bcf	status, 6	;RP1=0, select bank0
  4635  06BC  0546               	andwf	(printf@flag),w
  4636  06BD  00B5               	movwf	(??_printf+0)+0
  4637  06BE  3008               	movlw	high(08C0h)
  4638  06BF  0547               	andwf	(printf@flag+1),w
  4639  06C0  00B6               	movwf	1+(??_printf+0)+0
  4640  06C1  3008               	movlw	high(0840h)
  4641  06C2  0636               	xorwf	1+(??_printf+0)+0,w
  4642  06C3  1D03               	skipz
  4643  06C4  2EC7               	goto	u12235
  4644  06C5  3040               	movlw	low(0840h)
  4645  06C6  0635               	xorwf	0+(??_printf+0)+0,w
  4646  06C7                     u12235:
  4647                           
  4648  06C7  1D03               	skipz
  4649  06C8  2ECA               	goto	u12231
  4650  06C9  2ECB               	goto	u12230
  4651  06CA                     u12231:
  4652  06CA  2ED2               	goto	l10058
  4653  06CB                     u12230:
  4654                           	line	1444
  4655                           	
  4656  06CB                     l10056:	
  4657  06CB  3030               	movlw	(030h)
  4658  06CC  120A  118A  2018   	fcall	_putch
              120A  118A         
  4659  06D1  2FB4               	goto	l10086
  4660                           	line	1445
  4661                           	
  4662  06D2                     l1319:	
  4663                           	line	1449
  4664                           	
  4665  06D2                     l10058:	
  4666  06D2  30C0               	movlw	low(08C0h)
  4667  06D3  1283               	bcf	status, 5	;RP0=0, select bank0
  4668  06D4  1303               	bcf	status, 6	;RP1=0, select bank0
  4669  06D5  0546               	andwf	(printf@flag),w
  4670  06D6  00B5               	movwf	(??_printf+0)+0
  4671  06D7  3008               	movlw	high(08C0h)
  4672  06D8  0547               	andwf	(printf@flag+1),w
  4673  06D9  00B6               	movwf	1+(??_printf+0)+0
  4674  06DA  3008               	movlw	high(0880h)
  4675  06DB  0636               	xorwf	1+(??_printf+0)+0,w
  4676  06DC  1D03               	skipz
  4677  06DD  2EE0               	goto	u12245
  4678  06DE  3080               	movlw	low(0880h)
  4679  06DF  0635               	xorwf	0+(??_printf+0)+0,w
  4680  06E0                     u12245:
  4681                           
  4682  06E0  1D03               	skipz
  4683  06E1  2EE3               	goto	u12241
  4684  06E2  2EE4               	goto	u12240
  4685  06E3                     u12241:
  4686  06E3  2FB4               	goto	l10086
  4687  06E4                     u12240:
  4688                           	line	1453
  4689                           	
  4690  06E4                     l10060:	
  4691  06E4  3030               	movlw	(030h)
  4692  06E5  120A  118A  2018   	fcall	_putch
              120A  118A         
  4693                           	line	1455
  4694                           	
  4695  06EA                     l10062:	
  4696  06EA  1283               	bcf	status, 5	;RP0=0, select bank0
  4697  06EB  1303               	bcf	status, 6	;RP1=0, select bank0
  4698  06EC  1AC6               	btfsc	(printf@flag),(5)&7
  4699  06ED  2EEF               	goto	u12251
  4700  06EE  2EF0               	goto	u12250
  4701  06EF                     u12251:
  4702  06EF  2EF5               	goto	l10066
  4703  06F0                     u12250:
  4704                           	
  4705  06F0                     l10064:	
  4706  06F0  3078               	movlw	low(078h)
  4707  06F1  00BA               	movwf	(_printf$1464)
  4708  06F2  3000               	movlw	high(078h)
  4709  06F3  00BB               	movwf	((_printf$1464))+1
  4710  06F4  2EFA               	goto	l10068
  4711                           	
  4712  06F5                     l1323:	
  4713                           	
  4714  06F5                     l10066:	
  4715  06F5  3058               	movlw	low(058h)
  4716  06F6  00BA               	movwf	(_printf$1464)
  4717  06F7  3000               	movlw	high(058h)
  4718  06F8  00BB               	movwf	((_printf$1464))+1
  4719  06F9  2EFA               	goto	l10068
  4720                           	
  4721  06FA                     l1325:	
  4722                           	
  4723  06FA                     l10068:	
  4724  06FA  083A               	movf	(_printf$1464),w
  4725  06FB  120A  118A  2018   	fcall	_putch
              120A  118A         
  4726  0700  2FB4               	goto	l10086
  4727                           	line	1461
  4728                           	
  4729  0701                     l1321:	
  4730  0701  2FB4               	goto	l10086
  4731                           	line	1464
  4732                           	
  4733  0702                     l1320:	
  4734  0702  2FB4               	goto	l10086
  4735                           	
  4736  0703                     l1312:	
  4737                           	line	1469
  4738  0703  2FB4               	goto	l10086
  4739                           	
  4740  0704                     l1327:	
  4741                           	line	1471
  4742  0704  2F9C               	goto	l10082
  4743                           	line	1478
  4744                           	
  4745  0705                     l1329:	
  4746  0705  2F06               	goto	l10070
  4747                           	line	1481
  4748                           	
  4749  0706                     l1330:	
  4750                           	line	1484
  4751                           	
  4752  0706                     l10070:	
  4753  0706  300A               	movlw	low(0Ah)
  4754  0707  1283               	bcf	status, 5	;RP0=0, select bank0
  4755  0708  1303               	bcf	status, 6	;RP1=0, select bank0
  4756  0709  00AD               	movwf	(?___lwmod)
  4757  070A  3000               	movlw	high(0Ah)
  4758  070B  00AE               	movwf	((?___lwmod))+1
  4759  070C  083F               	movf	(printf@prec),w
  4760  070D  00B5               	movwf	(??_printf+0)+0
  4761  070E  0735               	addwf	(??_printf+0)+0,w
  4762  070F  3E0D               	addlw	low((_dpowers-__stringbase))
  4763  0710  0084               	movwf	fsr0
  4764  0711  120A  158A  2000   	fcall	stringdir
              120A  118A         
  4765  0716  00A5               	movwf	(?___lwdiv)
  4766  0717  120A  158A  2000   	fcall	stringdir
              120A  118A         
  4767  071C  00A6               	movwf	(?___lwdiv+1)
  4768  071D  0843               	movf	(printf@_val+1),w
  4769  071E  01A8               	clrf	1+(?___lwdiv)+02h
  4770  071F  07A8               	addwf	1+(?___lwdiv)+02h
  4771  0720  0842               	movf	(printf@_val),w
  4772  0721  01A7               	clrf	0+(?___lwdiv)+02h
  4773  0722  07A7               	addwf	0+(?___lwdiv)+02h
  4774                           
  4775  0723  160A  118A  2004   	fcall	___lwdiv
              120A  118A         
  4776  0728  1283               	bcf	status, 5	;RP0=0, select bank0
  4777  0729  1303               	bcf	status, 6	;RP1=0, select bank0
  4778  072A  0826               	movf	(1+(?___lwdiv)),w
  4779  072B  01B0               	clrf	1+(?___lwmod)+02h
  4780  072C  07B0               	addwf	1+(?___lwmod)+02h
  4781  072D  0825               	movf	(0+(?___lwdiv)),w
  4782  072E  01AF               	clrf	0+(?___lwmod)+02h
  4783  072F  07AF               	addwf	0+(?___lwmod)+02h
  4784                           
  4785  0730  160A  158A  2614   	fcall	___lwmod
              120A  118A         
  4786  0735  1283               	bcf	status, 5	;RP0=0, select bank0
  4787  0736  1303               	bcf	status, 6	;RP1=0, select bank0
  4788  0737  082D               	movf	(0+(?___lwmod)),w
  4789  0738  3E30               	addlw	030h
  4790  0739  00B6               	movwf	(??_printf+1)+0
  4791  073A  0836               	movf	(??_printf+1)+0,w
  4792  073B  00C5               	movwf	(printf@c)
  4793                           	line	1486
  4794  073C  2FAD               	goto	l10084
  4795                           	line	1492
  4796                           	
  4797  073D                     l1332:	
  4798                           	line	1495
  4799  073D  1AC6               	btfsc	(printf@flag),(5)&7
  4800  073E  2F40               	goto	u12261
  4801  073F  2F41               	goto	u12260
  4802  0740                     u12261:
  4803  0740  2F46               	goto	l10074
  4804  0741                     u12260:
  4805                           	
  4806  0741                     l10072:	
  4807  0741  308C               	movlw	((STR_15-__stringbase))&0ffh
  4808  0742  00B5               	movwf	(??_printf+0)+0
  4809  0743  0835               	movf	(??_printf+0)+0,w
  4810  0744  00BC               	movwf	(_printf$1467)
  4811  0745  2F4B               	goto	l10076
  4812                           	
  4813  0746                     l1334:	
  4814                           	
  4815  0746                     l10074:	
  4816  0746  307B               	movlw	((STR_14-__stringbase))&0ffh
  4817  0747  00B5               	movwf	(??_printf+0)+0
  4818  0748  0835               	movf	(??_printf+0)+0,w
  4819  0749  00BC               	movwf	(_printf$1467)
  4820  074A  2F4B               	goto	l10076
  4821                           	
  4822  074B                     l1336:	
  4823                           	
  4824  074B                     l10076:	
  4825  074B  083F               	movf	(printf@prec),w
  4826  074C  00B5               	movwf	(??_printf+0)+0
  4827  074D  0735               	addwf	(??_printf+0)+0,w
  4828  074E  3E17               	addlw	low((_hexpowers-__stringbase))
  4829  074F  0084               	movwf	fsr0
  4830  0750  120A  158A  2000   	fcall	stringdir
              120A  118A         
  4831  0755  00A5               	movwf	(?___lwdiv)
  4832  0756  120A  158A  2000   	fcall	stringdir
              120A  118A         
  4833  075B  00A6               	movwf	(?___lwdiv+1)
  4834  075C  0843               	movf	(printf@_val+1),w
  4835  075D  01A8               	clrf	1+(?___lwdiv)+02h
  4836  075E  07A8               	addwf	1+(?___lwdiv)+02h
  4837  075F  0842               	movf	(printf@_val),w
  4838  0760  01A7               	clrf	0+(?___lwdiv)+02h
  4839  0761  07A7               	addwf	0+(?___lwdiv)+02h
  4840                           
  4841  0762  160A  118A  2004   	fcall	___lwdiv
              120A  118A         
  4842  0767  1283               	bcf	status, 5	;RP0=0, select bank0
  4843  0768  1303               	bcf	status, 6	;RP1=0, select bank0
  4844  0769  0825               	movf	(0+(?___lwdiv)),w
  4845  076A  390F               	andlw	0Fh
  4846  076B  073C               	addwf	(_printf$1467),w
  4847  076C  0084               	movwf	fsr0
  4848  076D  120A  158A  2000   	fcall	stringdir
              120A  118A         
  4849  0772  00B6               	movwf	(??_printf+1)+0
  4850  0773  0836               	movf	(??_printf+1)+0,w
  4851  0774  00C5               	movwf	(printf@c)
  4852                           	line	1502
  4853  0775  2FAD               	goto	l10084
  4854                           	line	1508
  4855                           	
  4856  0776                     l1337:	
  4857                           	line	1510
  4858                           	
  4859  0776                     l10078:	
  4860  0776  083F               	movf	(printf@prec),w
  4861  0777  00B5               	movwf	(??_printf+0)+0
  4862  0778  0735               	addwf	(??_printf+0)+0,w
  4863  0779  3E01               	addlw	low((_octpowers-__stringbase))
  4864  077A  0084               	movwf	fsr0
  4865  077B  120A  158A  2000   	fcall	stringdir
              120A  118A         
  4866  0780  00A5               	movwf	(?___lwdiv)
  4867  0781  120A  158A  2000   	fcall	stringdir
              120A  118A         
  4868  0786  00A6               	movwf	(?___lwdiv+1)
  4869  0787  0843               	movf	(printf@_val+1),w
  4870  0788  01A8               	clrf	1+(?___lwdiv)+02h
  4871  0789  07A8               	addwf	1+(?___lwdiv)+02h
  4872  078A  0842               	movf	(printf@_val),w
  4873  078B  01A7               	clrf	0+(?___lwdiv)+02h
  4874  078C  07A7               	addwf	0+(?___lwdiv)+02h
  4875                           
  4876  078D  160A  118A  2004   	fcall	___lwdiv
              120A  118A         
  4877  0792  1283               	bcf	status, 5	;RP0=0, select bank0
  4878  0793  1303               	bcf	status, 6	;RP1=0, select bank0
  4879  0794  0825               	movf	(0+(?___lwdiv)),w
  4880  0795  3907               	andlw	07h
  4881  0796  3E30               	addlw	030h
  4882  0797  00B6               	movwf	(??_printf+1)+0
  4883  0798  0836               	movf	(??_printf+1)+0,w
  4884  0799  00C5               	movwf	(printf@c)
  4885                           	line	1512
  4886  079A  2FAD               	goto	l10084
  4887                           	line	1515
  4888                           	
  4889  079B                     l10080:	
  4890  079B  2FAD               	goto	l10084
  4891                           	line	1471
  4892                           	
  4893  079C                     l1328:	
  4894                           	
  4895  079C                     l10082:	
  4896  079C  1283               	bcf	status, 5	;RP0=0, select bank0
  4897  079D  1303               	bcf	status, 6	;RP1=0, select bank0
  4898  079E  0846               	movf	(printf@flag),w
  4899  079F  39C0               	andlw	0C0h
  4900                           	; Switch size 1, requested type "space"
  4901                           ; Number of cases is 4, Range of values is 0 to 192
  4902                           ; switch strategies available:
  4903                           ; Name         Instructions Cycles
  4904                           ; simple_byte           13     7 (average)
  4905                           ; jumptable            260     6 (fixed)
  4906                           ; rangetable           197     6 (fixed)
  4907                           ; spacedrange          392     9 (fixed)
  4908                           ; locatedrange         193     3 (fixed)
  4909                           ;	Chosen strategy is simple_byte
  4910                           
  4911                           	opt asmopt_off
  4912  07A0  3A00               	xorlw	0^0	; case 0
  4913  07A1  1903               	skipnz
  4914  07A2  2F06               	goto	l10070
  4915  07A3  3A40               	xorlw	64^0	; case 64
  4916  07A4  1903               	skipnz
  4917  07A5  2F76               	goto	l10078
  4918  07A6  3AC0               	xorlw	128^64	; case 128
  4919  07A7  1903               	skipnz
  4920  07A8  2F3D               	goto	l1332
  4921  07A9  3A40               	xorlw	192^128	; case 192
  4922  07AA  1903               	skipnz
  4923  07AB  2F06               	goto	l10070
  4924  07AC  2FAD               	goto	l10084
  4925                           	opt asmopt_on
  4926                           
  4927                           	line	1515
  4928                           	
  4929  07AD                     l1331:	
  4930                           	line	1516
  4931                           	
  4932  07AD                     l10084:	
  4933  07AD  0845               	movf	(printf@c),w
  4934  07AE  120A  118A  2018   	fcall	_putch
              120A  118A         
  4935  07B3  2FB4               	goto	l10086
  4936                           	line	1517
  4937                           	
  4938  07B4                     l1326:	
  4939                           	line	1469
  4940                           	
  4941  07B4                     l10086:	
  4942  07B4  30FF               	movlw	(-1)
  4943  07B5  1283               	bcf	status, 5	;RP0=0, select bank0
  4944  07B6  1303               	bcf	status, 6	;RP1=0, select bank0
  4945  07B7  00B5               	movwf	(??_printf+0)+0
  4946  07B8  0835               	movf	(??_printf+0)+0,w
  4947  07B9  07BF               	addwf	(printf@prec),f
  4948  07BA  083F               	movf	((printf@prec)),w
  4949  07BB  3AFF               	xorlw	-1
  4950  07BC  1D03               	skipz
  4951  07BD  2FBF               	goto	u12271
  4952  07BE  2FC0               	goto	u12270
  4953  07BF                     u12271:
  4954  07BF  2F9C               	goto	l10082
  4955  07C0                     u12270:
  4956                           	
  4957  07C0                     l1338:	
  4958                           	line	1520
  4959  07C0  1DC6               	btfss	(printf@flag),(3)&7
  4960  07C1  2FC3               	goto	u12281
  4961  07C2  2FC4               	goto	u12280
  4962  07C3                     u12281:
  4963  07C3  2FE9               	goto	l10094
  4964  07C4                     u12280:
  4965                           	
  4966  07C4                     l10088:	
  4967  07C4  0841               	movf	(printf@width+1),w
  4968  07C5  3A80               	xorlw	80h
  4969  07C6  00FF               	movwf	btemp+1
  4970  07C7  3080               	movlw	(high(01h))^80h
  4971  07C8  027F               	subwf	btemp+1,w
  4972  07C9  1D03               	skipz
  4973  07CA  2FCD               	goto	u12295
  4974  07CB  3001               	movlw	low(01h)
  4975  07CC  0240               	subwf	(printf@width),w
  4976  07CD                     u12295:
  4977                           
  4978  07CD  1C03               	skipc
  4979  07CE  2FD0               	goto	u12291
  4980  07CF  2FD1               	goto	u12290
  4981  07D0                     u12291:
  4982  07D0  2FE9               	goto	l10094
  4983  07D1                     u12290:
  4984  07D1  2FD2               	goto	l10090
  4985                           	line	1521
  4986                           	
  4987  07D2                     l1340:	
  4988                           	line	1522
  4989                           	
  4990  07D2                     l10090:	
  4991  07D2  3020               	movlw	(020h)
  4992  07D3  120A  118A  2018   	fcall	_putch
              120A  118A         
  4993                           	line	1523
  4994                           	
  4995  07D8                     l10092:	
  4996  07D8  30FF               	movlw	low(-1)
  4997  07D9  1283               	bcf	status, 5	;RP0=0, select bank0
  4998  07DA  1303               	bcf	status, 6	;RP1=0, select bank0
  4999  07DB  07C0               	addwf	(printf@width),f
  5000  07DC  1803               	skipnc
  5001  07DD  0AC1               	incf	(printf@width+1),f
  5002  07DE  30FF               	movlw	high(-1)
  5003  07DF  07C1               	addwf	(printf@width+1),f
  5004  07E0  0841               	movf	(((printf@width+1))),w
  5005  07E1  0440               	iorwf	(((printf@width))),w
  5006  07E2  1D03               	skipz
  5007  07E3  2FE5               	goto	u12301
  5008  07E4  2FE6               	goto	u12300
  5009  07E5                     u12301:
  5010  07E5  2FD2               	goto	l10090
  5011  07E6                     u12300:
  5012  07E6  2FE9               	goto	l10094
  5013                           	
  5014  07E7                     l1341:	
  5015  07E7  2FE9               	goto	l10094
  5016                           	
  5017  07E8                     l1339:	
  5018  07E8  2FE9               	goto	l10094
  5019                           	line	1525
  5020                           	
  5021  07E9                     l1213:	
  5022                           	line	540
  5023                           	
  5024  07E9                     l10094:	
  5025  07E9  3001               	movlw	01h
  5026  07EA  1283               	bcf	status, 5	;RP0=0, select bank0
  5027  07EB  1303               	bcf	status, 6	;RP1=0, select bank0
  5028  07EC  07BE               	addwf	(printf@f),f
  5029  07ED  30FF               	movlw	-01h
  5030  07EE  073E               	addwf	(printf@f),w
  5031  07EF  0084               	movwf	fsr0
  5032  07F0  120A  158A  2000   	fcall	stringdir
              120A  118A         
  5033  07F5  00B5               	movwf	(??_printf+0)+0
  5034  07F6  0835               	movf	(??_printf+0)+0,w
  5035  07F7  00C5               	movwf	(printf@c)
  5036  07F8  08C5               	movf	((printf@c)),f
  5037  07F9  1D03               	skipz
  5038  07FA  2FFC               	goto	u12311
  5039  07FB  2FFD               	goto	u12310
  5040  07FC                     u12311:
  5041  07FC  2A3F               	goto	l9802
  5042  07FD                     u12310:
  5043  07FD  2FFF               	goto	l1343
  5044                           	
  5045  07FE                     l1342:	
  5046  07FE  2FFF               	goto	l1343
  5047                           	line	1527
  5048                           	
  5049  07FF                     l1240:	
  5050                           	line	1533
  5051                           ;	Return value of _printf is never used
  5052                           	
  5053  07FF                     l1343:	
  5054  07FF  0008               	return
  5055                           	opt stack 0
  5056                           GLOBAL	__end_of_printf
  5057  0800                     	__end_of_printf:
  5058 ;; =============== function _printf ends ============
  5059                           
  5060                           	signat	_printf,602
  5061                           	global	_LCD_print_char
  5062                           psect	text1490,local,class=CODE,delta=2
  5063                           global __ptext1490
  5064  1C30                     __ptext1490:
  5065                           
  5066 ;; *************** function _LCD_print_char *****************
  5067 ;; Defined at:
  5068 ;;		line 174 in file "D:\ELECTRONIC\2016\1. Automated Solar Panel Orientation Setter\Firmware\ver4\lcdV2.h"
  5069 ;; Parameters:    Size  Location     Type
  5070 ;;  row             2   19[BANK0 ] int 
  5071 ;;  column          2   21[BANK0 ] int 
  5072 ;;  print_value     1   23[BANK0 ] unsigned char 
  5073 ;; Auto vars:     Size  Location     Type
  5074 ;;		None
  5075 ;; Return value:  Size  Location     Type
  5076 ;;		None               void
  5077 ;; Registers used:
  5078 ;;		wreg, status,2, status,0, pclath, cstack
  5079 ;; Tracked objects:
  5080 ;;		On entry : 0/0
  5081 ;;		On exit  : 0/0
  5082 ;;		Unchanged: 0/0
  5083 ;; Data sizes:     COMMON   BANK0   BANK1   BANK3   BANK2
  5084 ;;      Params:         0       5       0       0       0
  5085 ;;      Locals:         0       0       0       0       0
  5086 ;;      Temps:          0       1       0       0       0
  5087 ;;      Totals:         0       6       0       0       0
  5088 ;;Total ram usage:        6 bytes
  5089 ;; Hardware stack levels used:    1
  5090 ;; Hardware stack levels required when called:    6
  5091 ;; This function calls:
  5092 ;;		_position
  5093 ;;		_lcd_add
  5094 ;; This function is called by:
  5095 ;;		_LCDTimeUpdate
  5096 ;; This function uses a non-reentrant model
  5097 ;;
  5098                           psect	text1490
  5099                           	file	"D:\ELECTRONIC\2016\1. Automated Solar Panel Orientation Setter\Firmware\ver4\lcdV
                                 2.h"
  5100                           	line	174
  5101                           	global	__size_of_LCD_print_char
  5102  0026                     	__size_of_LCD_print_char	equ	__end_of_LCD_print_char-_LCD_print_char
  5103                           	
  5104  1C30                     _LCD_print_char:	
  5105                           	opt	stack 0
  5106                           ; Regs used in _LCD_print_char: [wreg+status,2+status,0+pclath+cstack]
  5107                           	line	175
  5108                           	
  5109  1C30                     l9790:	
  5110                           ;lcdV2.h: 175: position(row,column);
  5111  1C30  1283               	bcf	status, 5	;RP0=0, select bank0
  5112  1C31  1303               	bcf	status, 6	;RP1=0, select bank0
  5113  1C32  0835               	movf	(LCD_print_char@column),w
  5114  1C33  00B8               	movwf	(??_LCD_print_char+0)+0
  5115  1C34  0838               	movf	(??_LCD_print_char+0)+0,w
  5116  1C35  00A7               	movwf	(?_position)
  5117  1C36  0833               	movf	(LCD_print_char@row),w
  5118  1C37  160A  158A  2591   	fcall	_position
              160A  158A         
  5119                           	line	176
  5120                           	
  5121  1C3C                     l9792:	
  5122                           ;lcdV2.h: 176: RC2 = 1;
  5123  1C3C  1283               	bcf	status, 5	;RP0=0, select bank0
  5124  1C3D  1303               	bcf	status, 6	;RP1=0, select bank0
  5125  1C3E  1507               	bsf	(58/8),(58)&7
  5126                           	line	177
  5127                           	
  5128  1C3F                     l9794:	
  5129                           ;lcdV2.h: 177: _delay(20);
  5130                           	opt asmopt_off
  5131  1C3F  3006               movlw	6
  5132  1C40  00B8               movwf	(??_LCD_print_char+0)+0,f
  5133  1C41                     u12397:
  5134  1C41  0BB8               decfsz	(??_LCD_print_char+0)+0,f
  5135  1C42  2C41               	goto	u12397
  5136  1C43  0064               	clrwdt
  5137                           opt asmopt_on
  5138                           
  5139                           	line	178
  5140                           	
  5141  1C44                     l9796:	
  5142                           ;lcdV2.h: 178: lcd_data = print_value;
  5143  1C44  1283               	bcf	status, 5	;RP0=0, select bank0
  5144  1C45  1303               	bcf	status, 6	;RP1=0, select bank0
  5145  1C46  0837               	movf	(LCD_print_char@print_value),w
  5146  1C47  00B8               	movwf	(??_LCD_print_char+0)+0
  5147  1C48  0838               	movf	(??_LCD_print_char+0)+0,w
  5148  1C49  00DC               	movwf	(_lcd_data)
  5149                           	line	179
  5150                           ;lcdV2.h: 179: lcd_add();
  5151  1C4A  160A  118A  24EA   	fcall	_lcd_add
              160A  158A         
  5152                           	line	180
  5153                           	
  5154  1C4F                     l9798:	
  5155                           ;lcdV2.h: 180: _delay(100);
  5156                           	opt asmopt_off
  5157  1C4F  3021               movlw	33
  5158  1C50  1283               	bcf	status, 5	;RP0=0, select bank0
  5159  1C51  1303               	bcf	status, 6	;RP1=0, select bank0
  5160  1C52  00B8               movwf	(??_LCD_print_char+0)+0,f
  5161  1C53                     u12407:
  5162  1C53  0BB8               decfsz	(??_LCD_print_char+0)+0,f
  5163  1C54  2C53               	goto	u12407
  5164                           opt asmopt_on
  5165                           
  5166                           	line	181
  5167                           	
  5168  1C55                     l825:	
  5169  1C55  0008               	return
  5170                           	opt stack 0
  5171                           GLOBAL	__end_of_LCD_print_char
  5172  1C56                     	__end_of_LCD_print_char:
  5173 ;; =============== function _LCD_print_char ends ============
  5174                           
  5175                           	signat	_LCD_print_char,12408
  5176                           	global	_CheckKeyPad
  5177                           psect	text1491,local,class=CODE,delta=2
  5178                           global __ptext1491
  5179  08EA                     __ptext1491:
  5180                           
  5181 ;; *************** function _CheckKeyPad *****************
  5182 ;; Defined at:
  5183 ;;		line 220 in file "D:\ELECTRONIC\2016\1. Automated Solar Panel Orientation Setter\Firmware\ver4\Automated Solar Panel
        Orientation Setter.c"
  5184 ;; Parameters:    Size  Location     Type
  5185 ;;		None
  5186 ;; Auto vars:     Size  Location     Type
  5187 ;;  rowNo           2   13[BANK0 ] int 
  5188 ;;  colomnNo        2   11[BANK0 ] int 
  5189 ;;  charactor       1   10[BANK0 ] unsigned char 
  5190 ;; Return value:  Size  Location     Type
  5191 ;;                  1    wreg      unsigned char 
  5192 ;; Registers used:
  5193 ;;		wreg, status,2, status,0, pclath, cstack
  5194 ;; Tracked objects:
  5195 ;;		On entry : 0/0
  5196 ;;		On exit  : 0/0
  5197 ;;		Unchanged: 0/0
  5198 ;; Data sizes:     COMMON   BANK0   BANK1   BANK3   BANK2
  5199 ;;      Params:         0       0       0       0       0
  5200 ;;      Locals:         0       5       0       0       0
  5201 ;;      Temps:          0       1       0       0       0
  5202 ;;      Totals:         0       6       0       0       0
  5203 ;;Total ram usage:        6 bytes
  5204 ;; Hardware stack levels used:    1
  5205 ;; Hardware stack levels required when called:    5
  5206 ;; This function calls:
  5207 ;;		_RowNo
  5208 ;;		_ColomnNo
  5209 ;; This function is called by:
  5210 ;;		_CheckMode
  5211 ;;		_KeyToSerial
  5212 ;; This function uses a non-reentrant model
  5213 ;;
  5214                           psect	text1491
  5215                           	file	"D:\ELECTRONIC\2016\1. Automated Solar Panel Orientation Setter\Firmware\ver4\Auto
                                 mated Solar Panel Orientation Setter.c"
  5216                           	line	220
  5217                           	global	__size_of_CheckKeyPad
  5218  01BC                     	__size_of_CheckKeyPad	equ	__end_of_CheckKeyPad-_CheckKeyPad
  5219                           	
  5220  08EA                     _CheckKeyPad:	
  5221                           	opt	stack 1
  5222                           ; Regs used in _CheckKeyPad: [wreg+status,2+status,0+pclath+cstack]
  5223                           	line	221
  5224                           	
  5225  08EA                     l9654:	
  5226                           ;Automated Solar Panel Orientation Setter.c: 221: RC4 = 0; RD5 = 0; RC5=0; RD4=0;
  5227  08EA  1283               	bcf	status, 5	;RP0=0, select bank0
  5228  08EB  1303               	bcf	status, 6	;RP1=0, select bank0
  5229  08EC  1207               	bcf	(60/8),(60)&7
  5230  08ED  1288               	bcf	(69/8),(69)&7
  5231  08EE  1287               	bcf	(61/8),(61)&7
  5232  08EF  1208               	bcf	(68/8),(68)&7
  5233                           	line	222
  5234                           	
  5235  08F0                     l9656:	
  5236                           ;Automated Solar Panel Orientation Setter.c: 222: char charactor = '$';
  5237  08F0  3024               	movlw	(024h)
  5238  08F1  00A9               	movwf	(??_CheckKeyPad+0)+0
  5239  08F2  0829               	movf	(??_CheckKeyPad+0)+0,w
  5240  08F3  00AA               	movwf	(CheckKeyPad@charactor)
  5241                           	line	223
  5242                           	
  5243  08F4                     l9658:	
  5244                           ;Automated Solar Panel Orientation Setter.c: 223: int colomnNo = 0;
  5245  08F4  01AB               	clrf	(CheckKeyPad@colomnNo)
  5246  08F5  01AC               	clrf	(CheckKeyPad@colomnNo+1)
  5247                           	line	224
  5248                           	
  5249  08F6                     l9660:	
  5250                           ;Automated Solar Panel Orientation Setter.c: 224: int rowNo = RowNo();
  5251  08F6  160A  158A  24AE   	fcall	_RowNo
              120A  158A         
  5252  08FB  1283               	bcf	status, 5	;RP0=0, select bank0
  5253  08FC  1303               	bcf	status, 6	;RP1=0, select bank0
  5254  08FD  0826               	movf	(1+(?_RowNo)),w
  5255  08FE  01AE               	clrf	(CheckKeyPad@rowNo+1)
  5256  08FF  07AE               	addwf	(CheckKeyPad@rowNo+1)
  5257  0900  0825               	movf	(0+(?_RowNo)),w
  5258  0901  01AD               	clrf	(CheckKeyPad@rowNo)
  5259  0902  07AD               	addwf	(CheckKeyPad@rowNo)
  5260                           
  5261                           	line	225
  5262                           	
  5263  0903                     l9662:	
  5264                           ;Automated Solar Panel Orientation Setter.c: 225: if (rowNo != 0){
  5265  0903  082E               	movf	(CheckKeyPad@rowNo+1),w
  5266  0904  042D               	iorwf	(CheckKeyPad@rowNo),w
  5267  0905  1903               	skipnz
  5268  0906  2908               	goto	u11301
  5269  0907  2909               	goto	u11300
  5270  0908                     u11301:
  5271  0908  2A64               	goto	l1025
  5272  0909                     u11300:
  5273                           	line	226
  5274                           	
  5275  0909                     l9664:	
  5276                           ;Automated Solar Panel Orientation Setter.c: 226: colomnNo = ColomnNo(rowNo);
  5277  0909  082E               	movf	(CheckKeyPad@rowNo+1),w
  5278  090A  01A6               	clrf	(?_ColomnNo+1)
  5279  090B  07A6               	addwf	(?_ColomnNo+1)
  5280  090C  082D               	movf	(CheckKeyPad@rowNo),w
  5281  090D  01A5               	clrf	(?_ColomnNo)
  5282  090E  07A5               	addwf	(?_ColomnNo)
  5283                           
  5284  090F  160A  118A  26F3   	fcall	_ColomnNo
              120A  158A         
  5285  0914  1283               	bcf	status, 5	;RP0=0, select bank0
  5286  0915  1303               	bcf	status, 6	;RP1=0, select bank0
  5287  0916  0826               	movf	(1+(?_ColomnNo)),w
  5288  0917  01AC               	clrf	(CheckKeyPad@colomnNo+1)
  5289  0918  07AC               	addwf	(CheckKeyPad@colomnNo+1)
  5290  0919  0825               	movf	(0+(?_ColomnNo)),w
  5291  091A  01AB               	clrf	(CheckKeyPad@colomnNo)
  5292  091B  07AB               	addwf	(CheckKeyPad@colomnNo)
  5293                           
  5294                           	line	227
  5295                           	
  5296  091C                     l9666:	
  5297                           ;Automated Solar Panel Orientation Setter.c: 227: RC4 = 0; RD5 = 0; RC5=0; RD4=0;
  5298  091C  1207               	bcf	(60/8),(60)&7
  5299                           	
  5300  091D                     l9668:	
  5301  091D  1288               	bcf	(69/8),(69)&7
  5302                           	
  5303  091E                     l9670:	
  5304  091E  1287               	bcf	(61/8),(61)&7
  5305                           	
  5306  091F                     l9672:	
  5307  091F  1208               	bcf	(68/8),(68)&7
  5308                           	line	228
  5309                           	
  5310  0920                     l9674:	
  5311                           ;Automated Solar Panel Orientation Setter.c: 228: if(colomnNo==1 && rowNo == 1) characto
                                 r = '1';
  5312  0920  3001               	movlw	01h
  5313  0921  062B               	xorwf	(CheckKeyPad@colomnNo),w
  5314  0922  042C               	iorwf	(CheckKeyPad@colomnNo+1),w
  5315  0923  1D03               	skipz
  5316  0924  2926               	goto	u11311
  5317  0925  2927               	goto	u11310
  5318  0926                     u11311:
  5319  0926  2933               	goto	l9680
  5320  0927                     u11310:
  5321                           	
  5322  0927                     l9676:	
  5323  0927  3001               	movlw	01h
  5324  0928  062D               	xorwf	(CheckKeyPad@rowNo),w
  5325  0929  042E               	iorwf	(CheckKeyPad@rowNo+1),w
  5326  092A  1D03               	skipz
  5327  092B  292D               	goto	u11321
  5328  092C  292E               	goto	u11320
  5329  092D                     u11321:
  5330  092D  2933               	goto	l9680
  5331  092E                     u11320:
  5332                           	
  5333  092E                     l9678:	
  5334  092E  3031               	movlw	(031h)
  5335  092F  00A9               	movwf	(??_CheckKeyPad+0)+0
  5336  0930  0829               	movf	(??_CheckKeyPad+0)+0,w
  5337  0931  00AA               	movwf	(CheckKeyPad@charactor)
  5338  0932  2A64               	goto	l1025
  5339                           	line	229
  5340                           	
  5341  0933                     l1026:	
  5342                           	
  5343  0933                     l9680:	
  5344                           ;Automated Solar Panel Orientation Setter.c: 229: else if(colomnNo==1 && rowNo == 2) cha
                                 ractor = '2';
  5345  0933  3001               	movlw	01h
  5346  0934  062B               	xorwf	(CheckKeyPad@colomnNo),w
  5347  0935  042C               	iorwf	(CheckKeyPad@colomnNo+1),w
  5348  0936  1D03               	skipz
  5349  0937  2939               	goto	u11331
  5350  0938  293A               	goto	u11330
  5351  0939                     u11331:
  5352  0939  2946               	goto	l9686
  5353  093A                     u11330:
  5354                           	
  5355  093A                     l9682:	
  5356  093A  3002               	movlw	02h
  5357  093B  062D               	xorwf	(CheckKeyPad@rowNo),w
  5358  093C  042E               	iorwf	(CheckKeyPad@rowNo+1),w
  5359  093D  1D03               	skipz
  5360  093E  2940               	goto	u11341
  5361  093F  2941               	goto	u11340
  5362  0940                     u11341:
  5363  0940  2946               	goto	l9686
  5364  0941                     u11340:
  5365                           	
  5366  0941                     l9684:	
  5367  0941  3032               	movlw	(032h)
  5368  0942  00A9               	movwf	(??_CheckKeyPad+0)+0
  5369  0943  0829               	movf	(??_CheckKeyPad+0)+0,w
  5370  0944  00AA               	movwf	(CheckKeyPad@charactor)
  5371  0945  2A64               	goto	l1025
  5372                           	line	230
  5373                           	
  5374  0946                     l1028:	
  5375                           	
  5376  0946                     l9686:	
  5377                           ;Automated Solar Panel Orientation Setter.c: 230: else if(colomnNo==1 && rowNo == 3) cha
                                 ractor = '3';
  5378  0946  3001               	movlw	01h
  5379  0947  062B               	xorwf	(CheckKeyPad@colomnNo),w
  5380  0948  042C               	iorwf	(CheckKeyPad@colomnNo+1),w
  5381  0949  1D03               	skipz
  5382  094A  294C               	goto	u11351
  5383  094B  294D               	goto	u11350
  5384  094C                     u11351:
  5385  094C  2959               	goto	l9692
  5386  094D                     u11350:
  5387                           	
  5388  094D                     l9688:	
  5389  094D  3003               	movlw	03h
  5390  094E  062D               	xorwf	(CheckKeyPad@rowNo),w
  5391  094F  042E               	iorwf	(CheckKeyPad@rowNo+1),w
  5392  0950  1D03               	skipz
  5393  0951  2953               	goto	u11361
  5394  0952  2954               	goto	u11360
  5395  0953                     u11361:
  5396  0953  2959               	goto	l9692
  5397  0954                     u11360:
  5398                           	
  5399  0954                     l9690:	
  5400  0954  3033               	movlw	(033h)
  5401  0955  00A9               	movwf	(??_CheckKeyPad+0)+0
  5402  0956  0829               	movf	(??_CheckKeyPad+0)+0,w
  5403  0957  00AA               	movwf	(CheckKeyPad@charactor)
  5404  0958  2A64               	goto	l1025
  5405                           	line	231
  5406                           	
  5407  0959                     l1030:	
  5408                           	
  5409  0959                     l9692:	
  5410                           ;Automated Solar Panel Orientation Setter.c: 231: else if(colomnNo==1 && rowNo == 4) cha
                                 ractor = 'A';
  5411  0959  3001               	movlw	01h
  5412  095A  062B               	xorwf	(CheckKeyPad@colomnNo),w
  5413  095B  042C               	iorwf	(CheckKeyPad@colomnNo+1),w
  5414  095C  1D03               	skipz
  5415  095D  295F               	goto	u11371
  5416  095E  2960               	goto	u11370
  5417  095F                     u11371:
  5418  095F  296C               	goto	l9698
  5419  0960                     u11370:
  5420                           	
  5421  0960                     l9694:	
  5422  0960  3004               	movlw	04h
  5423  0961  062D               	xorwf	(CheckKeyPad@rowNo),w
  5424  0962  042E               	iorwf	(CheckKeyPad@rowNo+1),w
  5425  0963  1D03               	skipz
  5426  0964  2966               	goto	u11381
  5427  0965  2967               	goto	u11380
  5428  0966                     u11381:
  5429  0966  296C               	goto	l9698
  5430  0967                     u11380:
  5431                           	
  5432  0967                     l9696:	
  5433  0967  3041               	movlw	(041h)
  5434  0968  00A9               	movwf	(??_CheckKeyPad+0)+0
  5435  0969  0829               	movf	(??_CheckKeyPad+0)+0,w
  5436  096A  00AA               	movwf	(CheckKeyPad@charactor)
  5437  096B  2A64               	goto	l1025
  5438                           	line	233
  5439                           	
  5440  096C                     l1032:	
  5441                           	
  5442  096C                     l9698:	
  5443                           ;Automated Solar Panel Orientation Setter.c: 233: else if(colomnNo==2 && rowNo == 1) cha
                                 ractor = '4';
  5444  096C  3002               	movlw	02h
  5445  096D  062B               	xorwf	(CheckKeyPad@colomnNo),w
  5446  096E  042C               	iorwf	(CheckKeyPad@colomnNo+1),w
  5447  096F  1D03               	skipz
  5448  0970  2972               	goto	u11391
  5449  0971  2973               	goto	u11390
  5450  0972                     u11391:
  5451  0972  297F               	goto	l9704
  5452  0973                     u11390:
  5453                           	
  5454  0973                     l9700:	
  5455  0973  3001               	movlw	01h
  5456  0974  062D               	xorwf	(CheckKeyPad@rowNo),w
  5457  0975  042E               	iorwf	(CheckKeyPad@rowNo+1),w
  5458  0976  1D03               	skipz
  5459  0977  2979               	goto	u11401
  5460  0978  297A               	goto	u11400
  5461  0979                     u11401:
  5462  0979  297F               	goto	l9704
  5463  097A                     u11400:
  5464                           	
  5465  097A                     l9702:	
  5466  097A  3034               	movlw	(034h)
  5467  097B  00A9               	movwf	(??_CheckKeyPad+0)+0
  5468  097C  0829               	movf	(??_CheckKeyPad+0)+0,w
  5469  097D  00AA               	movwf	(CheckKeyPad@charactor)
  5470  097E  2A64               	goto	l1025
  5471                           	line	234
  5472                           	
  5473  097F                     l1034:	
  5474                           	
  5475  097F                     l9704:	
  5476                           ;Automated Solar Panel Orientation Setter.c: 234: else if(colomnNo==2 && rowNo == 2) cha
                                 ractor = '5';
  5477  097F  3002               	movlw	02h
  5478  0980  062B               	xorwf	(CheckKeyPad@colomnNo),w
  5479  0981  042C               	iorwf	(CheckKeyPad@colomnNo+1),w
  5480  0982  1D03               	skipz
  5481  0983  2985               	goto	u11411
  5482  0984  2986               	goto	u11410
  5483  0985                     u11411:
  5484  0985  2992               	goto	l9710
  5485  0986                     u11410:
  5486                           	
  5487  0986                     l9706:	
  5488  0986  3002               	movlw	02h
  5489  0987  062D               	xorwf	(CheckKeyPad@rowNo),w
  5490  0988  042E               	iorwf	(CheckKeyPad@rowNo+1),w
  5491  0989  1D03               	skipz
  5492  098A  298C               	goto	u11421
  5493  098B  298D               	goto	u11420
  5494  098C                     u11421:
  5495  098C  2992               	goto	l9710
  5496  098D                     u11420:
  5497                           	
  5498  098D                     l9708:	
  5499  098D  3035               	movlw	(035h)
  5500  098E  00A9               	movwf	(??_CheckKeyPad+0)+0
  5501  098F  0829               	movf	(??_CheckKeyPad+0)+0,w
  5502  0990  00AA               	movwf	(CheckKeyPad@charactor)
  5503  0991  2A64               	goto	l1025
  5504                           	line	235
  5505                           	
  5506  0992                     l1036:	
  5507                           	
  5508  0992                     l9710:	
  5509                           ;Automated Solar Panel Orientation Setter.c: 235: else if(colomnNo==2 && rowNo == 3) cha
                                 ractor = '6';
  5510  0992  3002               	movlw	02h
  5511  0993  062B               	xorwf	(CheckKeyPad@colomnNo),w
  5512  0994  042C               	iorwf	(CheckKeyPad@colomnNo+1),w
  5513  0995  1D03               	skipz
  5514  0996  2998               	goto	u11431
  5515  0997  2999               	goto	u11430
  5516  0998                     u11431:
  5517  0998  29A5               	goto	l9716
  5518  0999                     u11430:
  5519                           	
  5520  0999                     l9712:	
  5521  0999  3003               	movlw	03h
  5522  099A  062D               	xorwf	(CheckKeyPad@rowNo),w
  5523  099B  042E               	iorwf	(CheckKeyPad@rowNo+1),w
  5524  099C  1D03               	skipz
  5525  099D  299F               	goto	u11441
  5526  099E  29A0               	goto	u11440
  5527  099F                     u11441:
  5528  099F  29A5               	goto	l9716
  5529  09A0                     u11440:
  5530                           	
  5531  09A0                     l9714:	
  5532  09A0  3036               	movlw	(036h)
  5533  09A1  00A9               	movwf	(??_CheckKeyPad+0)+0
  5534  09A2  0829               	movf	(??_CheckKeyPad+0)+0,w
  5535  09A3  00AA               	movwf	(CheckKeyPad@charactor)
  5536  09A4  2A64               	goto	l1025
  5537                           	line	236
  5538                           	
  5539  09A5                     l1038:	
  5540                           	
  5541  09A5                     l9716:	
  5542                           ;Automated Solar Panel Orientation Setter.c: 236: else if(colomnNo==2 && rowNo == 4) cha
                                 ractor = 'B';
  5543  09A5  3002               	movlw	02h
  5544  09A6  062B               	xorwf	(CheckKeyPad@colomnNo),w
  5545  09A7  042C               	iorwf	(CheckKeyPad@colomnNo+1),w
  5546  09A8  1D03               	skipz
  5547  09A9  29AB               	goto	u11451
  5548  09AA  29AC               	goto	u11450
  5549  09AB                     u11451:
  5550  09AB  29B8               	goto	l9722
  5551  09AC                     u11450:
  5552                           	
  5553  09AC                     l9718:	
  5554  09AC  3004               	movlw	04h
  5555  09AD  062D               	xorwf	(CheckKeyPad@rowNo),w
  5556  09AE  042E               	iorwf	(CheckKeyPad@rowNo+1),w
  5557  09AF  1D03               	skipz
  5558  09B0  29B2               	goto	u11461
  5559  09B1  29B3               	goto	u11460
  5560  09B2                     u11461:
  5561  09B2  29B8               	goto	l9722
  5562  09B3                     u11460:
  5563                           	
  5564  09B3                     l9720:	
  5565  09B3  3042               	movlw	(042h)
  5566  09B4  00A9               	movwf	(??_CheckKeyPad+0)+0
  5567  09B5  0829               	movf	(??_CheckKeyPad+0)+0,w
  5568  09B6  00AA               	movwf	(CheckKeyPad@charactor)
  5569  09B7  2A64               	goto	l1025
  5570                           	line	238
  5571                           	
  5572  09B8                     l1040:	
  5573                           	
  5574  09B8                     l9722:	
  5575                           ;Automated Solar Panel Orientation Setter.c: 238: else if(colomnNo==3 && rowNo == 1) cha
                                 ractor = '7';
  5576  09B8  3003               	movlw	03h
  5577  09B9  062B               	xorwf	(CheckKeyPad@colomnNo),w
  5578  09BA  042C               	iorwf	(CheckKeyPad@colomnNo+1),w
  5579  09BB  1D03               	skipz
  5580  09BC  29BE               	goto	u11471
  5581  09BD  29BF               	goto	u11470
  5582  09BE                     u11471:
  5583  09BE  29CB               	goto	l9728
  5584  09BF                     u11470:
  5585                           	
  5586  09BF                     l9724:	
  5587  09BF  3001               	movlw	01h
  5588  09C0  062D               	xorwf	(CheckKeyPad@rowNo),w
  5589  09C1  042E               	iorwf	(CheckKeyPad@rowNo+1),w
  5590  09C2  1D03               	skipz
  5591  09C3  29C5               	goto	u11481
  5592  09C4  29C6               	goto	u11480
  5593  09C5                     u11481:
  5594  09C5  29CB               	goto	l9728
  5595  09C6                     u11480:
  5596                           	
  5597  09C6                     l9726:	
  5598  09C6  3037               	movlw	(037h)
  5599  09C7  00A9               	movwf	(??_CheckKeyPad+0)+0
  5600  09C8  0829               	movf	(??_CheckKeyPad+0)+0,w
  5601  09C9  00AA               	movwf	(CheckKeyPad@charactor)
  5602  09CA  2A64               	goto	l1025
  5603                           	line	239
  5604                           	
  5605  09CB                     l1042:	
  5606                           	
  5607  09CB                     l9728:	
  5608                           ;Automated Solar Panel Orientation Setter.c: 239: else if(colomnNo==3 && rowNo == 2) cha
                                 ractor = '8';
  5609  09CB  3003               	movlw	03h
  5610  09CC  062B               	xorwf	(CheckKeyPad@colomnNo),w
  5611  09CD  042C               	iorwf	(CheckKeyPad@colomnNo+1),w
  5612  09CE  1D03               	skipz
  5613  09CF  29D1               	goto	u11491
  5614  09D0  29D2               	goto	u11490
  5615  09D1                     u11491:
  5616  09D1  29DE               	goto	l9734
  5617  09D2                     u11490:
  5618                           	
  5619  09D2                     l9730:	
  5620  09D2  3002               	movlw	02h
  5621  09D3  062D               	xorwf	(CheckKeyPad@rowNo),w
  5622  09D4  042E               	iorwf	(CheckKeyPad@rowNo+1),w
  5623  09D5  1D03               	skipz
  5624  09D6  29D8               	goto	u11501
  5625  09D7  29D9               	goto	u11500
  5626  09D8                     u11501:
  5627  09D8  29DE               	goto	l9734
  5628  09D9                     u11500:
  5629                           	
  5630  09D9                     l9732:	
  5631  09D9  3038               	movlw	(038h)
  5632  09DA  00A9               	movwf	(??_CheckKeyPad+0)+0
  5633  09DB  0829               	movf	(??_CheckKeyPad+0)+0,w
  5634  09DC  00AA               	movwf	(CheckKeyPad@charactor)
  5635  09DD  2A64               	goto	l1025
  5636                           	line	240
  5637                           	
  5638  09DE                     l1044:	
  5639                           	
  5640  09DE                     l9734:	
  5641                           ;Automated Solar Panel Orientation Setter.c: 240: else if(colomnNo==3 && rowNo == 3) cha
                                 ractor = '9';
  5642  09DE  3003               	movlw	03h
  5643  09DF  062B               	xorwf	(CheckKeyPad@colomnNo),w
  5644  09E0  042C               	iorwf	(CheckKeyPad@colomnNo+1),w
  5645  09E1  1D03               	skipz
  5646  09E2  29E4               	goto	u11511
  5647  09E3  29E5               	goto	u11510
  5648  09E4                     u11511:
  5649  09E4  29F1               	goto	l9740
  5650  09E5                     u11510:
  5651                           	
  5652  09E5                     l9736:	
  5653  09E5  3003               	movlw	03h
  5654  09E6  062D               	xorwf	(CheckKeyPad@rowNo),w
  5655  09E7  042E               	iorwf	(CheckKeyPad@rowNo+1),w
  5656  09E8  1D03               	skipz
  5657  09E9  29EB               	goto	u11521
  5658  09EA  29EC               	goto	u11520
  5659  09EB                     u11521:
  5660  09EB  29F1               	goto	l9740
  5661  09EC                     u11520:
  5662                           	
  5663  09EC                     l9738:	
  5664  09EC  3039               	movlw	(039h)
  5665  09ED  00A9               	movwf	(??_CheckKeyPad+0)+0
  5666  09EE  0829               	movf	(??_CheckKeyPad+0)+0,w
  5667  09EF  00AA               	movwf	(CheckKeyPad@charactor)
  5668  09F0  2A64               	goto	l1025
  5669                           	line	241
  5670                           	
  5671  09F1                     l1046:	
  5672                           	
  5673  09F1                     l9740:	
  5674                           ;Automated Solar Panel Orientation Setter.c: 241: else if(colomnNo==3 && rowNo == 4) cha
                                 ractor = 'C';
  5675  09F1  3003               	movlw	03h
  5676  09F2  062B               	xorwf	(CheckKeyPad@colomnNo),w
  5677  09F3  042C               	iorwf	(CheckKeyPad@colomnNo+1),w
  5678  09F4  1D03               	skipz
  5679  09F5  29F7               	goto	u11531
  5680  09F6  29F8               	goto	u11530
  5681  09F7                     u11531:
  5682  09F7  2A04               	goto	l9746
  5683  09F8                     u11530:
  5684                           	
  5685  09F8                     l9742:	
  5686  09F8  3004               	movlw	04h
  5687  09F9  062D               	xorwf	(CheckKeyPad@rowNo),w
  5688  09FA  042E               	iorwf	(CheckKeyPad@rowNo+1),w
  5689  09FB  1D03               	skipz
  5690  09FC  29FE               	goto	u11541
  5691  09FD  29FF               	goto	u11540
  5692  09FE                     u11541:
  5693  09FE  2A04               	goto	l9746
  5694  09FF                     u11540:
  5695                           	
  5696  09FF                     l9744:	
  5697  09FF  3043               	movlw	(043h)
  5698  0A00  00A9               	movwf	(??_CheckKeyPad+0)+0
  5699  0A01  0829               	movf	(??_CheckKeyPad+0)+0,w
  5700  0A02  00AA               	movwf	(CheckKeyPad@charactor)
  5701  0A03  2A64               	goto	l1025
  5702                           	line	243
  5703                           	
  5704  0A04                     l1048:	
  5705                           	
  5706  0A04                     l9746:	
  5707                           ;Automated Solar Panel Orientation Setter.c: 243: else if(colomnNo==4 && rowNo == 1) cha
                                 ractor = '*';
  5708  0A04  3004               	movlw	04h
  5709  0A05  062B               	xorwf	(CheckKeyPad@colomnNo),w
  5710  0A06  042C               	iorwf	(CheckKeyPad@colomnNo+1),w
  5711  0A07  1D03               	skipz
  5712  0A08  2A0A               	goto	u11551
  5713  0A09  2A0B               	goto	u11550
  5714  0A0A                     u11551:
  5715  0A0A  2A17               	goto	l9752
  5716  0A0B                     u11550:
  5717                           	
  5718  0A0B                     l9748:	
  5719  0A0B  3001               	movlw	01h
  5720  0A0C  062D               	xorwf	(CheckKeyPad@rowNo),w
  5721  0A0D  042E               	iorwf	(CheckKeyPad@rowNo+1),w
  5722  0A0E  1D03               	skipz
  5723  0A0F  2A11               	goto	u11561
  5724  0A10  2A12               	goto	u11560
  5725  0A11                     u11561:
  5726  0A11  2A17               	goto	l9752
  5727  0A12                     u11560:
  5728                           	
  5729  0A12                     l9750:	
  5730  0A12  302A               	movlw	(02Ah)
  5731  0A13  00A9               	movwf	(??_CheckKeyPad+0)+0
  5732  0A14  0829               	movf	(??_CheckKeyPad+0)+0,w
  5733  0A15  00AA               	movwf	(CheckKeyPad@charactor)
  5734  0A16  2A64               	goto	l1025
  5735                           	line	244
  5736                           	
  5737  0A17                     l1050:	
  5738                           	
  5739  0A17                     l9752:	
  5740                           ;Automated Solar Panel Orientation Setter.c: 244: else if(colomnNo==4 && rowNo == 2) cha
                                 ractor = '0';
  5741  0A17  3004               	movlw	04h
  5742  0A18  062B               	xorwf	(CheckKeyPad@colomnNo),w
  5743  0A19  042C               	iorwf	(CheckKeyPad@colomnNo+1),w
  5744  0A1A  1D03               	skipz
  5745  0A1B  2A1D               	goto	u11571
  5746  0A1C  2A1E               	goto	u11570
  5747  0A1D                     u11571:
  5748  0A1D  2A2A               	goto	l9758
  5749  0A1E                     u11570:
  5750                           	
  5751  0A1E                     l9754:	
  5752  0A1E  3002               	movlw	02h
  5753  0A1F  062D               	xorwf	(CheckKeyPad@rowNo),w
  5754  0A20  042E               	iorwf	(CheckKeyPad@rowNo+1),w
  5755  0A21  1D03               	skipz
  5756  0A22  2A24               	goto	u11581
  5757  0A23  2A25               	goto	u11580
  5758  0A24                     u11581:
  5759  0A24  2A2A               	goto	l9758
  5760  0A25                     u11580:
  5761                           	
  5762  0A25                     l9756:	
  5763  0A25  3030               	movlw	(030h)
  5764  0A26  00A9               	movwf	(??_CheckKeyPad+0)+0
  5765  0A27  0829               	movf	(??_CheckKeyPad+0)+0,w
  5766  0A28  00AA               	movwf	(CheckKeyPad@charactor)
  5767  0A29  2A64               	goto	l1025
  5768                           	line	245
  5769                           	
  5770  0A2A                     l1052:	
  5771                           	
  5772  0A2A                     l9758:	
  5773                           ;Automated Solar Panel Orientation Setter.c: 245: else if(colomnNo==4 && rowNo == 3) cha
                                 ractor = '#';
  5774  0A2A  3004               	movlw	04h
  5775  0A2B  062B               	xorwf	(CheckKeyPad@colomnNo),w
  5776  0A2C  042C               	iorwf	(CheckKeyPad@colomnNo+1),w
  5777  0A2D  1D03               	skipz
  5778  0A2E  2A30               	goto	u11591
  5779  0A2F  2A31               	goto	u11590
  5780  0A30                     u11591:
  5781  0A30  2A3D               	goto	l9764
  5782  0A31                     u11590:
  5783                           	
  5784  0A31                     l9760:	
  5785  0A31  3003               	movlw	03h
  5786  0A32  062D               	xorwf	(CheckKeyPad@rowNo),w
  5787  0A33  042E               	iorwf	(CheckKeyPad@rowNo+1),w
  5788  0A34  1D03               	skipz
  5789  0A35  2A37               	goto	u11601
  5790  0A36  2A38               	goto	u11600
  5791  0A37                     u11601:
  5792  0A37  2A3D               	goto	l9764
  5793  0A38                     u11600:
  5794                           	
  5795  0A38                     l9762:	
  5796  0A38  3023               	movlw	(023h)
  5797  0A39  00A9               	movwf	(??_CheckKeyPad+0)+0
  5798  0A3A  0829               	movf	(??_CheckKeyPad+0)+0,w
  5799  0A3B  00AA               	movwf	(CheckKeyPad@charactor)
  5800  0A3C  2A64               	goto	l1025
  5801                           	line	246
  5802                           	
  5803  0A3D                     l1054:	
  5804                           	
  5805  0A3D                     l9764:	
  5806                           ;Automated Solar Panel Orientation Setter.c: 246: else if(colomnNo==4 && rowNo == 4) cha
                                 ractor = 'D';
  5807  0A3D  3004               	movlw	04h
  5808  0A3E  062B               	xorwf	(CheckKeyPad@colomnNo),w
  5809  0A3F  042C               	iorwf	(CheckKeyPad@colomnNo+1),w
  5810  0A40  1D03               	skipz
  5811  0A41  2A43               	goto	u11611
  5812  0A42  2A44               	goto	u11610
  5813  0A43                     u11611:
  5814  0A43  2A50               	goto	l9770
  5815  0A44                     u11610:
  5816                           	
  5817  0A44                     l9766:	
  5818  0A44  3004               	movlw	04h
  5819  0A45  062D               	xorwf	(CheckKeyPad@rowNo),w
  5820  0A46  042E               	iorwf	(CheckKeyPad@rowNo+1),w
  5821  0A47  1D03               	skipz
  5822  0A48  2A4A               	goto	u11621
  5823  0A49  2A4B               	goto	u11620
  5824  0A4A                     u11621:
  5825  0A4A  2A50               	goto	l9770
  5826  0A4B                     u11620:
  5827                           	
  5828  0A4B                     l9768:	
  5829  0A4B  3044               	movlw	(044h)
  5830  0A4C  00A9               	movwf	(??_CheckKeyPad+0)+0
  5831  0A4D  0829               	movf	(??_CheckKeyPad+0)+0,w
  5832  0A4E  00AA               	movwf	(CheckKeyPad@charactor)
  5833  0A4F  2A64               	goto	l1025
  5834                           	line	248
  5835                           	
  5836  0A50                     l1056:	
  5837                           	
  5838  0A50                     l9770:	
  5839                           ;Automated Solar Panel Orientation Setter.c: 248: else charactor = '@';
  5840  0A50  3040               	movlw	(040h)
  5841  0A51  00A9               	movwf	(??_CheckKeyPad+0)+0
  5842  0A52  0829               	movf	(??_CheckKeyPad+0)+0,w
  5843  0A53  00AA               	movwf	(CheckKeyPad@charactor)
  5844  0A54  2A64               	goto	l1025
  5845                           	
  5846  0A55                     l1057:	
  5847  0A55  2A64               	goto	l1025
  5848                           	
  5849  0A56                     l1055:	
  5850  0A56  2A64               	goto	l1025
  5851                           	
  5852  0A57                     l1053:	
  5853  0A57  2A64               	goto	l1025
  5854                           	
  5855  0A58                     l1051:	
  5856  0A58  2A64               	goto	l1025
  5857                           	
  5858  0A59                     l1049:	
  5859  0A59  2A64               	goto	l1025
  5860                           	
  5861  0A5A                     l1047:	
  5862  0A5A  2A64               	goto	l1025
  5863                           	
  5864  0A5B                     l1045:	
  5865  0A5B  2A64               	goto	l1025
  5866                           	
  5867  0A5C                     l1043:	
  5868  0A5C  2A64               	goto	l1025
  5869                           	
  5870  0A5D                     l1041:	
  5871  0A5D  2A64               	goto	l1025
  5872                           	
  5873  0A5E                     l1039:	
  5874  0A5E  2A64               	goto	l1025
  5875                           	
  5876  0A5F                     l1037:	
  5877  0A5F  2A64               	goto	l1025
  5878                           	
  5879  0A60                     l1035:	
  5880  0A60  2A64               	goto	l1025
  5881                           	
  5882  0A61                     l1033:	
  5883  0A61  2A64               	goto	l1025
  5884                           	
  5885  0A62                     l1031:	
  5886  0A62  2A64               	goto	l1025
  5887                           	
  5888  0A63                     l1029:	
  5889  0A63  2A64               	goto	l1025
  5890                           	
  5891  0A64                     l1027:	
  5892                           	line	249
  5893                           	
  5894  0A64                     l1025:	
  5895                           	line	250
  5896                           ;Automated Solar Panel Orientation Setter.c: 249: }
  5897                           ;Automated Solar Panel Orientation Setter.c: 250: if(rowNo==1) while(RD2==0);
  5898  0A64  3001               	movlw	01h
  5899  0A65  062D               	xorwf	(CheckKeyPad@rowNo),w
  5900  0A66  042E               	iorwf	(CheckKeyPad@rowNo+1),w
  5901  0A67  1D03               	skipz
  5902  0A68  2A6A               	goto	u11631
  5903  0A69  2A6B               	goto	u11630
  5904  0A6A                     u11631:
  5905  0A6A  2A73               	goto	l9774
  5906  0A6B                     u11630:
  5907  0A6B  2A6D               	goto	l1059
  5908                           	
  5909  0A6C                     l9772:	
  5910  0A6C  2A6D               	goto	l1059
  5911                           	
  5912  0A6D                     l1060:	
  5913                           	
  5914  0A6D                     l1059:	
  5915  0A6D  1D08               	btfss	(66/8),(66)&7
  5916  0A6E  2A70               	goto	u11641
  5917  0A6F  2A71               	goto	u11640
  5918  0A70                     u11641:
  5919  0A70  2A6D               	goto	l1059
  5920  0A71                     u11640:
  5921  0A71  2AA3               	goto	l9786
  5922                           	
  5923  0A72                     l1061:	
  5924  0A72  2AA3               	goto	l9786
  5925                           	line	251
  5926                           	
  5927  0A73                     l1058:	
  5928                           	
  5929  0A73                     l9774:	
  5930                           ;Automated Solar Panel Orientation Setter.c: 251: else if(rowNo==2) while(RD7==0);
  5931  0A73  3002               	movlw	02h
  5932  0A74  062D               	xorwf	(CheckKeyPad@rowNo),w
  5933  0A75  042E               	iorwf	(CheckKeyPad@rowNo+1),w
  5934  0A76  1D03               	skipz
  5935  0A77  2A79               	goto	u11651
  5936  0A78  2A7A               	goto	u11650
  5937  0A79                     u11651:
  5938  0A79  2A82               	goto	l9778
  5939  0A7A                     u11650:
  5940  0A7A  2A7C               	goto	l1064
  5941                           	
  5942  0A7B                     l9776:	
  5943  0A7B  2A7C               	goto	l1064
  5944                           	
  5945  0A7C                     l1065:	
  5946                           	
  5947  0A7C                     l1064:	
  5948  0A7C  1F88               	btfss	(71/8),(71)&7
  5949  0A7D  2A7F               	goto	u11661
  5950  0A7E  2A80               	goto	u11660
  5951  0A7F                     u11661:
  5952  0A7F  2A7C               	goto	l1064
  5953  0A80                     u11660:
  5954  0A80  2AA3               	goto	l9786
  5955                           	
  5956  0A81                     l1066:	
  5957  0A81  2AA3               	goto	l9786
  5958                           	line	252
  5959                           	
  5960  0A82                     l1063:	
  5961                           	
  5962  0A82                     l9778:	
  5963                           ;Automated Solar Panel Orientation Setter.c: 252: else if(rowNo==3) while(RD3==0);
  5964  0A82  3003               	movlw	03h
  5965  0A83  062D               	xorwf	(CheckKeyPad@rowNo),w
  5966  0A84  042E               	iorwf	(CheckKeyPad@rowNo+1),w
  5967  0A85  1D03               	skipz
  5968  0A86  2A88               	goto	u11671
  5969  0A87  2A89               	goto	u11670
  5970  0A88                     u11671:
  5971  0A88  2A91               	goto	l9782
  5972  0A89                     u11670:
  5973  0A89  2A8B               	goto	l1069
  5974                           	
  5975  0A8A                     l9780:	
  5976  0A8A  2A8B               	goto	l1069
  5977                           	
  5978  0A8B                     l1070:	
  5979                           	
  5980  0A8B                     l1069:	
  5981  0A8B  1D88               	btfss	(67/8),(67)&7
  5982  0A8C  2A8E               	goto	u11681
  5983  0A8D  2A8F               	goto	u11680
  5984  0A8E                     u11681:
  5985  0A8E  2A8B               	goto	l1069
  5986  0A8F                     u11680:
  5987  0A8F  2AA3               	goto	l9786
  5988                           	
  5989  0A90                     l1071:	
  5990  0A90  2AA3               	goto	l9786
  5991                           	line	253
  5992                           	
  5993  0A91                     l1068:	
  5994                           	
  5995  0A91                     l9782:	
  5996                           ;Automated Solar Panel Orientation Setter.c: 253: else if(rowNo==4) while(RD6==0);
  5997  0A91  3004               	movlw	04h
  5998  0A92  062D               	xorwf	(CheckKeyPad@rowNo),w
  5999  0A93  042E               	iorwf	(CheckKeyPad@rowNo+1),w
  6000  0A94  1D03               	skipz
  6001  0A95  2A97               	goto	u11691
  6002  0A96  2A98               	goto	u11690
  6003  0A97                     u11691:
  6004  0A97  2AA3               	goto	l9786
  6005  0A98                     u11690:
  6006  0A98  2A9A               	goto	l1074
  6007                           	
  6008  0A99                     l9784:	
  6009  0A99  2A9A               	goto	l1074
  6010                           	
  6011  0A9A                     l1075:	
  6012                           	
  6013  0A9A                     l1074:	
  6014  0A9A  1F08               	btfss	(70/8),(70)&7
  6015  0A9B  2A9D               	goto	u11701
  6016  0A9C  2A9E               	goto	u11700
  6017  0A9D                     u11701:
  6018  0A9D  2A9A               	goto	l1074
  6019  0A9E                     u11700:
  6020  0A9E  2AA3               	goto	l9786
  6021                           	
  6022  0A9F                     l1076:	
  6023  0A9F  2AA3               	goto	l9786
  6024                           	
  6025  0AA0                     l1073:	
  6026  0AA0  2AA3               	goto	l9786
  6027                           	line	254
  6028                           	
  6029  0AA1                     l1072:	
  6030  0AA1  2AA3               	goto	l9786
  6031                           	
  6032  0AA2                     l1067:	
  6033  0AA2  2AA3               	goto	l9786
  6034                           	
  6035  0AA3                     l1062:	
  6036                           	
  6037  0AA3                     l9786:	
  6038                           ;Automated Solar Panel Orientation Setter.c: 254: return charactor;
  6039  0AA3  082A               	movf	(CheckKeyPad@charactor),w
  6040  0AA4  2AA5               	goto	l1077
  6041                           	
  6042  0AA5                     l9788:	
  6043                           	line	255
  6044                           	
  6045  0AA5                     l1077:	
  6046  0AA5  0008               	return
  6047                           	opt stack 0
  6048                           GLOBAL	__end_of_CheckKeyPad
  6049  0AA6                     	__end_of_CheckKeyPad:
  6050 ;; =============== function _CheckKeyPad ends ============
  6051                           
  6052                           	signat	_CheckKeyPad,89
  6053                           	global	_a2d_read
  6054                           psect	text1492,local,class=CODE,delta=2
  6055                           global __ptext1492
  6056  1CE2                     __ptext1492:
  6057                           
  6058 ;; *************** function _a2d_read *****************
  6059 ;; Defined at:
  6060 ;;		line 415 in file "D:\ELECTRONIC\2016\1. Automated Solar Panel Orientation Setter\Firmware\ver4\Automated Solar Panel
        Orientation Setter.c"
  6061 ;; Parameters:    Size  Location     Type
  6062 ;;		None
  6063 ;; Auto vars:     Size  Location     Type
  6064 ;;		None
  6065 ;; Return value:  Size  Location     Type
  6066 ;;		None               void
  6067 ;; Registers used:
  6068 ;;		wreg, status,2, status,0, pclath, cstack
  6069 ;; Tracked objects:
  6070 ;;		On entry : 0/0
  6071 ;;		On exit  : 0/0
  6072 ;;		Unchanged: 0/0
  6073 ;; Data sizes:     COMMON   BANK0   BANK1   BANK3   BANK2
  6074 ;;      Params:         0       0       0       0       0
  6075 ;;      Locals:         0       0       0       0       0
  6076 ;;      Temps:          0       0       0       0       0
  6077 ;;      Totals:         0       0       0       0       0
  6078 ;;Total ram usage:        0 bytes
  6079 ;; Hardware stack levels used:    1
  6080 ;; Hardware stack levels required when called:    5
  6081 ;; This function calls:
  6082 ;;		_read_a2d_value
  6083 ;; This function is called by:
  6084 ;;		_main
  6085 ;; This function uses a non-reentrant model
  6086 ;;
  6087                           psect	text1492
  6088                           	file	"D:\ELECTRONIC\2016\1. Automated Solar Panel Orientation Setter\Firmware\ver4\Auto
                                 mated Solar Panel Orientation Setter.c"
  6089                           	line	415
  6090                           	global	__size_of_a2d_read
  6091  0039                     	__size_of_a2d_read	equ	__end_of_a2d_read-_a2d_read
  6092                           	
  6093  1CE2                     _a2d_read:	
  6094                           	opt	stack 2
  6095                           ; Regs used in _a2d_read: [wreg+status,2+status,0+pclath+cstack]
  6096                           	line	416
  6097                           	
  6098  1CE2                     l9652:	
  6099                           ;Automated Solar Panel Orientation Setter.c: 416: ldr1 = read_a2d_value(0);
  6100  1CE2  3000               	movlw	(0)
  6101  1CE3  160A  158A  265A   	fcall	_read_a2d_value
              160A  158A         
  6102  1CE8  1283               	bcf	status, 5	;RP0=0, select bank0
  6103  1CE9  1303               	bcf	status, 6	;RP1=0, select bank0
  6104  1CEA  0826               	movf	(1+(?_read_a2d_value)),w
  6105  1CEB  01D5               	clrf	(_ldr1+1)
  6106  1CEC  07D5               	addwf	(_ldr1+1)
  6107  1CED  0825               	movf	(0+(?_read_a2d_value)),w
  6108  1CEE  01D4               	clrf	(_ldr1)
  6109  1CEF  07D4               	addwf	(_ldr1)
  6110                           
  6111                           	line	417
  6112                           ;Automated Solar Panel Orientation Setter.c: 417: ldr2 = read_a2d_value(1);
  6113  1CF0  3001               	movlw	(01h)
  6114  1CF1  160A  158A  265A   	fcall	_read_a2d_value
              160A  158A         
  6115  1CF6  1283               	bcf	status, 5	;RP0=0, select bank0
  6116  1CF7  1303               	bcf	status, 6	;RP1=0, select bank0
  6117  1CF8  0826               	movf	(1+(?_read_a2d_value)),w
  6118  1CF9  01D7               	clrf	(_ldr2+1)
  6119  1CFA  07D7               	addwf	(_ldr2+1)
  6120  1CFB  0825               	movf	(0+(?_read_a2d_value)),w
  6121  1CFC  01D6               	clrf	(_ldr2)
  6122  1CFD  07D6               	addwf	(_ldr2)
  6123                           
  6124                           	line	418
  6125                           ;Automated Solar Panel Orientation Setter.c: 418: V_Bat = read_a2d_value(2);
  6126  1CFE  3002               	movlw	(02h)
  6127  1CFF  160A  158A  265A   	fcall	_read_a2d_value
              160A  158A         
  6128  1D04  1283               	bcf	status, 5	;RP0=0, select bank0
  6129  1D05  1303               	bcf	status, 6	;RP1=0, select bank0
  6130  1D06  0826               	movf	(1+(?_read_a2d_value)),w
  6131  1D07  01CD               	clrf	(_V_Bat+1)
  6132  1D08  07CD               	addwf	(_V_Bat+1)
  6133  1D09  0825               	movf	(0+(?_read_a2d_value)),w
  6134  1D0A  01CC               	clrf	(_V_Bat)
  6135  1D0B  07CC               	addwf	(_V_Bat)
  6136                           
  6137                           	line	419
  6138                           ;Automated Solar Panel Orientation Setter.c: 419: C_Bat = read_a2d_value(3);
  6139  1D0C  3003               	movlw	(03h)
  6140  1D0D  160A  158A  265A   	fcall	_read_a2d_value
              160A  158A         
  6141  1D12  1283               	bcf	status, 5	;RP0=0, select bank0
  6142  1D13  1303               	bcf	status, 6	;RP1=0, select bank0
  6143  1D14  0826               	movf	(1+(?_read_a2d_value)),w
  6144  1D15  01C9               	clrf	(_C_Bat+1)
  6145  1D16  07C9               	addwf	(_C_Bat+1)
  6146  1D17  0825               	movf	(0+(?_read_a2d_value)),w
  6147  1D18  01C8               	clrf	(_C_Bat)
  6148  1D19  07C8               	addwf	(_C_Bat)
  6149                           
  6150                           	line	420
  6151                           	
  6152  1D1A                     l1134:	
  6153  1D1A  0008               	return
  6154                           	opt stack 0
  6155                           GLOBAL	__end_of_a2d_read
  6156  1D1B                     	__end_of_a2d_read:
  6157 ;; =============== function _a2d_read ends ============
  6158                           
  6159                           	signat	_a2d_read,88
  6160                           	global	_clr_display
  6161                           psect	text1493,local,class=CODE,delta=2
  6162                           global __ptext1493
  6163  1B5E                     __ptext1493:
  6164                           
  6165 ;; *************** function _clr_display *****************
  6166 ;; Defined at:
  6167 ;;		line 184 in file "D:\ELECTRONIC\2016\1. Automated Solar Panel Orientation Setter\Firmware\ver4\lcdV2.h"
  6168 ;; Parameters:    Size  Location     Type
  6169 ;;		None
  6170 ;; Auto vars:     Size  Location     Type
  6171 ;;		None
  6172 ;; Return value:  Size  Location     Type
  6173 ;;		None               void
  6174 ;; Registers used:
  6175 ;;		wreg, status,2, status,0, pclath, cstack
  6176 ;; Tracked objects:
  6177 ;;		On entry : 0/0
  6178 ;;		On exit  : 0/0
  6179 ;;		Unchanged: 0/0
  6180 ;; Data sizes:     COMMON   BANK0   BANK1   BANK3   BANK2
  6181 ;;      Params:         0       0       0       0       0
  6182 ;;      Locals:         0       0       0       0       0
  6183 ;;      Temps:          0       2       0       0       0
  6184 ;;      Totals:         0       2       0       0       0
  6185 ;;Total ram usage:        2 bytes
  6186 ;; Hardware stack levels used:    1
  6187 ;; Hardware stack levels required when called:    5
  6188 ;; This function calls:
  6189 ;;		_lcd_add
  6190 ;; This function is called by:
  6191 ;;		_main
  6192 ;; This function uses a non-reentrant model
  6193 ;;
  6194                           psect	text1493
  6195                           	file	"D:\ELECTRONIC\2016\1. Automated Solar Panel Orientation Setter\Firmware\ver4\lcdV
                                 2.h"
  6196                           	line	184
  6197                           	global	__size_of_clr_display
  6198  0021                     	__size_of_clr_display	equ	__end_of_clr_display-_clr_display
  6199                           	
  6200  1B5E                     _clr_display:	
  6201                           	opt	stack 2
  6202                           ; Regs used in _clr_display: [wreg+status,2+status,0+pclath+cstack]
  6203                           	line	185
  6204                           	
  6205  1B5E                     l9640:	
  6206                           ;lcdV2.h: 185: RC2 = 0;
  6207  1B5E  1283               	bcf	status, 5	;RP0=0, select bank0
  6208  1B5F  1303               	bcf	status, 6	;RP1=0, select bank0
  6209  1B60  1107               	bcf	(58/8),(58)&7
  6210                           	line	186
  6211                           	
  6212  1B61                     l9642:	
  6213                           ;lcdV2.h: 186: _delay(20);
  6214                           	opt asmopt_off
  6215  1B61  3006               movlw	6
  6216  1B62  00A7               movwf	(??_clr_display+0)+0,f
  6217  1B63                     u12417:
  6218  1B63  0BA7               decfsz	(??_clr_display+0)+0,f
  6219  1B64  2B63               	goto	u12417
  6220  1B65  0064               	clrwdt
  6221                           opt asmopt_on
  6222                           
  6223                           	line	187
  6224                           	
  6225  1B66                     l9644:	
  6226                           ;lcdV2.h: 187: lcd_data = 0b00000001;
  6227  1B66  1283               	bcf	status, 5	;RP0=0, select bank0
  6228  1B67  1303               	bcf	status, 6	;RP1=0, select bank0
  6229  1B68  01DC               	clrf	(_lcd_data)
  6230  1B69  1403               	bsf	status,0
  6231  1B6A  0DDC               	rlf	(_lcd_data),f
  6232                           	line	188
  6233                           	
  6234  1B6B                     l9646:	
  6235                           ;lcdV2.h: 188: lcd_add();
  6236  1B6B  160A  118A  24EA   	fcall	_lcd_add
              160A  158A         
  6237                           	line	189
  6238                           	
  6239  1B70                     l9648:	
  6240                           ;lcdV2.h: 189: _delay((unsigned long)((10)*(4000000/4000.0)));
  6241                           	opt asmopt_off
  6242  1B70  300D               movlw	13
  6243  1B71  1283               	bcf	status, 5	;RP0=0, select bank0
  6244  1B72  1303               	bcf	status, 6	;RP1=0, select bank0
  6245  1B73  00A8               movwf	((??_clr_display+0)+0+1),f
  6246  1B74  30FB               	movlw	251
  6247  1B75  00A7               movwf	((??_clr_display+0)+0),f
  6248  1B76                     u12427:
  6249  1B76  0BA7               	decfsz	((??_clr_display+0)+0),f
  6250  1B77  2B76               	goto	u12427
  6251  1B78  0BA8               	decfsz	((??_clr_display+0)+0+1),f
  6252  1B79  2B76               	goto	u12427
  6253  1B7A  2B7B               	nop2
  6254                           opt asmopt_on
  6255                           
  6256                           	line	190
  6257                           	
  6258  1B7B                     l9650:	
  6259                           ;lcdV2.h: 190: RC2 = 1;
  6260  1B7B  1283               	bcf	status, 5	;RP0=0, select bank0
  6261  1B7C  1303               	bcf	status, 6	;RP1=0, select bank0
  6262  1B7D  1507               	bsf	(58/8),(58)&7
  6263                           	line	191
  6264                           	
  6265  1B7E                     l828:	
  6266  1B7E  0008               	return
  6267                           	opt stack 0
  6268                           GLOBAL	__end_of_clr_display
  6269  1B7F                     	__end_of_clr_display:
  6270 ;; =============== function _clr_display ends ============
  6271                           
  6272                           	signat	_clr_display,88
  6273                           	global	_position
  6274                           psect	text1494,local,class=CODE,delta=2
  6275                           global __ptext1494
  6276  1D91                     __ptext1494:
  6277                           
  6278 ;; *************** function _position *****************
  6279 ;; Defined at:
  6280 ;;		line 209 in file "D:\ELECTRONIC\2016\1. Automated Solar Panel Orientation Setter\Firmware\ver4\lcdV2.h"
  6281 ;; Parameters:    Size  Location     Type
  6282 ;;  row             1    wreg     unsigned char 
  6283 ;;  collum          1    7[BANK0 ] unsigned char 
  6284 ;; Auto vars:     Size  Location     Type
  6285 ;;  row             1   11[BANK0 ] unsigned char 
  6286 ;;  post            1   10[BANK0 ] unsigned char 
  6287 ;; Return value:  Size  Location     Type
  6288 ;;		None               void
  6289 ;; Registers used:
  6290 ;;		wreg, status,2, status,0, pclath, cstack
  6291 ;; Tracked objects:
  6292 ;;		On entry : 0/0
  6293 ;;		On exit  : 0/0
  6294 ;;		Unchanged: 0/0
  6295 ;; Data sizes:     COMMON   BANK0   BANK1   BANK3   BANK2
  6296 ;;      Params:         0       1       0       0       0
  6297 ;;      Locals:         0       2       0       0       0
  6298 ;;      Temps:          0       2       0       0       0
  6299 ;;      Totals:         0       5       0       0       0
  6300 ;;Total ram usage:        5 bytes
  6301 ;; Hardware stack levels used:    1
  6302 ;; Hardware stack levels required when called:    5
  6303 ;; This function calls:
  6304 ;;		_lcd_add
  6305 ;; This function is called by:
  6306 ;;		_LCD_print_char
  6307 ;;		_main
  6308 ;; This function uses a non-reentrant model
  6309 ;;
  6310                           psect	text1494
  6311                           	file	"D:\ELECTRONIC\2016\1. Automated Solar Panel Orientation Setter\Firmware\ver4\lcdV
                                 2.h"
  6312                           	line	209
  6313                           	global	__size_of_position
  6314  003F                     	__size_of_position	equ	__end_of_position-_position
  6315                           	
  6316  1D91                     _position:	
  6317                           	opt	stack 0
  6318                           ; Regs used in _position: [wreg+status,2+status,0+pclath+cstack]
  6319                           ;position@row stored from wreg
  6320                           	line	211
  6321  1D91  1283               	bcf	status, 5	;RP0=0, select bank0
  6322  1D92  1303               	bcf	status, 6	;RP1=0, select bank0
  6323  1D93  00AB               	movwf	(position@row)
  6324                           	
  6325  1D94                     l9618:	
  6326                           ;lcdV2.h: 210: char post ;
  6327                           ;lcdV2.h: 211: if( row == 1 ) row = 128;
  6328  1D94  082B               	movf	(position@row),w
  6329  1D95  3A01               	xorlw	01h
  6330  1D96  1D03               	skipz
  6331  1D97  2D99               	goto	u11281
  6332  1D98  2D9A               	goto	u11280
  6333  1D99                     u11281:
  6334  1D99  2D9E               	goto	l836
  6335  1D9A                     u11280:
  6336                           	
  6337  1D9A                     l9620:	
  6338  1D9A  3080               	movlw	(080h)
  6339  1D9B  00A8               	movwf	(??_position+0)+0
  6340  1D9C  0828               	movf	(??_position+0)+0,w
  6341  1D9D  00AB               	movwf	(position@row)
  6342                           	
  6343  1D9E                     l836:	
  6344                           	line	212
  6345                           ;lcdV2.h: 212: if( row == 2 ) row = 192;
  6346  1D9E  082B               	movf	(position@row),w
  6347  1D9F  3A02               	xorlw	02h
  6348  1DA0  1D03               	skipz
  6349  1DA1  2DA3               	goto	u11291
  6350  1DA2  2DA4               	goto	u11290
  6351  1DA3                     u11291:
  6352  1DA3  2DA9               	goto	l9624
  6353  1DA4                     u11290:
  6354                           	
  6355  1DA4                     l9622:	
  6356  1DA4  30C0               	movlw	(0C0h)
  6357  1DA5  00A8               	movwf	(??_position+0)+0
  6358  1DA6  0828               	movf	(??_position+0)+0,w
  6359  1DA7  00AB               	movwf	(position@row)
  6360  1DA8  2DA9               	goto	l9624
  6361                           	
  6362  1DA9                     l837:	
  6363                           	line	213
  6364                           	
  6365  1DA9                     l9624:	
  6366                           ;lcdV2.h: 213: post = row + collum - 1;
  6367  1DA9  0827               	movf	(position@collum),w
  6368  1DAA  072B               	addwf	(position@row),w
  6369  1DAB  3EFF               	addlw	0FFh
  6370  1DAC  00A8               	movwf	(??_position+0)+0
  6371  1DAD  0828               	movf	(??_position+0)+0,w
  6372  1DAE  00AA               	movwf	(position@post)
  6373                           	line	214
  6374                           	
  6375  1DAF                     l9626:	
  6376                           ;lcdV2.h: 214: RC2 = 0;
  6377  1DAF  1107               	bcf	(58/8),(58)&7
  6378                           	line	215
  6379                           	
  6380  1DB0                     l9628:	
  6381                           ;lcdV2.h: 215: _delay(20);
  6382                           	opt asmopt_off
  6383  1DB0  3006               movlw	6
  6384  1DB1  00A8               movwf	(??_position+0)+0,f
  6385  1DB2                     u12437:
  6386  1DB2  0BA8               decfsz	(??_position+0)+0,f
  6387  1DB3  2DB2               	goto	u12437
  6388  1DB4  0064               	clrwdt
  6389                           opt asmopt_on
  6390                           
  6391                           	line	216
  6392                           	
  6393  1DB5                     l9630:	
  6394                           ;lcdV2.h: 216: lcd_data = post ;
  6395  1DB5  1283               	bcf	status, 5	;RP0=0, select bank0
  6396  1DB6  1303               	bcf	status, 6	;RP1=0, select bank0
  6397  1DB7  082A               	movf	(position@post),w
  6398  1DB8  00A8               	movwf	(??_position+0)+0
  6399  1DB9  0828               	movf	(??_position+0)+0,w
  6400  1DBA  00DC               	movwf	(_lcd_data)
  6401                           	line	217
  6402                           	
  6403  1DBB                     l9632:	
  6404                           ;lcdV2.h: 217: lcd_add();
  6405  1DBB  160A  118A  24EA   	fcall	_lcd_add
              160A  158A         
  6406                           	line	218
  6407                           	
  6408  1DC0                     l9634:	
  6409                           ;lcdV2.h: 218: _delay((unsigned long)((10)*(4000000/4000.0)));
  6410                           	opt asmopt_off
  6411  1DC0  300D               movlw	13
  6412  1DC1  1283               	bcf	status, 5	;RP0=0, select bank0
  6413  1DC2  1303               	bcf	status, 6	;RP1=0, select bank0
  6414  1DC3  00A9               movwf	((??_position+0)+0+1),f
  6415  1DC4  30FB               	movlw	251
  6416  1DC5  00A8               movwf	((??_position+0)+0),f
  6417  1DC6                     u12447:
  6418  1DC6  0BA8               	decfsz	((??_position+0)+0),f
  6419  1DC7  2DC6               	goto	u12447
  6420  1DC8  0BA9               	decfsz	((??_position+0)+0+1),f
  6421  1DC9  2DC6               	goto	u12447
  6422  1DCA  2DCB               	nop2
  6423                           opt asmopt_on
  6424                           
  6425                           	line	219
  6426                           	
  6427  1DCB                     l9636:	
  6428                           ;lcdV2.h: 219: row = 0;
  6429  1DCB  1283               	bcf	status, 5	;RP0=0, select bank0
  6430  1DCC  1303               	bcf	status, 6	;RP1=0, select bank0
  6431  1DCD  01AB               	clrf	(position@row)
  6432                           	line	220
  6433                           	
  6434  1DCE                     l9638:	
  6435                           ;lcdV2.h: 220: collum = 0;
  6436  1DCE  01A7               	clrf	(position@collum)
  6437                           	line	221
  6438                           	
  6439  1DCF                     l838:	
  6440  1DCF  0008               	return
  6441                           	opt stack 0
  6442                           GLOBAL	__end_of_position
  6443  1DD0                     	__end_of_position:
  6444 ;; =============== function _position ends ============
  6445                           
  6446                           	signat	_position,8312
  6447                           	global	_putch
  6448                           psect	text1495,local,class=CODE,delta=2
  6449                           global __ptext1495
  6450  0018                     __ptext1495:
  6451                           
  6452 ;; *************** function _putch *****************
  6453 ;; Defined at:
  6454 ;;		line 166 in file "D:\ELECTRONIC\2016\1. Automated Solar Panel Orientation Setter\Firmware\ver4\lcdV2.h"
  6455 ;; Parameters:    Size  Location     Type
  6456 ;;  print_value     1    wreg     unsigned char 
  6457 ;; Auto vars:     Size  Location     Type
  6458 ;;  print_value     1    8[BANK0 ] unsigned char 
  6459 ;; Return value:  Size  Location     Type
  6460 ;;		None               void
  6461 ;; Registers used:
  6462 ;;		wreg, status,2, status,0, pclath, cstack
  6463 ;; Tracked objects:
  6464 ;;		On entry : 0/0
  6465 ;;		On exit  : 0/0
  6466 ;;		Unchanged: 0/0
  6467 ;; Data sizes:     COMMON   BANK0   BANK1   BANK3   BANK2
  6468 ;;      Params:         0       0       0       0       0
  6469 ;;      Locals:         0       1       0       0       0
  6470 ;;      Temps:          0       1       0       0       0
  6471 ;;      Totals:         0       2       0       0       0
  6472 ;;Total ram usage:        2 bytes
  6473 ;; Hardware stack levels used:    1
  6474 ;; Hardware stack levels required when called:    5
  6475 ;; This function calls:
  6476 ;;		_lcd_add
  6477 ;; This function is called by:
  6478 ;;		_printf
  6479 ;; This function uses a non-reentrant model
  6480 ;;
  6481                           psect	text1495
  6482                           	file	"D:\ELECTRONIC\2016\1. Automated Solar Panel Orientation Setter\Firmware\ver4\lcdV
                                 2.h"
  6483                           	line	166
  6484                           	global	__size_of_putch
  6485  001B                     	__size_of_putch	equ	__end_of_putch-_putch
  6486                           	
  6487  0018                     _putch:	
  6488                           	opt	stack 1
  6489                           ; Regs used in _putch: [wreg+status,2+status,0+pclath+cstack]
  6490                           ;putch@print_value stored from wreg
  6491  0018  1283               	bcf	status, 5	;RP0=0, select bank0
  6492  0019  1303               	bcf	status, 6	;RP1=0, select bank0
  6493  001A  00A8               	movwf	(putch@print_value)
  6494                           	line	167
  6495                           	
  6496  001B                     l9610:	
  6497                           ;lcdV2.h: 167: RC2 = 1;
  6498  001B  1507               	bsf	(58/8),(58)&7
  6499                           	line	168
  6500                           	
  6501  001C                     l9612:	
  6502                           ;lcdV2.h: 168: _delay(20);
  6503                           	opt asmopt_off
  6504  001C  3006               movlw	6
  6505  001D  00A7               movwf	(??_putch+0)+0,f
  6506  001E                     u12457:
  6507  001E  0BA7               decfsz	(??_putch+0)+0,f
  6508  001F  281E               	goto	u12457
  6509  0020  0064               	clrwdt
  6510                           opt asmopt_on
  6511                           
  6512                           	line	169
  6513                           ;lcdV2.h: 169: lcd_data = print_value;
  6514  0021  1283               	bcf	status, 5	;RP0=0, select bank0
  6515  0022  1303               	bcf	status, 6	;RP1=0, select bank0
  6516  0023  0828               	movf	(putch@print_value),w
  6517  0024  00A7               	movwf	(??_putch+0)+0
  6518  0025  0827               	movf	(??_putch+0)+0,w
  6519  0026  00DC               	movwf	(_lcd_data)
  6520                           	line	170
  6521                           	
  6522  0027                     l9614:	
  6523                           ;lcdV2.h: 170: lcd_add();
  6524  0027  160A  118A  24EA   	fcall	_lcd_add
              120A  118A         
  6525                           	line	171
  6526                           	
  6527  002C                     l9616:	
  6528                           ;lcdV2.h: 171: _delay(100);
  6529                           	opt asmopt_off
  6530  002C  3021               movlw	33
  6531  002D  1283               	bcf	status, 5	;RP0=0, select bank0
  6532  002E  1303               	bcf	status, 6	;RP1=0, select bank0
  6533  002F  00A7               movwf	(??_putch+0)+0,f
  6534  0030                     u12467:
  6535  0030  0BA7               decfsz	(??_putch+0)+0,f
  6536  0031  2830               	goto	u12467
  6537                           opt asmopt_on
  6538                           
  6539                           	line	172
  6540                           	
  6541  0032                     l822:	
  6542  0032  0008               	return
  6543                           	opt stack 0
  6544                           GLOBAL	__end_of_putch
  6545  0033                     	__end_of_putch:
  6546 ;; =============== function _putch ends ============
  6547                           
  6548                           	signat	_putch,4216
  6549                           	global	_ColomnNo
  6550                           psect	text1496,local,class=CODE,delta=2
  6551                           global __ptext1496
  6552  16F3                     __ptext1496:
  6553                           
  6554 ;; *************** function _ColomnNo *****************
  6555 ;; Defined at:
  6556 ;;		line 257 in file "D:\ELECTRONIC\2016\1. Automated Solar Panel Orientation Setter\Firmware\ver4\Automated Solar Panel
        Orientation Setter.c"
  6557 ;; Parameters:    Size  Location     Type
  6558 ;;  rowNo           2    5[BANK0 ] int 
  6559 ;; Auto vars:     Size  Location     Type
  6560 ;;		None
  6561 ;; Return value:  Size  Location     Type
  6562 ;;                  2    5[BANK0 ] int 
  6563 ;; Registers used:
  6564 ;;		wreg, status,2
  6565 ;; Tracked objects:
  6566 ;;		On entry : 0/0
  6567 ;;		On exit  : 0/0
  6568 ;;		Unchanged: 0/0
  6569 ;; Data sizes:     COMMON   BANK0   BANK1   BANK3   BANK2
  6570 ;;      Params:         0       2       0       0       0
  6571 ;;      Locals:         0       0       0       0       0
  6572 ;;      Temps:          0       0       0       0       0
  6573 ;;      Totals:         0       2       0       0       0
  6574 ;;Total ram usage:        2 bytes
  6575 ;; Hardware stack levels used:    1
  6576 ;; Hardware stack levels required when called:    4
  6577 ;; This function calls:
  6578 ;;		Nothing
  6579 ;; This function is called by:
  6580 ;;		_CheckKeyPad
  6581 ;; This function uses a non-reentrant model
  6582 ;;
  6583                           psect	text1496
  6584                           	file	"D:\ELECTRONIC\2016\1. Automated Solar Panel Orientation Setter\Firmware\ver4\Auto
                                 mated Solar Panel Orientation Setter.c"
  6585                           	line	257
  6586                           	global	__size_of_ColomnNo
  6587  010D                     	__size_of_ColomnNo	equ	__end_of_ColomnNo-_ColomnNo
  6588                           	
  6589  16F3                     _ColomnNo:	
  6590                           	opt	stack 1
  6591                           ; Regs used in _ColomnNo: [wreg+status,2]
  6592                           	line	258
  6593                           	
  6594  16F3                     l9524:	
  6595                           ;Automated Solar Panel Orientation Setter.c: 258: RC4 = 0; RD5 = 0; RC5=0; RD4=0;
  6596  16F3  1283               	bcf	status, 5	;RP0=0, select bank0
  6597  16F4  1303               	bcf	status, 6	;RP1=0, select bank0
  6598  16F5  1207               	bcf	(60/8),(60)&7
  6599  16F6  1288               	bcf	(69/8),(69)&7
  6600  16F7  1287               	bcf	(61/8),(61)&7
  6601  16F8  1208               	bcf	(68/8),(68)&7
  6602                           	line	259
  6603                           	
  6604  16F9                     l9526:	
  6605                           ;Automated Solar Panel Orientation Setter.c: 259: if(rowNo==1){
  6606  16F9  3001               	movlw	01h
  6607  16FA  0625               	xorwf	(ColomnNo@rowNo),w
  6608  16FB  0426               	iorwf	(ColomnNo@rowNo+1),w
  6609  16FC  1D03               	skipz
  6610  16FD  2EFF               	goto	u11081
  6611  16FE  2F00               	goto	u11080
  6612  16FF                     u11081:
  6613  16FF  2F39               	goto	l9546
  6614  1700                     u11080:
  6615                           	line	260
  6616                           	
  6617  1700                     l9528:	
  6618                           ;Automated Solar Panel Orientation Setter.c: 260: RC4 = 1;
  6619  1700  1607               	bsf	(60/8),(60)&7
  6620                           	line	261
  6621                           ;Automated Solar Panel Orientation Setter.c: 261: _delay(1);
  6622                           		opt asmopt_off
  6623  1701  0064               	clrwdt
  6624                           	opt asmopt_on
  6625                           
  6626                           	line	262
  6627                           ;Automated Solar Panel Orientation Setter.c: 262: if(RD2==1){
  6628  1702  1283               	bcf	status, 5	;RP0=0, select bank0
  6629  1703  1303               	bcf	status, 6	;RP1=0, select bank0
  6630  1704  1D08               	btfss	(66/8),(66)&7
  6631  1705  2F07               	goto	u11091
  6632  1706  2F08               	goto	u11090
  6633  1707                     u11091:
  6634  1707  2F0E               	goto	l1081
  6635  1708                     u11090:
  6636                           	line	263
  6637                           	
  6638  1708                     l9530:	
  6639                           ;Automated Solar Panel Orientation Setter.c: 263: return 1;
  6640  1708  3001               	movlw	low(01h)
  6641  1709  00A5               	movwf	(?_ColomnNo)
  6642  170A  3000               	movlw	high(01h)
  6643  170B  00A6               	movwf	((?_ColomnNo))+1
  6644  170C  2FFF               	goto	l1082
  6645                           	
  6646  170D                     l9532:	
  6647  170D  2FFF               	goto	l1082
  6648                           	line	264
  6649                           	
  6650  170E                     l1081:	
  6651                           	line	265
  6652                           ;Automated Solar Panel Orientation Setter.c: 264: }
  6653                           ;Automated Solar Panel Orientation Setter.c: 265: RD5 = 1;
  6654  170E  1688               	bsf	(69/8),(69)&7
  6655                           	line	266
  6656                           ;Automated Solar Panel Orientation Setter.c: 266: _delay(1);
  6657                           		opt asmopt_off
  6658  170F  0064               	clrwdt
  6659                           	opt asmopt_on
  6660                           
  6661                           	line	267
  6662                           ;Automated Solar Panel Orientation Setter.c: 267: if(RD2==1){
  6663  1710  1283               	bcf	status, 5	;RP0=0, select bank0
  6664  1711  1303               	bcf	status, 6	;RP1=0, select bank0
  6665  1712  1D08               	btfss	(66/8),(66)&7
  6666  1713  2F15               	goto	u11101
  6667  1714  2F16               	goto	u11100
  6668  1715                     u11101:
  6669  1715  2F1C               	goto	l1083
  6670  1716                     u11100:
  6671                           	line	268
  6672                           	
  6673  1716                     l9534:	
  6674                           ;Automated Solar Panel Orientation Setter.c: 268: return 2;
  6675  1716  3002               	movlw	low(02h)
  6676  1717  00A5               	movwf	(?_ColomnNo)
  6677  1718  3000               	movlw	high(02h)
  6678  1719  00A6               	movwf	((?_ColomnNo))+1
  6679  171A  2FFF               	goto	l1082
  6680                           	
  6681  171B                     l9536:	
  6682  171B  2FFF               	goto	l1082
  6683                           	line	269
  6684                           	
  6685  171C                     l1083:	
  6686                           	line	270
  6687                           ;Automated Solar Panel Orientation Setter.c: 269: }
  6688                           ;Automated Solar Panel Orientation Setter.c: 270: RC5 = 1;
  6689  171C  1687               	bsf	(61/8),(61)&7
  6690                           	line	271
  6691                           ;Automated Solar Panel Orientation Setter.c: 271: _delay(1);
  6692                           		opt asmopt_off
  6693  171D  0064               	clrwdt
  6694                           	opt asmopt_on
  6695                           
  6696                           	line	272
  6697                           ;Automated Solar Panel Orientation Setter.c: 272: if(RD2==1){
  6698  171E  1283               	bcf	status, 5	;RP0=0, select bank0
  6699  171F  1303               	bcf	status, 6	;RP1=0, select bank0
  6700  1720  1D08               	btfss	(66/8),(66)&7
  6701  1721  2F23               	goto	u11111
  6702  1722  2F24               	goto	u11110
  6703  1723                     u11111:
  6704  1723  2F2A               	goto	l1084
  6705  1724                     u11110:
  6706                           	line	273
  6707                           	
  6708  1724                     l9538:	
  6709                           ;Automated Solar Panel Orientation Setter.c: 273: return 3;
  6710  1724  3003               	movlw	low(03h)
  6711  1725  00A5               	movwf	(?_ColomnNo)
  6712  1726  3000               	movlw	high(03h)
  6713  1727  00A6               	movwf	((?_ColomnNo))+1
  6714  1728  2FFF               	goto	l1082
  6715                           	
  6716  1729                     l9540:	
  6717  1729  2FFF               	goto	l1082
  6718                           	line	274
  6719                           	
  6720  172A                     l1084:	
  6721                           	line	275
  6722                           ;Automated Solar Panel Orientation Setter.c: 274: }
  6723                           ;Automated Solar Panel Orientation Setter.c: 275: RD4 = 1;
  6724  172A  1608               	bsf	(68/8),(68)&7
  6725                           	line	276
  6726                           ;Automated Solar Panel Orientation Setter.c: 276: _delay(1);
  6727                           		opt asmopt_off
  6728  172B  0064               	clrwdt
  6729                           	opt asmopt_on
  6730                           
  6731                           	line	277
  6732                           ;Automated Solar Panel Orientation Setter.c: 277: if(RD2==1){
  6733  172C  1283               	bcf	status, 5	;RP0=0, select bank0
  6734  172D  1303               	bcf	status, 6	;RP1=0, select bank0
  6735  172E  1D08               	btfss	(66/8),(66)&7
  6736  172F  2F31               	goto	u11121
  6737  1730  2F32               	goto	u11120
  6738  1731                     u11121:
  6739  1731  2FFC               	goto	l9606
  6740  1732                     u11120:
  6741                           	line	278
  6742                           	
  6743  1732                     l9542:	
  6744                           ;Automated Solar Panel Orientation Setter.c: 278: return 4;
  6745  1732  3004               	movlw	low(04h)
  6746  1733  00A5               	movwf	(?_ColomnNo)
  6747  1734  3000               	movlw	high(04h)
  6748  1735  00A6               	movwf	((?_ColomnNo))+1
  6749  1736  2FFF               	goto	l1082
  6750                           	
  6751  1737                     l9544:	
  6752  1737  2FFF               	goto	l1082
  6753                           	line	279
  6754                           	
  6755  1738                     l1085:	
  6756                           	line	280
  6757                           ;Automated Solar Panel Orientation Setter.c: 279: }
  6758                           ;Automated Solar Panel Orientation Setter.c: 280: }
  6759  1738  2FFC               	goto	l9606
  6760                           	line	281
  6761                           	
  6762  1739                     l1080:	
  6763                           	
  6764  1739                     l9546:	
  6765                           ;Automated Solar Panel Orientation Setter.c: 281: else if(rowNo==2){
  6766  1739  3002               	movlw	02h
  6767  173A  0625               	xorwf	(ColomnNo@rowNo),w
  6768  173B  0426               	iorwf	(ColomnNo@rowNo+1),w
  6769  173C  1D03               	skipz
  6770  173D  2F3F               	goto	u11131
  6771  173E  2F40               	goto	u11130
  6772  173F                     u11131:
  6773  173F  2F79               	goto	l9566
  6774  1740                     u11130:
  6775                           	line	282
  6776                           	
  6777  1740                     l9548:	
  6778                           ;Automated Solar Panel Orientation Setter.c: 282: RC4 = 1;
  6779  1740  1607               	bsf	(60/8),(60)&7
  6780                           	line	283
  6781                           ;Automated Solar Panel Orientation Setter.c: 283: _delay(1);
  6782                           		opt asmopt_off
  6783  1741  0064               	clrwdt
  6784                           	opt asmopt_on
  6785                           
  6786                           	line	284
  6787                           ;Automated Solar Panel Orientation Setter.c: 284: if(RD7==1){
  6788  1742  1283               	bcf	status, 5	;RP0=0, select bank0
  6789  1743  1303               	bcf	status, 6	;RP1=0, select bank0
  6790  1744  1F88               	btfss	(71/8),(71)&7
  6791  1745  2F47               	goto	u11141
  6792  1746  2F48               	goto	u11140
  6793  1747                     u11141:
  6794  1747  2F4E               	goto	l1088
  6795  1748                     u11140:
  6796                           	line	285
  6797                           	
  6798  1748                     l9550:	
  6799                           ;Automated Solar Panel Orientation Setter.c: 285: return 1;
  6800  1748  3001               	movlw	low(01h)
  6801  1749  00A5               	movwf	(?_ColomnNo)
  6802  174A  3000               	movlw	high(01h)
  6803  174B  00A6               	movwf	((?_ColomnNo))+1
  6804  174C  2FFF               	goto	l1082
  6805                           	
  6806  174D                     l9552:	
  6807  174D  2FFF               	goto	l1082
  6808                           	line	286
  6809                           	
  6810  174E                     l1088:	
  6811                           	line	287
  6812                           ;Automated Solar Panel Orientation Setter.c: 286: }
  6813                           ;Automated Solar Panel Orientation Setter.c: 287: RD5 = 1;
  6814  174E  1688               	bsf	(69/8),(69)&7
  6815                           	line	288
  6816                           ;Automated Solar Panel Orientation Setter.c: 288: _delay(1);
  6817                           		opt asmopt_off
  6818  174F  0064               	clrwdt
  6819                           	opt asmopt_on
  6820                           
  6821                           	line	289
  6822                           ;Automated Solar Panel Orientation Setter.c: 289: if(RD7==1){
  6823  1750  1283               	bcf	status, 5	;RP0=0, select bank0
  6824  1751  1303               	bcf	status, 6	;RP1=0, select bank0
  6825  1752  1F88               	btfss	(71/8),(71)&7
  6826  1753  2F55               	goto	u11151
  6827  1754  2F56               	goto	u11150
  6828  1755                     u11151:
  6829  1755  2F5C               	goto	l1089
  6830  1756                     u11150:
  6831                           	line	290
  6832                           	
  6833  1756                     l9554:	
  6834                           ;Automated Solar Panel Orientation Setter.c: 290: return 2;
  6835  1756  3002               	movlw	low(02h)
  6836  1757  00A5               	movwf	(?_ColomnNo)
  6837  1758  3000               	movlw	high(02h)
  6838  1759  00A6               	movwf	((?_ColomnNo))+1
  6839  175A  2FFF               	goto	l1082
  6840                           	
  6841  175B                     l9556:	
  6842  175B  2FFF               	goto	l1082
  6843                           	line	291
  6844                           	
  6845  175C                     l1089:	
  6846                           	line	292
  6847                           ;Automated Solar Panel Orientation Setter.c: 291: }
  6848                           ;Automated Solar Panel Orientation Setter.c: 292: RC5 = 1;
  6849  175C  1687               	bsf	(61/8),(61)&7
  6850                           	line	293
  6851                           ;Automated Solar Panel Orientation Setter.c: 293: _delay(1);
  6852                           		opt asmopt_off
  6853  175D  0064               	clrwdt
  6854                           	opt asmopt_on
  6855                           
  6856                           	line	294
  6857                           ;Automated Solar Panel Orientation Setter.c: 294: if(RD7==1){
  6858  175E  1283               	bcf	status, 5	;RP0=0, select bank0
  6859  175F  1303               	bcf	status, 6	;RP1=0, select bank0
  6860  1760  1F88               	btfss	(71/8),(71)&7
  6861  1761  2F63               	goto	u11161
  6862  1762  2F64               	goto	u11160
  6863  1763                     u11161:
  6864  1763  2F6A               	goto	l1090
  6865  1764                     u11160:
  6866                           	line	295
  6867                           	
  6868  1764                     l9558:	
  6869                           ;Automated Solar Panel Orientation Setter.c: 295: return 3;
  6870  1764  3003               	movlw	low(03h)
  6871  1765  00A5               	movwf	(?_ColomnNo)
  6872  1766  3000               	movlw	high(03h)
  6873  1767  00A6               	movwf	((?_ColomnNo))+1
  6874  1768  2FFF               	goto	l1082
  6875                           	
  6876  1769                     l9560:	
  6877  1769  2FFF               	goto	l1082
  6878                           	line	296
  6879                           	
  6880  176A                     l1090:	
  6881                           	line	297
  6882                           ;Automated Solar Panel Orientation Setter.c: 296: }
  6883                           ;Automated Solar Panel Orientation Setter.c: 297: RD4 = 1;
  6884  176A  1608               	bsf	(68/8),(68)&7
  6885                           	line	298
  6886                           ;Automated Solar Panel Orientation Setter.c: 298: _delay(1);
  6887                           		opt asmopt_off
  6888  176B  0064               	clrwdt
  6889                           	opt asmopt_on
  6890                           
  6891                           	line	299
  6892                           ;Automated Solar Panel Orientation Setter.c: 299: if(RD7==1){
  6893  176C  1283               	bcf	status, 5	;RP0=0, select bank0
  6894  176D  1303               	bcf	status, 6	;RP1=0, select bank0
  6895  176E  1F88               	btfss	(71/8),(71)&7
  6896  176F  2F71               	goto	u11171
  6897  1770  2F72               	goto	u11170
  6898  1771                     u11171:
  6899  1771  2FFC               	goto	l9606
  6900  1772                     u11170:
  6901                           	line	300
  6902                           	
  6903  1772                     l9562:	
  6904                           ;Automated Solar Panel Orientation Setter.c: 300: return 4;
  6905  1772  3004               	movlw	low(04h)
  6906  1773  00A5               	movwf	(?_ColomnNo)
  6907  1774  3000               	movlw	high(04h)
  6908  1775  00A6               	movwf	((?_ColomnNo))+1
  6909  1776  2FFF               	goto	l1082
  6910                           	
  6911  1777                     l9564:	
  6912  1777  2FFF               	goto	l1082
  6913                           	line	301
  6914                           	
  6915  1778                     l1091:	
  6916                           	line	302
  6917                           ;Automated Solar Panel Orientation Setter.c: 301: }
  6918                           ;Automated Solar Panel Orientation Setter.c: 302: }
  6919  1778  2FFC               	goto	l9606
  6920                           	line	303
  6921                           	
  6922  1779                     l1087:	
  6923                           	
  6924  1779                     l9566:	
  6925                           ;Automated Solar Panel Orientation Setter.c: 303: else if(rowNo==3){
  6926  1779  3003               	movlw	03h
  6927  177A  0625               	xorwf	(ColomnNo@rowNo),w
  6928  177B  0426               	iorwf	(ColomnNo@rowNo+1),w
  6929  177C  1D03               	skipz
  6930  177D  2F7F               	goto	u11181
  6931  177E  2F80               	goto	u11180
  6932  177F                     u11181:
  6933  177F  2FB9               	goto	l9586
  6934  1780                     u11180:
  6935                           	line	304
  6936                           	
  6937  1780                     l9568:	
  6938                           ;Automated Solar Panel Orientation Setter.c: 304: RC4 = 1;
  6939  1780  1607               	bsf	(60/8),(60)&7
  6940                           	line	305
  6941                           ;Automated Solar Panel Orientation Setter.c: 305: _delay(1);
  6942                           		opt asmopt_off
  6943  1781  0064               	clrwdt
  6944                           	opt asmopt_on
  6945                           
  6946                           	line	306
  6947                           ;Automated Solar Panel Orientation Setter.c: 306: if(RD3==1){
  6948  1782  1283               	bcf	status, 5	;RP0=0, select bank0
  6949  1783  1303               	bcf	status, 6	;RP1=0, select bank0
  6950  1784  1D88               	btfss	(67/8),(67)&7
  6951  1785  2F87               	goto	u11191
  6952  1786  2F88               	goto	u11190
  6953  1787                     u11191:
  6954  1787  2F8E               	goto	l1094
  6955  1788                     u11190:
  6956                           	line	307
  6957                           	
  6958  1788                     l9570:	
  6959                           ;Automated Solar Panel Orientation Setter.c: 307: return 1;
  6960  1788  3001               	movlw	low(01h)
  6961  1789  00A5               	movwf	(?_ColomnNo)
  6962  178A  3000               	movlw	high(01h)
  6963  178B  00A6               	movwf	((?_ColomnNo))+1
  6964  178C  2FFF               	goto	l1082
  6965                           	
  6966  178D                     l9572:	
  6967  178D  2FFF               	goto	l1082
  6968                           	line	308
  6969                           	
  6970  178E                     l1094:	
  6971                           	line	309
  6972                           ;Automated Solar Panel Orientation Setter.c: 308: }
  6973                           ;Automated Solar Panel Orientation Setter.c: 309: RD5 = 1;
  6974  178E  1688               	bsf	(69/8),(69)&7
  6975                           	line	310
  6976                           ;Automated Solar Panel Orientation Setter.c: 310: _delay(1);
  6977                           		opt asmopt_off
  6978  178F  0064               	clrwdt
  6979                           	opt asmopt_on
  6980                           
  6981                           	line	311
  6982                           ;Automated Solar Panel Orientation Setter.c: 311: if(RD3==1){
  6983  1790  1283               	bcf	status, 5	;RP0=0, select bank0
  6984  1791  1303               	bcf	status, 6	;RP1=0, select bank0
  6985  1792  1D88               	btfss	(67/8),(67)&7
  6986  1793  2F95               	goto	u11201
  6987  1794  2F96               	goto	u11200
  6988  1795                     u11201:
  6989  1795  2F9C               	goto	l1095
  6990  1796                     u11200:
  6991                           	line	312
  6992                           	
  6993  1796                     l9574:	
  6994                           ;Automated Solar Panel Orientation Setter.c: 312: return 2;
  6995  1796  3002               	movlw	low(02h)
  6996  1797  00A5               	movwf	(?_ColomnNo)
  6997  1798  3000               	movlw	high(02h)
  6998  1799  00A6               	movwf	((?_ColomnNo))+1
  6999  179A  2FFF               	goto	l1082
  7000                           	
  7001  179B                     l9576:	
  7002  179B  2FFF               	goto	l1082
  7003                           	line	313
  7004                           	
  7005  179C                     l1095:	
  7006                           	line	314
  7007                           ;Automated Solar Panel Orientation Setter.c: 313: }
  7008                           ;Automated Solar Panel Orientation Setter.c: 314: RC5 = 1;
  7009  179C  1687               	bsf	(61/8),(61)&7
  7010                           	line	315
  7011                           ;Automated Solar Panel Orientation Setter.c: 315: _delay(1);
  7012                           		opt asmopt_off
  7013  179D  0064               	clrwdt
  7014                           	opt asmopt_on
  7015                           
  7016                           	line	316
  7017                           ;Automated Solar Panel Orientation Setter.c: 316: if(RD3==1){
  7018  179E  1283               	bcf	status, 5	;RP0=0, select bank0
  7019  179F  1303               	bcf	status, 6	;RP1=0, select bank0
  7020  17A0  1D88               	btfss	(67/8),(67)&7
  7021  17A1  2FA3               	goto	u11211
  7022  17A2  2FA4               	goto	u11210
  7023  17A3                     u11211:
  7024  17A3  2FAA               	goto	l1096
  7025  17A4                     u11210:
  7026                           	line	317
  7027                           	
  7028  17A4                     l9578:	
  7029                           ;Automated Solar Panel Orientation Setter.c: 317: return 3;
  7030  17A4  3003               	movlw	low(03h)
  7031  17A5  00A5               	movwf	(?_ColomnNo)
  7032  17A6  3000               	movlw	high(03h)
  7033  17A7  00A6               	movwf	((?_ColomnNo))+1
  7034  17A8  2FFF               	goto	l1082
  7035                           	
  7036  17A9                     l9580:	
  7037  17A9  2FFF               	goto	l1082
  7038                           	line	318
  7039                           	
  7040  17AA                     l1096:	
  7041                           	line	319
  7042                           ;Automated Solar Panel Orientation Setter.c: 318: }
  7043                           ;Automated Solar Panel Orientation Setter.c: 319: RD4 = 1;
  7044  17AA  1608               	bsf	(68/8),(68)&7
  7045                           	line	320
  7046                           ;Automated Solar Panel Orientation Setter.c: 320: _delay(1);
  7047                           		opt asmopt_off
  7048  17AB  0064               	clrwdt
  7049                           	opt asmopt_on
  7050                           
  7051                           	line	321
  7052                           ;Automated Solar Panel Orientation Setter.c: 321: if(RD3==1){
  7053  17AC  1283               	bcf	status, 5	;RP0=0, select bank0
  7054  17AD  1303               	bcf	status, 6	;RP1=0, select bank0
  7055  17AE  1D88               	btfss	(67/8),(67)&7
  7056  17AF  2FB1               	goto	u11221
  7057  17B0  2FB2               	goto	u11220
  7058  17B1                     u11221:
  7059  17B1  2FFC               	goto	l9606
  7060  17B2                     u11220:
  7061                           	line	322
  7062                           	
  7063  17B2                     l9582:	
  7064                           ;Automated Solar Panel Orientation Setter.c: 322: return 4;
  7065  17B2  3004               	movlw	low(04h)
  7066  17B3  00A5               	movwf	(?_ColomnNo)
  7067  17B4  3000               	movlw	high(04h)
  7068  17B5  00A6               	movwf	((?_ColomnNo))+1
  7069  17B6  2FFF               	goto	l1082
  7070                           	
  7071  17B7                     l9584:	
  7072  17B7  2FFF               	goto	l1082
  7073                           	line	323
  7074                           	
  7075  17B8                     l1097:	
  7076                           	line	324
  7077                           ;Automated Solar Panel Orientation Setter.c: 323: }
  7078                           ;Automated Solar Panel Orientation Setter.c: 324: }
  7079  17B8  2FFC               	goto	l9606
  7080                           	line	325
  7081                           	
  7082  17B9                     l1093:	
  7083                           	
  7084  17B9                     l9586:	
  7085                           ;Automated Solar Panel Orientation Setter.c: 325: else if(rowNo==4){
  7086  17B9  3004               	movlw	04h
  7087  17BA  0625               	xorwf	(ColomnNo@rowNo),w
  7088  17BB  0426               	iorwf	(ColomnNo@rowNo+1),w
  7089  17BC  1D03               	skipz
  7090  17BD  2FBF               	goto	u11231
  7091  17BE  2FC0               	goto	u11230
  7092  17BF                     u11231:
  7093  17BF  2FFC               	goto	l9606
  7094  17C0                     u11230:
  7095                           	line	326
  7096                           	
  7097  17C0                     l9588:	
  7098                           ;Automated Solar Panel Orientation Setter.c: 326: RC4 = 1;
  7099  17C0  1607               	bsf	(60/8),(60)&7
  7100                           	line	327
  7101                           ;Automated Solar Panel Orientation Setter.c: 327: _delay(1);
  7102                           		opt asmopt_off
  7103  17C1  0064               	clrwdt
  7104                           	opt asmopt_on
  7105                           
  7106                           	line	328
  7107                           ;Automated Solar Panel Orientation Setter.c: 328: if(RD6==1){
  7108  17C2  1283               	bcf	status, 5	;RP0=0, select bank0
  7109  17C3  1303               	bcf	status, 6	;RP1=0, select bank0
  7110  17C4  1F08               	btfss	(70/8),(70)&7
  7111  17C5  2FC7               	goto	u11241
  7112  17C6  2FC8               	goto	u11240
  7113  17C7                     u11241:
  7114  17C7  2FCE               	goto	l1100
  7115  17C8                     u11240:
  7116                           	line	329
  7117                           	
  7118  17C8                     l9590:	
  7119                           ;Automated Solar Panel Orientation Setter.c: 329: return 1;
  7120  17C8  3001               	movlw	low(01h)
  7121  17C9  00A5               	movwf	(?_ColomnNo)
  7122  17CA  3000               	movlw	high(01h)
  7123  17CB  00A6               	movwf	((?_ColomnNo))+1
  7124  17CC  2FFF               	goto	l1082
  7125                           	
  7126  17CD                     l9592:	
  7127  17CD  2FFF               	goto	l1082
  7128                           	line	330
  7129                           	
  7130  17CE                     l1100:	
  7131                           	line	331
  7132                           ;Automated Solar Panel Orientation Setter.c: 330: }
  7133                           ;Automated Solar Panel Orientation Setter.c: 331: RD5 = 1;
  7134  17CE  1688               	bsf	(69/8),(69)&7
  7135                           	line	332
  7136                           ;Automated Solar Panel Orientation Setter.c: 332: _delay(1);
  7137                           		opt asmopt_off
  7138  17CF  0064               	clrwdt
  7139                           	opt asmopt_on
  7140                           
  7141                           	line	333
  7142                           ;Automated Solar Panel Orientation Setter.c: 333: if(RD6==1){
  7143  17D0  1283               	bcf	status, 5	;RP0=0, select bank0
  7144  17D1  1303               	bcf	status, 6	;RP1=0, select bank0
  7145  17D2  1F08               	btfss	(70/8),(70)&7
  7146  17D3  2FD5               	goto	u11251
  7147  17D4  2FD6               	goto	u11250
  7148  17D5                     u11251:
  7149  17D5  2FDC               	goto	l1101
  7150  17D6                     u11250:
  7151                           	line	334
  7152                           	
  7153  17D6                     l9594:	
  7154                           ;Automated Solar Panel Orientation Setter.c: 334: return 2;
  7155  17D6  3002               	movlw	low(02h)
  7156  17D7  00A5               	movwf	(?_ColomnNo)
  7157  17D8  3000               	movlw	high(02h)
  7158  17D9  00A6               	movwf	((?_ColomnNo))+1
  7159  17DA  2FFF               	goto	l1082
  7160                           	
  7161  17DB                     l9596:	
  7162  17DB  2FFF               	goto	l1082
  7163                           	line	335
  7164                           	
  7165  17DC                     l1101:	
  7166                           	line	336
  7167                           ;Automated Solar Panel Orientation Setter.c: 335: }
  7168                           ;Automated Solar Panel Orientation Setter.c: 336: RC5 = 1;
  7169  17DC  1687               	bsf	(61/8),(61)&7
  7170                           	line	337
  7171                           ;Automated Solar Panel Orientation Setter.c: 337: _delay(1);
  7172                           		opt asmopt_off
  7173  17DD  0064               	clrwdt
  7174                           	opt asmopt_on
  7175                           
  7176                           	line	338
  7177                           ;Automated Solar Panel Orientation Setter.c: 338: if(RD6==1){
  7178  17DE  1283               	bcf	status, 5	;RP0=0, select bank0
  7179  17DF  1303               	bcf	status, 6	;RP1=0, select bank0
  7180  17E0  1F08               	btfss	(70/8),(70)&7
  7181  17E1  2FE3               	goto	u11261
  7182  17E2  2FE4               	goto	u11260
  7183  17E3                     u11261:
  7184  17E3  2FEA               	goto	l1102
  7185  17E4                     u11260:
  7186                           	line	339
  7187                           	
  7188  17E4                     l9598:	
  7189                           ;Automated Solar Panel Orientation Setter.c: 339: return 3;
  7190  17E4  3003               	movlw	low(03h)
  7191  17E5  00A5               	movwf	(?_ColomnNo)
  7192  17E6  3000               	movlw	high(03h)
  7193  17E7  00A6               	movwf	((?_ColomnNo))+1
  7194  17E8  2FFF               	goto	l1082
  7195                           	
  7196  17E9                     l9600:	
  7197  17E9  2FFF               	goto	l1082
  7198                           	line	340
  7199                           	
  7200  17EA                     l1102:	
  7201                           	line	341
  7202                           ;Automated Solar Panel Orientation Setter.c: 340: }
  7203                           ;Automated Solar Panel Orientation Setter.c: 341: RD4 = 1;
  7204  17EA  1608               	bsf	(68/8),(68)&7
  7205                           	line	342
  7206                           ;Automated Solar Panel Orientation Setter.c: 342: _delay(1);
  7207                           		opt asmopt_off
  7208  17EB  0064               	clrwdt
  7209                           	opt asmopt_on
  7210                           
  7211                           	line	343
  7212                           ;Automated Solar Panel Orientation Setter.c: 343: if(RD6==1){
  7213  17EC  1283               	bcf	status, 5	;RP0=0, select bank0
  7214  17ED  1303               	bcf	status, 6	;RP1=0, select bank0
  7215  17EE  1F08               	btfss	(70/8),(70)&7
  7216  17EF  2FF1               	goto	u11271
  7217  17F0  2FF2               	goto	u11270
  7218  17F1                     u11271:
  7219  17F1  2FFC               	goto	l9606
  7220  17F2                     u11270:
  7221                           	line	344
  7222                           	
  7223  17F2                     l9602:	
  7224                           ;Automated Solar Panel Orientation Setter.c: 344: return 4;
  7225  17F2  3004               	movlw	low(04h)
  7226  17F3  00A5               	movwf	(?_ColomnNo)
  7227  17F4  3000               	movlw	high(04h)
  7228  17F5  00A6               	movwf	((?_ColomnNo))+1
  7229  17F6  2FFF               	goto	l1082
  7230                           	
  7231  17F7                     l9604:	
  7232  17F7  2FFF               	goto	l1082
  7233                           	line	345
  7234                           	
  7235  17F8                     l1103:	
  7236  17F8  2FFC               	goto	l9606
  7237                           	line	346
  7238                           	
  7239  17F9                     l1099:	
  7240  17F9  2FFC               	goto	l9606
  7241                           	line	347
  7242                           	
  7243  17FA                     l1098:	
  7244  17FA  2FFC               	goto	l9606
  7245                           	
  7246  17FB                     l1092:	
  7247  17FB  2FFC               	goto	l9606
  7248                           	
  7249  17FC                     l1086:	
  7250                           	
  7251  17FC                     l9606:	
  7252                           ;Automated Solar Panel Orientation Setter.c: 345: }
  7253                           ;Automated Solar Panel Orientation Setter.c: 346: }
  7254                           ;Automated Solar Panel Orientation Setter.c: 347: return 0;
  7255  17FC  01A5               	clrf	(?_ColomnNo)
  7256  17FD  01A6               	clrf	(?_ColomnNo+1)
  7257  17FE  2FFF               	goto	l1082
  7258                           	
  7259  17FF                     l9608:	
  7260                           	line	348
  7261                           	
  7262  17FF                     l1082:	
  7263  17FF  0008               	return
  7264                           	opt stack 0
  7265                           GLOBAL	__end_of_ColomnNo
  7266  1800                     	__end_of_ColomnNo:
  7267 ;; =============== function _ColomnNo ends ============
  7268                           
  7269                           	signat	_ColomnNo,4218
  7270                           	global	_RotateMotorRight
  7271                           psect	text1497,local,class=CODE,delta=2
  7272                           global __ptext1497
  7273  1054                     __ptext1497:
  7274                           
  7275 ;; *************** function _RotateMotorRight *****************
  7276 ;; Defined at:
  7277 ;;		line 399 in file "D:\ELECTRONIC\2016\1. Automated Solar Panel Orientation Setter\Firmware\ver4\Automated Solar Panel
        Orientation Setter.c"
  7278 ;; Parameters:    Size  Location     Type
  7279 ;;  value           2    5[BANK0 ] int 
  7280 ;; Auto vars:     Size  Location     Type
  7281 ;;  i               2    9[BANK0 ] int 
  7282 ;; Return value:  Size  Location     Type
  7283 ;;		None               void
  7284 ;; Registers used:
  7285 ;;		wreg, status,2
  7286 ;; Tracked objects:
  7287 ;;		On entry : 0/0
  7288 ;;		On exit  : 0/0
  7289 ;;		Unchanged: 0/0
  7290 ;; Data sizes:     COMMON   BANK0   BANK1   BANK3   BANK2
  7291 ;;      Params:         0       2       0       0       0
  7292 ;;      Locals:         0       2       0       0       0
  7293 ;;      Temps:          0       2       0       0       0
  7294 ;;      Totals:         0       6       0       0       0
  7295 ;;Total ram usage:        6 bytes
  7296 ;; Hardware stack levels used:    1
  7297 ;; Hardware stack levels required when called:    4
  7298 ;; This function calls:
  7299 ;;		Nothing
  7300 ;; This function is called by:
  7301 ;;		_main
  7302 ;;		_Rotation
  7303 ;; This function uses a non-reentrant model
  7304 ;;
  7305                           psect	text1497
  7306                           	file	"D:\ELECTRONIC\2016\1. Automated Solar Panel Orientation Setter\Firmware\ver4\Auto
                                 mated Solar Panel Orientation Setter.c"
  7307                           	line	399
  7308                           	global	__size_of_RotateMotorRight
  7309  0060                     	__size_of_RotateMotorRight	equ	__end_of_RotateMotorRight-_RotateMotorRight
  7310                           	
  7311  1054                     _RotateMotorRight:	
  7312                           	opt	stack 3
  7313                           ; Regs used in _RotateMotorRight: [wreg+status,2]
  7314                           	line	401
  7315                           	
  7316  1054                     l9496:	
  7317                           ;Automated Solar Panel Orientation Setter.c: 401: int i=0;
  7318  1054  1283               	bcf	status, 5	;RP0=0, select bank0
  7319  1055  1303               	bcf	status, 6	;RP1=0, select bank0
  7320  1056  01A9               	clrf	(RotateMotorRight@i)
  7321  1057  01AA               	clrf	(RotateMotorRight@i+1)
  7322                           	line	402
  7323                           ;Automated Solar Panel Orientation Setter.c: 402: for(i=0; i<value; i++){
  7324  1058  01A9               	clrf	(RotateMotorRight@i)
  7325  1059  01AA               	clrf	(RotateMotorRight@i+1)
  7326  105A  289F               	goto	l1128
  7327                           	
  7328  105B                     l1129:	
  7329                           	line	403
  7330                           ;Automated Solar Panel Orientation Setter.c: 403: RB2=1; RB3=1; RB4=1; RB5=0;
  7331  105B  1283               	bcf	status, 5	;RP0=0, select bank0
  7332  105C  1303               	bcf	status, 6	;RP1=0, select bank0
  7333  105D  1506               	bsf	(50/8),(50)&7
  7334  105E  1586               	bsf	(51/8),(51)&7
  7335  105F  1606               	bsf	(52/8),(52)&7
  7336  1060  1286               	bcf	(53/8),(53)&7
  7337                           	line	404
  7338                           	
  7339  1061                     l9498:	
  7340                           ;Automated Solar Panel Orientation Setter.c: 404: _delay((unsigned long)((15)*(4000000/4
                                 000.0)));
  7341                           	opt asmopt_off
  7342  1061  3014               movlw	20
  7343  1062  00A8               movwf	((??_RotateMotorRight+0)+0+1),f
  7344  1063  3079               	movlw	121
  7345  1064  00A7               movwf	((??_RotateMotorRight+0)+0),f
  7346  1065                     u12477:
  7347  1065  0BA7               	decfsz	((??_RotateMotorRight+0)+0),f
  7348  1066  2865               	goto	u12477
  7349  1067  0BA8               	decfsz	((??_RotateMotorRight+0)+0+1),f
  7350  1068  2865               	goto	u12477
  7351  1069  286A               	nop2
  7352                           opt asmopt_on
  7353                           
  7354                           	line	405
  7355                           	
  7356  106A                     l9500:	
  7357                           ;Automated Solar Panel Orientation Setter.c: 405: RB2=1; RB3=1; RB4=0; RB5=1;
  7358  106A  1283               	bcf	status, 5	;RP0=0, select bank0
  7359  106B  1303               	bcf	status, 6	;RP1=0, select bank0
  7360  106C  1506               	bsf	(50/8),(50)&7
  7361                           	
  7362  106D                     l9502:	
  7363  106D  1586               	bsf	(51/8),(51)&7
  7364                           	
  7365  106E                     l9504:	
  7366  106E  1206               	bcf	(52/8),(52)&7
  7367                           	
  7368  106F                     l9506:	
  7369  106F  1686               	bsf	(53/8),(53)&7
  7370                           	line	406
  7371                           ;Automated Solar Panel Orientation Setter.c: 406: _delay((unsigned long)((15)*(4000000/4
                                 000.0)));
  7372                           	opt asmopt_off
  7373  1070  3014               movlw	20
  7374  1071  00A8               movwf	((??_RotateMotorRight+0)+0+1),f
  7375  1072  3079               	movlw	121
  7376  1073  00A7               movwf	((??_RotateMotorRight+0)+0),f
  7377  1074                     u12487:
  7378  1074  0BA7               	decfsz	((??_RotateMotorRight+0)+0),f
  7379  1075  2874               	goto	u12487
  7380  1076  0BA8               	decfsz	((??_RotateMotorRight+0)+0+1),f
  7381  1077  2874               	goto	u12487
  7382  1078  2879               	nop2
  7383                           opt asmopt_on
  7384                           
  7385                           	line	407
  7386                           	
  7387  1079                     l9508:	
  7388                           ;Automated Solar Panel Orientation Setter.c: 407: RB2=1; RB3=0; RB4=1; RB5=1;
  7389  1079  1283               	bcf	status, 5	;RP0=0, select bank0
  7390  107A  1303               	bcf	status, 6	;RP1=0, select bank0
  7391  107B  1506               	bsf	(50/8),(50)&7
  7392                           	
  7393  107C                     l9510:	
  7394  107C  1186               	bcf	(51/8),(51)&7
  7395                           	
  7396  107D                     l9512:	
  7397  107D  1606               	bsf	(52/8),(52)&7
  7398                           	
  7399  107E                     l9514:	
  7400  107E  1686               	bsf	(53/8),(53)&7
  7401                           	line	408
  7402                           ;Automated Solar Panel Orientation Setter.c: 408: _delay((unsigned long)((15)*(4000000/4
                                 000.0)));
  7403                           	opt asmopt_off
  7404  107F  3014               movlw	20
  7405  1080  00A8               movwf	((??_RotateMotorRight+0)+0+1),f
  7406  1081  3079               	movlw	121
  7407  1082  00A7               movwf	((??_RotateMotorRight+0)+0),f
  7408  1083                     u12497:
  7409  1083  0BA7               	decfsz	((??_RotateMotorRight+0)+0),f
  7410  1084  2883               	goto	u12497
  7411  1085  0BA8               	decfsz	((??_RotateMotorRight+0)+0+1),f
  7412  1086  2883               	goto	u12497
  7413  1087  2888               	nop2
  7414                           opt asmopt_on
  7415                           
  7416                           	line	409
  7417                           	
  7418  1088                     l9516:	
  7419                           ;Automated Solar Panel Orientation Setter.c: 409: RB2=0; RB3=1; RB4=1; RB5=1;
  7420  1088  1283               	bcf	status, 5	;RP0=0, select bank0
  7421  1089  1303               	bcf	status, 6	;RP1=0, select bank0
  7422  108A  1106               	bcf	(50/8),(50)&7
  7423                           	
  7424  108B                     l9518:	
  7425  108B  1586               	bsf	(51/8),(51)&7
  7426                           	
  7427  108C                     l9520:	
  7428  108C  1606               	bsf	(52/8),(52)&7
  7429                           	
  7430  108D                     l9522:	
  7431  108D  1686               	bsf	(53/8),(53)&7
  7432                           	line	410
  7433                           ;Automated Solar Panel Orientation Setter.c: 410: _delay((unsigned long)((15)*(4000000/4
                                 000.0)));
  7434                           	opt asmopt_off
  7435  108E  3014               movlw	20
  7436  108F  00A8               movwf	((??_RotateMotorRight+0)+0+1),f
  7437  1090  3079               	movlw	121
  7438  1091  00A7               movwf	((??_RotateMotorRight+0)+0),f
  7439  1092                     u12507:
  7440  1092  0BA7               	decfsz	((??_RotateMotorRight+0)+0),f
  7441  1093  2892               	goto	u12507
  7442  1094  0BA8               	decfsz	((??_RotateMotorRight+0)+0+1),f
  7443  1095  2892               	goto	u12507
  7444  1096  2897               	nop2
  7445                           opt asmopt_on
  7446                           
  7447                           	line	402
  7448  1097  3001               	movlw	low(01h)
  7449  1098  1283               	bcf	status, 5	;RP0=0, select bank0
  7450  1099  1303               	bcf	status, 6	;RP1=0, select bank0
  7451  109A  07A9               	addwf	(RotateMotorRight@i),f
  7452  109B  1803               	skipnc
  7453  109C  0AAA               	incf	(RotateMotorRight@i+1),f
  7454  109D  3000               	movlw	high(01h)
  7455  109E  07AA               	addwf	(RotateMotorRight@i+1),f
  7456                           	
  7457  109F                     l1128:	
  7458  109F  082A               	movf	(RotateMotorRight@i+1),w
  7459  10A0  3A80               	xorlw	80h
  7460  10A1  00A7               	movwf	(??_RotateMotorRight+0)+0
  7461  10A2  0826               	movf	(RotateMotorRight@value+1),w
  7462  10A3  3A80               	xorlw	80h
  7463  10A4  0227               	subwf	(??_RotateMotorRight+0)+0,w
  7464  10A5  1D03               	skipz
  7465  10A6  28A9               	goto	u11075
  7466  10A7  0825               	movf	(RotateMotorRight@value),w
  7467  10A8  0229               	subwf	(RotateMotorRight@i),w
  7468  10A9                     u11075:
  7469                           
  7470  10A9  1C03               	skipc
  7471  10AA  28AC               	goto	u11071
  7472  10AB  28AD               	goto	u11070
  7473  10AC                     u11071:
  7474  10AC  285B               	goto	l1129
  7475  10AD                     u11070:
  7476                           	
  7477  10AD                     l1130:	
  7478                           	line	412
  7479                           ;Automated Solar Panel Orientation Setter.c: 411: }
  7480                           ;Automated Solar Panel Orientation Setter.c: 412: RB2=1; RB3=1; RB4=1; RB5=1;
  7481  10AD  1283               	bcf	status, 5	;RP0=0, select bank0
  7482  10AE  1303               	bcf	status, 6	;RP1=0, select bank0
  7483  10AF  1506               	bsf	(50/8),(50)&7
  7484  10B0  1586               	bsf	(51/8),(51)&7
  7485  10B1  1606               	bsf	(52/8),(52)&7
  7486  10B2  1686               	bsf	(53/8),(53)&7
  7487                           	line	413
  7488                           	
  7489  10B3                     l1131:	
  7490  10B3  0008               	return
  7491                           	opt stack 0
  7492                           GLOBAL	__end_of_RotateMotorRight
  7493  10B4                     	__end_of_RotateMotorRight:
  7494 ;; =============== function _RotateMotorRight ends ============
  7495                           
  7496                           	signat	_RotateMotorRight,4216
  7497                           	global	_RotateMotorLeft
  7498                           psect	text1498,local,class=CODE,delta=2
  7499                           global __ptext1498
  7500  1EA0                     __ptext1498:
  7501                           
  7502 ;; *************** function _RotateMotorLeft *****************
  7503 ;; Defined at:
  7504 ;;		line 382 in file "D:\ELECTRONIC\2016\1. Automated Solar Panel Orientation Setter\Firmware\ver4\Automated Solar Panel
        Orientation Setter.c"
  7505 ;; Parameters:    Size  Location     Type
  7506 ;;  value           2    5[BANK0 ] int 
  7507 ;; Auto vars:     Size  Location     Type
  7508 ;;  i               2    9[BANK0 ] int 
  7509 ;; Return value:  Size  Location     Type
  7510 ;;		None               void
  7511 ;; Registers used:
  7512 ;;		wreg, status,2
  7513 ;; Tracked objects:
  7514 ;;		On entry : 0/0
  7515 ;;		On exit  : 0/0
  7516 ;;		Unchanged: 0/0
  7517 ;; Data sizes:     COMMON   BANK0   BANK1   BANK3   BANK2
  7518 ;;      Params:         0       2       0       0       0
  7519 ;;      Locals:         0       2       0       0       0
  7520 ;;      Temps:          0       2       0       0       0
  7521 ;;      Totals:         0       6       0       0       0
  7522 ;;Total ram usage:        6 bytes
  7523 ;; Hardware stack levels used:    1
  7524 ;; Hardware stack levels required when called:    4
  7525 ;; This function calls:
  7526 ;;		Nothing
  7527 ;; This function is called by:
  7528 ;;		_main
  7529 ;;		_Rotation
  7530 ;; This function uses a non-reentrant model
  7531 ;;
  7532                           psect	text1498
  7533                           	file	"D:\ELECTRONIC\2016\1. Automated Solar Panel Orientation Setter\Firmware\ver4\Auto
                                 mated Solar Panel Orientation Setter.c"
  7534                           	line	382
  7535                           	global	__size_of_RotateMotorLeft
  7536  0060                     	__size_of_RotateMotorLeft	equ	__end_of_RotateMotorLeft-_RotateMotorLeft
  7537                           	
  7538  1EA0                     _RotateMotorLeft:	
  7539                           	opt	stack 3
  7540                           ; Regs used in _RotateMotorLeft: [wreg+status,2]
  7541                           	line	384
  7542                           	
  7543  1EA0                     l9468:	
  7544                           ;Automated Solar Panel Orientation Setter.c: 384: int i=0;
  7545  1EA0  1283               	bcf	status, 5	;RP0=0, select bank0
  7546  1EA1  1303               	bcf	status, 6	;RP1=0, select bank0
  7547  1EA2  01A9               	clrf	(RotateMotorLeft@i)
  7548  1EA3  01AA               	clrf	(RotateMotorLeft@i+1)
  7549                           	line	385
  7550                           ;Automated Solar Panel Orientation Setter.c: 385: for(i=0; i<value; i++){
  7551  1EA4  01A9               	clrf	(RotateMotorLeft@i)
  7552  1EA5  01AA               	clrf	(RotateMotorLeft@i+1)
  7553  1EA6  2EEB               	goto	l1122
  7554                           	
  7555  1EA7                     l1123:	
  7556                           	line	386
  7557                           ;Automated Solar Panel Orientation Setter.c: 386: RB2=0; RB3=1; RB4=1; RB5=1;
  7558  1EA7  1283               	bcf	status, 5	;RP0=0, select bank0
  7559  1EA8  1303               	bcf	status, 6	;RP1=0, select bank0
  7560  1EA9  1106               	bcf	(50/8),(50)&7
  7561  1EAA  1586               	bsf	(51/8),(51)&7
  7562  1EAB  1606               	bsf	(52/8),(52)&7
  7563  1EAC  1686               	bsf	(53/8),(53)&7
  7564                           	line	387
  7565                           	
  7566  1EAD                     l9470:	
  7567                           ;Automated Solar Panel Orientation Setter.c: 387: _delay((unsigned long)((15)*(4000000/4
                                 000.0)));
  7568                           	opt asmopt_off
  7569  1EAD  3014               movlw	20
  7570  1EAE  00A8               movwf	((??_RotateMotorLeft+0)+0+1),f
  7571  1EAF  3079               	movlw	121
  7572  1EB0  00A7               movwf	((??_RotateMotorLeft+0)+0),f
  7573  1EB1                     u12517:
  7574  1EB1  0BA7               	decfsz	((??_RotateMotorLeft+0)+0),f
  7575  1EB2  2EB1               	goto	u12517
  7576  1EB3  0BA8               	decfsz	((??_RotateMotorLeft+0)+0+1),f
  7577  1EB4  2EB1               	goto	u12517
  7578  1EB5  2EB6               	nop2
  7579                           opt asmopt_on
  7580                           
  7581                           	line	388
  7582                           	
  7583  1EB6                     l9472:	
  7584                           ;Automated Solar Panel Orientation Setter.c: 388: RB2=1; RB3=0; RB4=1; RB5=1;
  7585  1EB6  1283               	bcf	status, 5	;RP0=0, select bank0
  7586  1EB7  1303               	bcf	status, 6	;RP1=0, select bank0
  7587  1EB8  1506               	bsf	(50/8),(50)&7
  7588                           	
  7589  1EB9                     l9474:	
  7590  1EB9  1186               	bcf	(51/8),(51)&7
  7591                           	
  7592  1EBA                     l9476:	
  7593  1EBA  1606               	bsf	(52/8),(52)&7
  7594                           	
  7595  1EBB                     l9478:	
  7596  1EBB  1686               	bsf	(53/8),(53)&7
  7597                           	line	389
  7598                           ;Automated Solar Panel Orientation Setter.c: 389: _delay((unsigned long)((15)*(4000000/4
                                 000.0)));
  7599                           	opt asmopt_off
  7600  1EBC  3014               movlw	20
  7601  1EBD  00A8               movwf	((??_RotateMotorLeft+0)+0+1),f
  7602  1EBE  3079               	movlw	121
  7603  1EBF  00A7               movwf	((??_RotateMotorLeft+0)+0),f
  7604  1EC0                     u12527:
  7605  1EC0  0BA7               	decfsz	((??_RotateMotorLeft+0)+0),f
  7606  1EC1  2EC0               	goto	u12527
  7607  1EC2  0BA8               	decfsz	((??_RotateMotorLeft+0)+0+1),f
  7608  1EC3  2EC0               	goto	u12527
  7609  1EC4  2EC5               	nop2
  7610                           opt asmopt_on
  7611                           
  7612                           	line	390
  7613                           	
  7614  1EC5                     l9480:	
  7615                           ;Automated Solar Panel Orientation Setter.c: 390: RB2=1; RB3=1; RB4=0; RB5=1;
  7616  1EC5  1283               	bcf	status, 5	;RP0=0, select bank0
  7617  1EC6  1303               	bcf	status, 6	;RP1=0, select bank0
  7618  1EC7  1506               	bsf	(50/8),(50)&7
  7619                           	
  7620  1EC8                     l9482:	
  7621  1EC8  1586               	bsf	(51/8),(51)&7
  7622                           	
  7623  1EC9                     l9484:	
  7624  1EC9  1206               	bcf	(52/8),(52)&7
  7625                           	
  7626  1ECA                     l9486:	
  7627  1ECA  1686               	bsf	(53/8),(53)&7
  7628                           	line	391
  7629                           ;Automated Solar Panel Orientation Setter.c: 391: _delay((unsigned long)((15)*(4000000/4
                                 000.0)));
  7630                           	opt asmopt_off
  7631  1ECB  3014               movlw	20
  7632  1ECC  00A8               movwf	((??_RotateMotorLeft+0)+0+1),f
  7633  1ECD  3079               	movlw	121
  7634  1ECE  00A7               movwf	((??_RotateMotorLeft+0)+0),f
  7635  1ECF                     u12537:
  7636  1ECF  0BA7               	decfsz	((??_RotateMotorLeft+0)+0),f
  7637  1ED0  2ECF               	goto	u12537
  7638  1ED1  0BA8               	decfsz	((??_RotateMotorLeft+0)+0+1),f
  7639  1ED2  2ECF               	goto	u12537
  7640  1ED3  2ED4               	nop2
  7641                           opt asmopt_on
  7642                           
  7643                           	line	392
  7644                           	
  7645  1ED4                     l9488:	
  7646                           ;Automated Solar Panel Orientation Setter.c: 392: RB2=1; RB3=1; RB4=1; RB5=0;
  7647  1ED4  1283               	bcf	status, 5	;RP0=0, select bank0
  7648  1ED5  1303               	bcf	status, 6	;RP1=0, select bank0
  7649  1ED6  1506               	bsf	(50/8),(50)&7
  7650                           	
  7651  1ED7                     l9490:	
  7652  1ED7  1586               	bsf	(51/8),(51)&7
  7653                           	
  7654  1ED8                     l9492:	
  7655  1ED8  1606               	bsf	(52/8),(52)&7
  7656                           	
  7657  1ED9                     l9494:	
  7658  1ED9  1286               	bcf	(53/8),(53)&7
  7659                           	line	393
  7660                           ;Automated Solar Panel Orientation Setter.c: 393: _delay((unsigned long)((15)*(4000000/4
                                 000.0)));
  7661                           	opt asmopt_off
  7662  1EDA  3014               movlw	20
  7663  1EDB  00A8               movwf	((??_RotateMotorLeft+0)+0+1),f
  7664  1EDC  3079               	movlw	121
  7665  1EDD  00A7               movwf	((??_RotateMotorLeft+0)+0),f
  7666  1EDE                     u12547:
  7667  1EDE  0BA7               	decfsz	((??_RotateMotorLeft+0)+0),f
  7668  1EDF  2EDE               	goto	u12547
  7669  1EE0  0BA8               	decfsz	((??_RotateMotorLeft+0)+0+1),f
  7670  1EE1  2EDE               	goto	u12547
  7671  1EE2  2EE3               	nop2
  7672                           opt asmopt_on
  7673                           
  7674                           	line	385
  7675  1EE3  3001               	movlw	low(01h)
  7676  1EE4  1283               	bcf	status, 5	;RP0=0, select bank0
  7677  1EE5  1303               	bcf	status, 6	;RP1=0, select bank0
  7678  1EE6  07A9               	addwf	(RotateMotorLeft@i),f
  7679  1EE7  1803               	skipnc
  7680  1EE8  0AAA               	incf	(RotateMotorLeft@i+1),f
  7681  1EE9  3000               	movlw	high(01h)
  7682  1EEA  07AA               	addwf	(RotateMotorLeft@i+1),f
  7683                           	
  7684  1EEB                     l1122:	
  7685  1EEB  082A               	movf	(RotateMotorLeft@i+1),w
  7686  1EEC  3A80               	xorlw	80h
  7687  1EED  00A7               	movwf	(??_RotateMotorLeft+0)+0
  7688  1EEE  0826               	movf	(RotateMotorLeft@value+1),w
  7689  1EEF  3A80               	xorlw	80h
  7690  1EF0  0227               	subwf	(??_RotateMotorLeft+0)+0,w
  7691  1EF1  1D03               	skipz
  7692  1EF2  2EF5               	goto	u11065
  7693  1EF3  0825               	movf	(RotateMotorLeft@value),w
  7694  1EF4  0229               	subwf	(RotateMotorLeft@i),w
  7695  1EF5                     u11065:
  7696                           
  7697  1EF5  1C03               	skipc
  7698  1EF6  2EF8               	goto	u11061
  7699  1EF7  2EF9               	goto	u11060
  7700  1EF8                     u11061:
  7701  1EF8  2EA7               	goto	l1123
  7702  1EF9                     u11060:
  7703                           	
  7704  1EF9                     l1124:	
  7705                           	line	395
  7706                           ;Automated Solar Panel Orientation Setter.c: 394: }
  7707                           ;Automated Solar Panel Orientation Setter.c: 395: RB2=1; RB3=1; RB4=1; RB5=1;
  7708  1EF9  1283               	bcf	status, 5	;RP0=0, select bank0
  7709  1EFA  1303               	bcf	status, 6	;RP1=0, select bank0
  7710  1EFB  1506               	bsf	(50/8),(50)&7
  7711  1EFC  1586               	bsf	(51/8),(51)&7
  7712  1EFD  1606               	bsf	(52/8),(52)&7
  7713  1EFE  1686               	bsf	(53/8),(53)&7
  7714                           	line	397
  7715                           	
  7716  1EFF                     l1125:	
  7717  1EFF  0008               	return
  7718                           	opt stack 0
  7719                           GLOBAL	__end_of_RotateMotorLeft
  7720  1F00                     	__end_of_RotateMotorLeft:
  7721 ;; =============== function _RotateMotorLeft ends ============
  7722                           
  7723                           	signat	_RotateMotorLeft,4216
  7724                           	global	_Serial_Print_Int
  7725                           psect	text1499,local,class=CODE,delta=2
  7726                           global __ptext1499
  7727  0AA6                     __ptext1499:
  7728                           
  7729 ;; *************** function _Serial_Print_Int *****************
  7730 ;; Defined at:
  7731 ;;		line 141 in file "D:\ELECTRONIC\2016\1. Automated Solar Panel Orientation Setter\Firmware\ver4\serial.h"
  7732 ;; Parameters:    Size  Location     Type
  7733 ;;  val             2   14[BANK0 ] int 
  7734 ;; Auto vars:     Size  Location     Type
  7735 ;;		None
  7736 ;; Return value:  Size  Location     Type
  7737 ;;		None               void
  7738 ;; Registers used:
  7739 ;;		wreg, status,2, status,0, btemp+1, pclath, cstack
  7740 ;; Tracked objects:
  7741 ;;		On entry : 0/0
  7742 ;;		On exit  : 0/0
  7743 ;;		Unchanged: 0/0
  7744 ;; Data sizes:     COMMON   BANK0   BANK1   BANK3   BANK2
  7745 ;;      Params:         0       2       0       0       0
  7746 ;;      Locals:         0       0       0       0       0
  7747 ;;      Temps:          0       1       0       0       0
  7748 ;;      Totals:         0       3       0       0       0
  7749 ;;Total ram usage:        3 bytes
  7750 ;; Hardware stack levels used:    1
  7751 ;; Hardware stack levels required when called:    5
  7752 ;; This function calls:
  7753 ;;		___awdiv
  7754 ;;		___awmod
  7755 ;; This function is called by:
  7756 ;;		_main
  7757 ;; This function uses a non-reentrant model
  7758 ;;
  7759                           psect	text1499
  7760                           	file	"D:\ELECTRONIC\2016\1. Automated Solar Panel Orientation Setter\Firmware\ver4\seri
                                 al.h"
  7761                           	line	141
  7762                           	global	__size_of_Serial_Print_Int
  7763  029F                     	__size_of_Serial_Print_Int	equ	__end_of_Serial_Print_Int-_Serial_Print_Int
  7764                           	
  7765  0AA6                     _Serial_Print_Int:	
  7766                           	opt	stack 2
  7767                           ; Regs used in _Serial_Print_Int: [wreg+status,2+status,0+btemp+1+pclath+cstack]
  7768                           	line	144
  7769                           	
  7770  0AA6                     l9378:	
  7771                           ;serial.h: 144: if(val < 0){
  7772  0AA6  1283               	bcf	status, 5	;RP0=0, select bank0
  7773  0AA7  1303               	bcf	status, 6	;RP1=0, select bank0
  7774  0AA8  1FAF               	btfss	(Serial_Print_Int@val+1),7
  7775  0AA9  2AAB               	goto	u10891
  7776  0AAA  2AAC               	goto	u10890
  7777  0AAB                     u10891:
  7778  0AAB  2AC1               	goto	l9386
  7779  0AAC                     u10890:
  7780  0AAC  2AAE               	goto	l946
  7781                           	line	145
  7782                           	
  7783  0AAD                     l9380:	
  7784                           ;serial.h: 145: while(!TXIF);
  7785  0AAD  2AAE               	goto	l946
  7786                           	
  7787  0AAE                     l947:	
  7788                           	
  7789  0AAE                     l946:	
  7790  0AAE  1E0C               	btfss	(100/8),(100)&7
  7791  0AAF  2AB1               	goto	u10901
  7792  0AB0  2AB2               	goto	u10900
  7793  0AB1                     u10901:
  7794  0AB1  2AAE               	goto	l946
  7795  0AB2                     u10900:
  7796  0AB2  2AB3               	goto	l9382
  7797                           	
  7798  0AB3                     l948:	
  7799                           	line	146
  7800                           	
  7801  0AB3                     l9382:	
  7802                           ;serial.h: 146: TXREG = '-';
  7803  0AB3  302D               	movlw	(02Dh)
  7804  0AB4  0099               	movwf	(25)	;volatile
  7805                           	line	147
  7806                           ;serial.h: 147: _delay(10);
  7807                           	opt asmopt_off
  7808  0AB5  3003               movlw	3
  7809  0AB6  00B0               movwf	(??_Serial_Print_Int+0)+0,f
  7810  0AB7                     u12557:
  7811  0AB7  0BB0               decfsz	(??_Serial_Print_Int+0)+0,f
  7812  0AB8  2AB7               	goto	u12557
  7813                           opt asmopt_on
  7814                           
  7815                           	line	148
  7816                           	
  7817  0AB9                     l9384:	
  7818                           ;serial.h: 148: val = -val;
  7819  0AB9  1283               	bcf	status, 5	;RP0=0, select bank0
  7820  0ABA  1303               	bcf	status, 6	;RP1=0, select bank0
  7821  0ABB  09AE               	comf	(Serial_Print_Int@val),f
  7822  0ABC  09AF               	comf	(Serial_Print_Int@val+1),f
  7823  0ABD  0AAE               	incf	(Serial_Print_Int@val),f
  7824  0ABE  1903               	skipnz
  7825  0ABF  0AAF               	incf	(Serial_Print_Int@val+1),f
  7826  0AC0  2AC1               	goto	l9386
  7827                           	line	149
  7828                           	
  7829  0AC1                     l945:	
  7830                           	line	150
  7831                           	
  7832  0AC1                     l9386:	
  7833                           ;serial.h: 149: }
  7834                           ;serial.h: 150: if(val > 9999){
  7835  0AC1  082F               	movf	(Serial_Print_Int@val+1),w
  7836  0AC2  3A80               	xorlw	80h
  7837  0AC3  00FF               	movwf	btemp+1
  7838  0AC4  30A7               	movlw	(high(02710h))^80h
  7839  0AC5  027F               	subwf	btemp+1,w
  7840  0AC6  1D03               	skipz
  7841  0AC7  2ACA               	goto	u10915
  7842  0AC8  3010               	movlw	low(02710h)
  7843  0AC9  022E               	subwf	(Serial_Print_Int@val),w
  7844  0ACA                     u10915:
  7845                           
  7846  0ACA  1C03               	skipc
  7847  0ACB  2ACD               	goto	u10911
  7848  0ACC  2ACE               	goto	u10910
  7849  0ACD                     u10911:
  7850  0ACD  2BAE               	goto	l9414
  7851  0ACE                     u10910:
  7852  0ACE  2AD0               	goto	l950
  7853                           	line	151
  7854                           	
  7855  0ACF                     l9388:	
  7856                           ;serial.h: 151: while(!TXIF);
  7857  0ACF  2AD0               	goto	l950
  7858                           	
  7859  0AD0                     l951:	
  7860                           	
  7861  0AD0                     l950:	
  7862  0AD0  1283               	bcf	status, 5	;RP0=0, select bank0
  7863  0AD1  1303               	bcf	status, 6	;RP1=0, select bank0
  7864  0AD2  1E0C               	btfss	(100/8),(100)&7
  7865  0AD3  2AD5               	goto	u10921
  7866  0AD4  2AD6               	goto	u10920
  7867  0AD5                     u10921:
  7868  0AD5  2AD0               	goto	l950
  7869  0AD6                     u10920:
  7870  0AD6  2AD7               	goto	l9390
  7871                           	
  7872  0AD7                     l952:	
  7873                           	line	152
  7874                           	
  7875  0AD7                     l9390:	
  7876                           ;serial.h: 152: TXREG = val/10000+48;
  7877  0AD7  3010               	movlw	low(02710h)
  7878  0AD8  00A5               	movwf	(?___awdiv)
  7879  0AD9  3027               	movlw	high(02710h)
  7880  0ADA  00A6               	movwf	((?___awdiv))+1
  7881  0ADB  082F               	movf	(Serial_Print_Int@val+1),w
  7882  0ADC  01A8               	clrf	1+(?___awdiv)+02h
  7883  0ADD  07A8               	addwf	1+(?___awdiv)+02h
  7884  0ADE  082E               	movf	(Serial_Print_Int@val),w
  7885  0ADF  01A7               	clrf	0+(?___awdiv)+02h
  7886  0AE0  07A7               	addwf	0+(?___awdiv)+02h
  7887                           
  7888  0AE1  160A  118A  211C   	fcall	___awdiv
              120A  158A         
  7889  0AE6  1283               	bcf	status, 5	;RP0=0, select bank0
  7890  0AE7  1303               	bcf	status, 6	;RP1=0, select bank0
  7891  0AE8  0825               	movf	(0+(?___awdiv)),w
  7892  0AE9  3E30               	addlw	030h
  7893  0AEA  0099               	movwf	(25)	;volatile
  7894                           	line	153
  7895                           	
  7896  0AEB                     l9392:	
  7897                           ;serial.h: 153: _delay(10);
  7898                           	opt asmopt_off
  7899  0AEB  3003               movlw	3
  7900  0AEC  00B0               movwf	(??_Serial_Print_Int+0)+0,f
  7901  0AED                     u12567:
  7902  0AED  0BB0               decfsz	(??_Serial_Print_Int+0)+0,f
  7903  0AEE  2AED               	goto	u12567
  7904                           opt asmopt_on
  7905                           
  7906                           	line	154
  7907                           	
  7908  0AEF                     l9394:	
  7909                           ;serial.h: 154: val = val%10000;
  7910  0AEF  3010               	movlw	low(02710h)
  7911  0AF0  1283               	bcf	status, 5	;RP0=0, select bank0
  7912  0AF1  1303               	bcf	status, 6	;RP1=0, select bank0
  7913  0AF2  00A5               	movwf	(?___awmod)
  7914  0AF3  3027               	movlw	high(02710h)
  7915  0AF4  00A6               	movwf	((?___awmod))+1
  7916  0AF5  082F               	movf	(Serial_Print_Int@val+1),w
  7917  0AF6  01A8               	clrf	1+(?___awmod)+02h
  7918  0AF7  07A8               	addwf	1+(?___awmod)+02h
  7919  0AF8  082E               	movf	(Serial_Print_Int@val),w
  7920  0AF9  01A7               	clrf	0+(?___awmod)+02h
  7921  0AFA  07A7               	addwf	0+(?___awmod)+02h
  7922                           
  7923  0AFB  160A  118A  20B4   	fcall	___awmod
              120A  158A         
  7924  0B00  1283               	bcf	status, 5	;RP0=0, select bank0
  7925  0B01  1303               	bcf	status, 6	;RP1=0, select bank0
  7926  0B02  0826               	movf	(1+(?___awmod)),w
  7927  0B03  01AF               	clrf	(Serial_Print_Int@val+1)
  7928  0B04  07AF               	addwf	(Serial_Print_Int@val+1)
  7929  0B05  0825               	movf	(0+(?___awmod)),w
  7930  0B06  01AE               	clrf	(Serial_Print_Int@val)
  7931  0B07  07AE               	addwf	(Serial_Print_Int@val)
  7932                           
  7933                           	line	156
  7934                           ;serial.h: 156: while(!TXIF);
  7935  0B08  2B09               	goto	l953
  7936                           	
  7937  0B09                     l954:	
  7938                           	
  7939  0B09                     l953:	
  7940  0B09  1E0C               	btfss	(100/8),(100)&7
  7941  0B0A  2B0C               	goto	u10931
  7942  0B0B  2B0D               	goto	u10930
  7943  0B0C                     u10931:
  7944  0B0C  2B09               	goto	l953
  7945  0B0D                     u10930:
  7946  0B0D  2B0E               	goto	l9396
  7947                           	
  7948  0B0E                     l955:	
  7949                           	line	157
  7950                           	
  7951  0B0E                     l9396:	
  7952                           ;serial.h: 157: TXREG = val/1000+48;
  7953  0B0E  30E8               	movlw	low(03E8h)
  7954  0B0F  00A5               	movwf	(?___awdiv)
  7955  0B10  3003               	movlw	high(03E8h)
  7956  0B11  00A6               	movwf	((?___awdiv))+1
  7957  0B12  082F               	movf	(Serial_Print_Int@val+1),w
  7958  0B13  01A8               	clrf	1+(?___awdiv)+02h
  7959  0B14  07A8               	addwf	1+(?___awdiv)+02h
  7960  0B15  082E               	movf	(Serial_Print_Int@val),w
  7961  0B16  01A7               	clrf	0+(?___awdiv)+02h
  7962  0B17  07A7               	addwf	0+(?___awdiv)+02h
  7963                           
  7964  0B18  160A  118A  211C   	fcall	___awdiv
              120A  158A         
  7965  0B1D  1283               	bcf	status, 5	;RP0=0, select bank0
  7966  0B1E  1303               	bcf	status, 6	;RP1=0, select bank0
  7967  0B1F  0825               	movf	(0+(?___awdiv)),w
  7968  0B20  3E30               	addlw	030h
  7969  0B21  0099               	movwf	(25)	;volatile
  7970                           	line	158
  7971                           	
  7972  0B22                     l9398:	
  7973                           ;serial.h: 158: _delay(10);
  7974                           	opt asmopt_off
  7975  0B22  3003               movlw	3
  7976  0B23  00B0               movwf	(??_Serial_Print_Int+0)+0,f
  7977  0B24                     u12577:
  7978  0B24  0BB0               decfsz	(??_Serial_Print_Int+0)+0,f
  7979  0B25  2B24               	goto	u12577
  7980                           opt asmopt_on
  7981                           
  7982                           	line	159
  7983                           	
  7984  0B26                     l9400:	
  7985                           ;serial.h: 159: val = val%1000;
  7986  0B26  30E8               	movlw	low(03E8h)
  7987  0B27  1283               	bcf	status, 5	;RP0=0, select bank0
  7988  0B28  1303               	bcf	status, 6	;RP1=0, select bank0
  7989  0B29  00A5               	movwf	(?___awmod)
  7990  0B2A  3003               	movlw	high(03E8h)
  7991  0B2B  00A6               	movwf	((?___awmod))+1
  7992  0B2C  082F               	movf	(Serial_Print_Int@val+1),w
  7993  0B2D  01A8               	clrf	1+(?___awmod)+02h
  7994  0B2E  07A8               	addwf	1+(?___awmod)+02h
  7995  0B2F  082E               	movf	(Serial_Print_Int@val),w
  7996  0B30  01A7               	clrf	0+(?___awmod)+02h
  7997  0B31  07A7               	addwf	0+(?___awmod)+02h
  7998                           
  7999  0B32  160A  118A  20B4   	fcall	___awmod
              120A  158A         
  8000  0B37  1283               	bcf	status, 5	;RP0=0, select bank0
  8001  0B38  1303               	bcf	status, 6	;RP1=0, select bank0
  8002  0B39  0826               	movf	(1+(?___awmod)),w
  8003  0B3A  01AF               	clrf	(Serial_Print_Int@val+1)
  8004  0B3B  07AF               	addwf	(Serial_Print_Int@val+1)
  8005  0B3C  0825               	movf	(0+(?___awmod)),w
  8006  0B3D  01AE               	clrf	(Serial_Print_Int@val)
  8007  0B3E  07AE               	addwf	(Serial_Print_Int@val)
  8008                           
  8009                           	line	161
  8010                           ;serial.h: 161: while(!TXIF);
  8011  0B3F  2B40               	goto	l956
  8012                           	
  8013  0B40                     l957:	
  8014                           	
  8015  0B40                     l956:	
  8016  0B40  1E0C               	btfss	(100/8),(100)&7
  8017  0B41  2B43               	goto	u10941
  8018  0B42  2B44               	goto	u10940
  8019  0B43                     u10941:
  8020  0B43  2B40               	goto	l956
  8021  0B44                     u10940:
  8022  0B44  2B45               	goto	l9402
  8023                           	
  8024  0B45                     l958:	
  8025                           	line	162
  8026                           	
  8027  0B45                     l9402:	
  8028                           ;serial.h: 162: TXREG = val/100+48;
  8029  0B45  3064               	movlw	low(064h)
  8030  0B46  00A5               	movwf	(?___awdiv)
  8031  0B47  3000               	movlw	high(064h)
  8032  0B48  00A6               	movwf	((?___awdiv))+1
  8033  0B49  082F               	movf	(Serial_Print_Int@val+1),w
  8034  0B4A  01A8               	clrf	1+(?___awdiv)+02h
  8035  0B4B  07A8               	addwf	1+(?___awdiv)+02h
  8036  0B4C  082E               	movf	(Serial_Print_Int@val),w
  8037  0B4D  01A7               	clrf	0+(?___awdiv)+02h
  8038  0B4E  07A7               	addwf	0+(?___awdiv)+02h
  8039                           
  8040  0B4F  160A  118A  211C   	fcall	___awdiv
              120A  158A         
  8041  0B54  1283               	bcf	status, 5	;RP0=0, select bank0
  8042  0B55  1303               	bcf	status, 6	;RP1=0, select bank0
  8043  0B56  0825               	movf	(0+(?___awdiv)),w
  8044  0B57  3E30               	addlw	030h
  8045  0B58  0099               	movwf	(25)	;volatile
  8046                           	line	163
  8047                           	
  8048  0B59                     l9404:	
  8049                           ;serial.h: 163: _delay(10);
  8050                           	opt asmopt_off
  8051  0B59  3003               movlw	3
  8052  0B5A  00B0               movwf	(??_Serial_Print_Int+0)+0,f
  8053  0B5B                     u12587:
  8054  0B5B  0BB0               decfsz	(??_Serial_Print_Int+0)+0,f
  8055  0B5C  2B5B               	goto	u12587
  8056                           opt asmopt_on
  8057                           
  8058                           	line	164
  8059                           	
  8060  0B5D                     l9406:	
  8061                           ;serial.h: 164: val = val%100;
  8062  0B5D  3064               	movlw	low(064h)
  8063  0B5E  1283               	bcf	status, 5	;RP0=0, select bank0
  8064  0B5F  1303               	bcf	status, 6	;RP1=0, select bank0
  8065  0B60  00A5               	movwf	(?___awmod)
  8066  0B61  3000               	movlw	high(064h)
  8067  0B62  00A6               	movwf	((?___awmod))+1
  8068  0B63  082F               	movf	(Serial_Print_Int@val+1),w
  8069  0B64  01A8               	clrf	1+(?___awmod)+02h
  8070  0B65  07A8               	addwf	1+(?___awmod)+02h
  8071  0B66  082E               	movf	(Serial_Print_Int@val),w
  8072  0B67  01A7               	clrf	0+(?___awmod)+02h
  8073  0B68  07A7               	addwf	0+(?___awmod)+02h
  8074                           
  8075  0B69  160A  118A  20B4   	fcall	___awmod
              120A  158A         
  8076  0B6E  1283               	bcf	status, 5	;RP0=0, select bank0
  8077  0B6F  1303               	bcf	status, 6	;RP1=0, select bank0
  8078  0B70  0826               	movf	(1+(?___awmod)),w
  8079  0B71  01AF               	clrf	(Serial_Print_Int@val+1)
  8080  0B72  07AF               	addwf	(Serial_Print_Int@val+1)
  8081  0B73  0825               	movf	(0+(?___awmod)),w
  8082  0B74  01AE               	clrf	(Serial_Print_Int@val)
  8083  0B75  07AE               	addwf	(Serial_Print_Int@val)
  8084                           
  8085                           	line	166
  8086                           ;serial.h: 166: while(!TXIF);
  8087  0B76  2B77               	goto	l959
  8088                           	
  8089  0B77                     l960:	
  8090                           	
  8091  0B77                     l959:	
  8092  0B77  1E0C               	btfss	(100/8),(100)&7
  8093  0B78  2B7A               	goto	u10951
  8094  0B79  2B7B               	goto	u10950
  8095  0B7A                     u10951:
  8096  0B7A  2B77               	goto	l959
  8097  0B7B                     u10950:
  8098  0B7B  2B7C               	goto	l9408
  8099                           	
  8100  0B7C                     l961:	
  8101                           	line	167
  8102                           	
  8103  0B7C                     l9408:	
  8104                           ;serial.h: 167: TXREG = val/10+48;
  8105  0B7C  300A               	movlw	low(0Ah)
  8106  0B7D  00A5               	movwf	(?___awdiv)
  8107  0B7E  3000               	movlw	high(0Ah)
  8108  0B7F  00A6               	movwf	((?___awdiv))+1
  8109  0B80  082F               	movf	(Serial_Print_Int@val+1),w
  8110  0B81  01A8               	clrf	1+(?___awdiv)+02h
  8111  0B82  07A8               	addwf	1+(?___awdiv)+02h
  8112  0B83  082E               	movf	(Serial_Print_Int@val),w
  8113  0B84  01A7               	clrf	0+(?___awdiv)+02h
  8114  0B85  07A7               	addwf	0+(?___awdiv)+02h
  8115                           
  8116  0B86  160A  118A  211C   	fcall	___awdiv
              120A  158A         
  8117  0B8B  1283               	bcf	status, 5	;RP0=0, select bank0
  8118  0B8C  1303               	bcf	status, 6	;RP1=0, select bank0
  8119  0B8D  0825               	movf	(0+(?___awdiv)),w
  8120  0B8E  3E30               	addlw	030h
  8121  0B8F  0099               	movwf	(25)	;volatile
  8122                           	line	168
  8123                           	
  8124  0B90                     l9410:	
  8125                           ;serial.h: 168: _delay(10);
  8126                           	opt asmopt_off
  8127  0B90  3003               movlw	3
  8128  0B91  00B0               movwf	(??_Serial_Print_Int+0)+0,f
  8129  0B92                     u12597:
  8130  0B92  0BB0               decfsz	(??_Serial_Print_Int+0)+0,f
  8131  0B93  2B92               	goto	u12597
  8132                           opt asmopt_on
  8133                           
  8134                           	line	169
  8135                           	
  8136  0B94                     l9412:	
  8137                           ;serial.h: 169: val = val%10;
  8138  0B94  300A               	movlw	low(0Ah)
  8139  0B95  1283               	bcf	status, 5	;RP0=0, select bank0
  8140  0B96  1303               	bcf	status, 6	;RP1=0, select bank0
  8141  0B97  00A5               	movwf	(?___awmod)
  8142  0B98  3000               	movlw	high(0Ah)
  8143  0B99  00A6               	movwf	((?___awmod))+1
  8144  0B9A  082F               	movf	(Serial_Print_Int@val+1),w
  8145  0B9B  01A8               	clrf	1+(?___awmod)+02h
  8146  0B9C  07A8               	addwf	1+(?___awmod)+02h
  8147  0B9D  082E               	movf	(Serial_Print_Int@val),w
  8148  0B9E  01A7               	clrf	0+(?___awmod)+02h
  8149  0B9F  07A7               	addwf	0+(?___awmod)+02h
  8150                           
  8151  0BA0  160A  118A  20B4   	fcall	___awmod
              120A  158A         
  8152  0BA5  1283               	bcf	status, 5	;RP0=0, select bank0
  8153  0BA6  1303               	bcf	status, 6	;RP1=0, select bank0
  8154  0BA7  0826               	movf	(1+(?___awmod)),w
  8155  0BA8  01AF               	clrf	(Serial_Print_Int@val+1)
  8156  0BA9  07AF               	addwf	(Serial_Print_Int@val+1)
  8157  0BAA  0825               	movf	(0+(?___awmod)),w
  8158  0BAB  01AE               	clrf	(Serial_Print_Int@val)
  8159  0BAC  07AE               	addwf	(Serial_Print_Int@val)
  8160                           
  8161                           	line	170
  8162                           ;serial.h: 170: }
  8163  0BAD  2D35               	goto	l986
  8164                           	line	171
  8165                           	
  8166  0BAE                     l949:	
  8167                           	
  8168  0BAE                     l9414:	
  8169                           ;serial.h: 171: else if(val > 999){
  8170  0BAE  1283               	bcf	status, 5	;RP0=0, select bank0
  8171  0BAF  1303               	bcf	status, 6	;RP1=0, select bank0
  8172  0BB0  082F               	movf	(Serial_Print_Int@val+1),w
  8173  0BB1  3A80               	xorlw	80h
  8174  0BB2  00FF               	movwf	btemp+1
  8175  0BB3  3083               	movlw	(high(03E8h))^80h
  8176  0BB4  027F               	subwf	btemp+1,w
  8177  0BB5  1D03               	skipz
  8178  0BB6  2BB9               	goto	u10965
  8179  0BB7  30E8               	movlw	low(03E8h)
  8180  0BB8  022E               	subwf	(Serial_Print_Int@val),w
  8181  0BB9                     u10965:
  8182                           
  8183  0BB9  1C03               	skipc
  8184  0BBA  2BBC               	goto	u10961
  8185  0BBB  2BBD               	goto	u10960
  8186  0BBC                     u10961:
  8187  0BBC  2C66               	goto	l9436
  8188  0BBD                     u10960:
  8189  0BBD  2BBF               	goto	l964
  8190                           	line	172
  8191                           	
  8192  0BBE                     l9416:	
  8193                           ;serial.h: 172: while(!TXIF);
  8194  0BBE  2BBF               	goto	l964
  8195                           	
  8196  0BBF                     l965:	
  8197                           	
  8198  0BBF                     l964:	
  8199  0BBF  1283               	bcf	status, 5	;RP0=0, select bank0
  8200  0BC0  1303               	bcf	status, 6	;RP1=0, select bank0
  8201  0BC1  1E0C               	btfss	(100/8),(100)&7
  8202  0BC2  2BC4               	goto	u10971
  8203  0BC3  2BC5               	goto	u10970
  8204  0BC4                     u10971:
  8205  0BC4  2BBF               	goto	l964
  8206  0BC5                     u10970:
  8207  0BC5  2BC6               	goto	l9418
  8208                           	
  8209  0BC6                     l966:	
  8210                           	line	173
  8211                           	
  8212  0BC6                     l9418:	
  8213                           ;serial.h: 173: TXREG = val/1000+48;
  8214  0BC6  30E8               	movlw	low(03E8h)
  8215  0BC7  00A5               	movwf	(?___awdiv)
  8216  0BC8  3003               	movlw	high(03E8h)
  8217  0BC9  00A6               	movwf	((?___awdiv))+1
  8218  0BCA  082F               	movf	(Serial_Print_Int@val+1),w
  8219  0BCB  01A8               	clrf	1+(?___awdiv)+02h
  8220  0BCC  07A8               	addwf	1+(?___awdiv)+02h
  8221  0BCD  082E               	movf	(Serial_Print_Int@val),w
  8222  0BCE  01A7               	clrf	0+(?___awdiv)+02h
  8223  0BCF  07A7               	addwf	0+(?___awdiv)+02h
  8224                           
  8225  0BD0  160A  118A  211C   	fcall	___awdiv
              120A  158A         
  8226  0BD5  1283               	bcf	status, 5	;RP0=0, select bank0
  8227  0BD6  1303               	bcf	status, 6	;RP1=0, select bank0
  8228  0BD7  0825               	movf	(0+(?___awdiv)),w
  8229  0BD8  3E30               	addlw	030h
  8230  0BD9  0099               	movwf	(25)	;volatile
  8231                           	line	174
  8232                           	
  8233  0BDA                     l9420:	
  8234                           ;serial.h: 174: _delay(10);
  8235                           	opt asmopt_off
  8236  0BDA  3003               movlw	3
  8237  0BDB  00B0               movwf	(??_Serial_Print_Int+0)+0,f
  8238  0BDC                     u12607:
  8239  0BDC  0BB0               decfsz	(??_Serial_Print_Int+0)+0,f
  8240  0BDD  2BDC               	goto	u12607
  8241                           opt asmopt_on
  8242                           
  8243                           	line	175
  8244                           	
  8245  0BDE                     l9422:	
  8246                           ;serial.h: 175: val = val%1000;
  8247  0BDE  30E8               	movlw	low(03E8h)
  8248  0BDF  1283               	bcf	status, 5	;RP0=0, select bank0
  8249  0BE0  1303               	bcf	status, 6	;RP1=0, select bank0
  8250  0BE1  00A5               	movwf	(?___awmod)
  8251  0BE2  3003               	movlw	high(03E8h)
  8252  0BE3  00A6               	movwf	((?___awmod))+1
  8253  0BE4  082F               	movf	(Serial_Print_Int@val+1),w
  8254  0BE5  01A8               	clrf	1+(?___awmod)+02h
  8255  0BE6  07A8               	addwf	1+(?___awmod)+02h
  8256  0BE7  082E               	movf	(Serial_Print_Int@val),w
  8257  0BE8  01A7               	clrf	0+(?___awmod)+02h
  8258  0BE9  07A7               	addwf	0+(?___awmod)+02h
  8259                           
  8260  0BEA  160A  118A  20B4   	fcall	___awmod
              120A  158A         
  8261  0BEF  1283               	bcf	status, 5	;RP0=0, select bank0
  8262  0BF0  1303               	bcf	status, 6	;RP1=0, select bank0
  8263  0BF1  0826               	movf	(1+(?___awmod)),w
  8264  0BF2  01AF               	clrf	(Serial_Print_Int@val+1)
  8265  0BF3  07AF               	addwf	(Serial_Print_Int@val+1)
  8266  0BF4  0825               	movf	(0+(?___awmod)),w
  8267  0BF5  01AE               	clrf	(Serial_Print_Int@val)
  8268  0BF6  07AE               	addwf	(Serial_Print_Int@val)
  8269                           
  8270                           	line	177
  8271                           ;serial.h: 177: while(!TXIF);
  8272  0BF7  2BF8               	goto	l967
  8273                           	
  8274  0BF8                     l968:	
  8275                           	
  8276  0BF8                     l967:	
  8277  0BF8  1E0C               	btfss	(100/8),(100)&7
  8278  0BF9  2BFB               	goto	u10981
  8279  0BFA  2BFC               	goto	u10980
  8280  0BFB                     u10981:
  8281  0BFB  2BF8               	goto	l967
  8282  0BFC                     u10980:
  8283  0BFC  2BFD               	goto	l9424
  8284                           	
  8285  0BFD                     l969:	
  8286                           	line	178
  8287                           	
  8288  0BFD                     l9424:	
  8289                           ;serial.h: 178: TXREG = val/100+48;
  8290  0BFD  3064               	movlw	low(064h)
  8291  0BFE  00A5               	movwf	(?___awdiv)
  8292  0BFF  3000               	movlw	high(064h)
  8293  0C00  00A6               	movwf	((?___awdiv))+1
  8294  0C01  082F               	movf	(Serial_Print_Int@val+1),w
  8295  0C02  01A8               	clrf	1+(?___awdiv)+02h
  8296  0C03  07A8               	addwf	1+(?___awdiv)+02h
  8297  0C04  082E               	movf	(Serial_Print_Int@val),w
  8298  0C05  01A7               	clrf	0+(?___awdiv)+02h
  8299  0C06  07A7               	addwf	0+(?___awdiv)+02h
  8300                           
  8301  0C07  160A  118A  211C   	fcall	___awdiv
              120A  158A         
  8302  0C0C  1283               	bcf	status, 5	;RP0=0, select bank0
  8303  0C0D  1303               	bcf	status, 6	;RP1=0, select bank0
  8304  0C0E  0825               	movf	(0+(?___awdiv)),w
  8305  0C0F  3E30               	addlw	030h
  8306  0C10  0099               	movwf	(25)	;volatile
  8307                           	line	179
  8308                           	
  8309  0C11                     l9426:	
  8310                           ;serial.h: 179: _delay(10);
  8311                           	opt asmopt_off
  8312  0C11  3003               movlw	3
  8313  0C12  00B0               movwf	(??_Serial_Print_Int+0)+0,f
  8314  0C13                     u12617:
  8315  0C13  0BB0               decfsz	(??_Serial_Print_Int+0)+0,f
  8316  0C14  2C13               	goto	u12617
  8317                           opt asmopt_on
  8318                           
  8319                           	line	180
  8320                           	
  8321  0C15                     l9428:	
  8322                           ;serial.h: 180: val = val%100;
  8323  0C15  3064               	movlw	low(064h)
  8324  0C16  1283               	bcf	status, 5	;RP0=0, select bank0
  8325  0C17  1303               	bcf	status, 6	;RP1=0, select bank0
  8326  0C18  00A5               	movwf	(?___awmod)
  8327  0C19  3000               	movlw	high(064h)
  8328  0C1A  00A6               	movwf	((?___awmod))+1
  8329  0C1B  082F               	movf	(Serial_Print_Int@val+1),w
  8330  0C1C  01A8               	clrf	1+(?___awmod)+02h
  8331  0C1D  07A8               	addwf	1+(?___awmod)+02h
  8332  0C1E  082E               	movf	(Serial_Print_Int@val),w
  8333  0C1F  01A7               	clrf	0+(?___awmod)+02h
  8334  0C20  07A7               	addwf	0+(?___awmod)+02h
  8335                           
  8336  0C21  160A  118A  20B4   	fcall	___awmod
              120A  158A         
  8337  0C26  1283               	bcf	status, 5	;RP0=0, select bank0
  8338  0C27  1303               	bcf	status, 6	;RP1=0, select bank0
  8339  0C28  0826               	movf	(1+(?___awmod)),w
  8340  0C29  01AF               	clrf	(Serial_Print_Int@val+1)
  8341  0C2A  07AF               	addwf	(Serial_Print_Int@val+1)
  8342  0C2B  0825               	movf	(0+(?___awmod)),w
  8343  0C2C  01AE               	clrf	(Serial_Print_Int@val)
  8344  0C2D  07AE               	addwf	(Serial_Print_Int@val)
  8345                           
  8346                           	line	182
  8347                           ;serial.h: 182: while(!TXIF);
  8348  0C2E  2C2F               	goto	l970
  8349                           	
  8350  0C2F                     l971:	
  8351                           	
  8352  0C2F                     l970:	
  8353  0C2F  1E0C               	btfss	(100/8),(100)&7
  8354  0C30  2C32               	goto	u10991
  8355  0C31  2C33               	goto	u10990
  8356  0C32                     u10991:
  8357  0C32  2C2F               	goto	l970
  8358  0C33                     u10990:
  8359  0C33  2C34               	goto	l9430
  8360                           	
  8361  0C34                     l972:	
  8362                           	line	183
  8363                           	
  8364  0C34                     l9430:	
  8365                           ;serial.h: 183: TXREG = val/10+48;
  8366  0C34  300A               	movlw	low(0Ah)
  8367  0C35  00A5               	movwf	(?___awdiv)
  8368  0C36  3000               	movlw	high(0Ah)
  8369  0C37  00A6               	movwf	((?___awdiv))+1
  8370  0C38  082F               	movf	(Serial_Print_Int@val+1),w
  8371  0C39  01A8               	clrf	1+(?___awdiv)+02h
  8372  0C3A  07A8               	addwf	1+(?___awdiv)+02h
  8373  0C3B  082E               	movf	(Serial_Print_Int@val),w
  8374  0C3C  01A7               	clrf	0+(?___awdiv)+02h
  8375  0C3D  07A7               	addwf	0+(?___awdiv)+02h
  8376                           
  8377  0C3E  160A  118A  211C   	fcall	___awdiv
              120A  158A         
  8378  0C43  1283               	bcf	status, 5	;RP0=0, select bank0
  8379  0C44  1303               	bcf	status, 6	;RP1=0, select bank0
  8380  0C45  0825               	movf	(0+(?___awdiv)),w
  8381  0C46  3E30               	addlw	030h
  8382  0C47  0099               	movwf	(25)	;volatile
  8383                           	line	184
  8384                           	
  8385  0C48                     l9432:	
  8386                           ;serial.h: 184: _delay(10);
  8387                           	opt asmopt_off
  8388  0C48  3003               movlw	3
  8389  0C49  00B0               movwf	(??_Serial_Print_Int+0)+0,f
  8390  0C4A                     u12627:
  8391  0C4A  0BB0               decfsz	(??_Serial_Print_Int+0)+0,f
  8392  0C4B  2C4A               	goto	u12627
  8393                           opt asmopt_on
  8394                           
  8395                           	line	185
  8396                           	
  8397  0C4C                     l9434:	
  8398                           ;serial.h: 185: val = val%10;
  8399  0C4C  300A               	movlw	low(0Ah)
  8400  0C4D  1283               	bcf	status, 5	;RP0=0, select bank0
  8401  0C4E  1303               	bcf	status, 6	;RP1=0, select bank0
  8402  0C4F  00A5               	movwf	(?___awmod)
  8403  0C50  3000               	movlw	high(0Ah)
  8404  0C51  00A6               	movwf	((?___awmod))+1
  8405  0C52  082F               	movf	(Serial_Print_Int@val+1),w
  8406  0C53  01A8               	clrf	1+(?___awmod)+02h
  8407  0C54  07A8               	addwf	1+(?___awmod)+02h
  8408  0C55  082E               	movf	(Serial_Print_Int@val),w
  8409  0C56  01A7               	clrf	0+(?___awmod)+02h
  8410  0C57  07A7               	addwf	0+(?___awmod)+02h
  8411                           
  8412  0C58  160A  118A  20B4   	fcall	___awmod
              120A  158A         
  8413  0C5D  1283               	bcf	status, 5	;RP0=0, select bank0
  8414  0C5E  1303               	bcf	status, 6	;RP1=0, select bank0
  8415  0C5F  0826               	movf	(1+(?___awmod)),w
  8416  0C60  01AF               	clrf	(Serial_Print_Int@val+1)
  8417  0C61  07AF               	addwf	(Serial_Print_Int@val+1)
  8418  0C62  0825               	movf	(0+(?___awmod)),w
  8419  0C63  01AE               	clrf	(Serial_Print_Int@val)
  8420  0C64  07AE               	addwf	(Serial_Print_Int@val)
  8421                           
  8422                           	line	186
  8423                           ;serial.h: 186: }
  8424  0C65  2D35               	goto	l986
  8425                           	line	187
  8426                           	
  8427  0C66                     l963:	
  8428                           	
  8429  0C66                     l9436:	
  8430                           ;serial.h: 187: else if(val > 99){
  8431  0C66  1283               	bcf	status, 5	;RP0=0, select bank0
  8432  0C67  1303               	bcf	status, 6	;RP1=0, select bank0
  8433  0C68  082F               	movf	(Serial_Print_Int@val+1),w
  8434  0C69  3A80               	xorlw	80h
  8435  0C6A  00FF               	movwf	btemp+1
  8436  0C6B  3080               	movlw	(high(064h))^80h
  8437  0C6C  027F               	subwf	btemp+1,w
  8438  0C6D  1D03               	skipz
  8439  0C6E  2C71               	goto	u11005
  8440  0C6F  3064               	movlw	low(064h)
  8441  0C70  022E               	subwf	(Serial_Print_Int@val),w
  8442  0C71                     u11005:
  8443                           
  8444  0C71  1C03               	skipc
  8445  0C72  2C74               	goto	u11001
  8446  0C73  2C75               	goto	u11000
  8447  0C74                     u11001:
  8448  0C74  2CE7               	goto	l9452
  8449  0C75                     u11000:
  8450  0C75  2C77               	goto	l975
  8451                           	line	188
  8452                           	
  8453  0C76                     l9438:	
  8454                           ;serial.h: 188: while(!TXIF);
  8455  0C76  2C77               	goto	l975
  8456                           	
  8457  0C77                     l976:	
  8458                           	
  8459  0C77                     l975:	
  8460  0C77  1283               	bcf	status, 5	;RP0=0, select bank0
  8461  0C78  1303               	bcf	status, 6	;RP1=0, select bank0
  8462  0C79  1E0C               	btfss	(100/8),(100)&7
  8463  0C7A  2C7C               	goto	u11011
  8464  0C7B  2C7D               	goto	u11010
  8465  0C7C                     u11011:
  8466  0C7C  2C77               	goto	l975
  8467  0C7D                     u11010:
  8468  0C7D  2C7E               	goto	l9440
  8469                           	
  8470  0C7E                     l977:	
  8471                           	line	189
  8472                           	
  8473  0C7E                     l9440:	
  8474                           ;serial.h: 189: TXREG = val/100+48;
  8475  0C7E  3064               	movlw	low(064h)
  8476  0C7F  00A5               	movwf	(?___awdiv)
  8477  0C80  3000               	movlw	high(064h)
  8478  0C81  00A6               	movwf	((?___awdiv))+1
  8479  0C82  082F               	movf	(Serial_Print_Int@val+1),w
  8480  0C83  01A8               	clrf	1+(?___awdiv)+02h
  8481  0C84  07A8               	addwf	1+(?___awdiv)+02h
  8482  0C85  082E               	movf	(Serial_Print_Int@val),w
  8483  0C86  01A7               	clrf	0+(?___awdiv)+02h
  8484  0C87  07A7               	addwf	0+(?___awdiv)+02h
  8485                           
  8486  0C88  160A  118A  211C   	fcall	___awdiv
              120A  158A         
  8487  0C8D  1283               	bcf	status, 5	;RP0=0, select bank0
  8488  0C8E  1303               	bcf	status, 6	;RP1=0, select bank0
  8489  0C8F  0825               	movf	(0+(?___awdiv)),w
  8490  0C90  3E30               	addlw	030h
  8491  0C91  0099               	movwf	(25)	;volatile
  8492                           	line	190
  8493                           	
  8494  0C92                     l9442:	
  8495                           ;serial.h: 190: _delay(10);
  8496                           	opt asmopt_off
  8497  0C92  3003               movlw	3
  8498  0C93  00B0               movwf	(??_Serial_Print_Int+0)+0,f
  8499  0C94                     u12637:
  8500  0C94  0BB0               decfsz	(??_Serial_Print_Int+0)+0,f
  8501  0C95  2C94               	goto	u12637
  8502                           opt asmopt_on
  8503                           
  8504                           	line	191
  8505                           	
  8506  0C96                     l9444:	
  8507                           ;serial.h: 191: val = val%100;
  8508  0C96  3064               	movlw	low(064h)
  8509  0C97  1283               	bcf	status, 5	;RP0=0, select bank0
  8510  0C98  1303               	bcf	status, 6	;RP1=0, select bank0
  8511  0C99  00A5               	movwf	(?___awmod)
  8512  0C9A  3000               	movlw	high(064h)
  8513  0C9B  00A6               	movwf	((?___awmod))+1
  8514  0C9C  082F               	movf	(Serial_Print_Int@val+1),w
  8515  0C9D  01A8               	clrf	1+(?___awmod)+02h
  8516  0C9E  07A8               	addwf	1+(?___awmod)+02h
  8517  0C9F  082E               	movf	(Serial_Print_Int@val),w
  8518  0CA0  01A7               	clrf	0+(?___awmod)+02h
  8519  0CA1  07A7               	addwf	0+(?___awmod)+02h
  8520                           
  8521  0CA2  160A  118A  20B4   	fcall	___awmod
              120A  158A         
  8522  0CA7  1283               	bcf	status, 5	;RP0=0, select bank0
  8523  0CA8  1303               	bcf	status, 6	;RP1=0, select bank0
  8524  0CA9  0826               	movf	(1+(?___awmod)),w
  8525  0CAA  01AF               	clrf	(Serial_Print_Int@val+1)
  8526  0CAB  07AF               	addwf	(Serial_Print_Int@val+1)
  8527  0CAC  0825               	movf	(0+(?___awmod)),w
  8528  0CAD  01AE               	clrf	(Serial_Print_Int@val)
  8529  0CAE  07AE               	addwf	(Serial_Print_Int@val)
  8530                           
  8531                           	line	193
  8532                           ;serial.h: 193: while(!TXIF);
  8533  0CAF  2CB0               	goto	l978
  8534                           	
  8535  0CB0                     l979:	
  8536                           	
  8537  0CB0                     l978:	
  8538  0CB0  1E0C               	btfss	(100/8),(100)&7
  8539  0CB1  2CB3               	goto	u11021
  8540  0CB2  2CB4               	goto	u11020
  8541  0CB3                     u11021:
  8542  0CB3  2CB0               	goto	l978
  8543  0CB4                     u11020:
  8544  0CB4  2CB5               	goto	l9446
  8545                           	
  8546  0CB5                     l980:	
  8547                           	line	194
  8548                           	
  8549  0CB5                     l9446:	
  8550                           ;serial.h: 194: TXREG = val/10+48;
  8551  0CB5  300A               	movlw	low(0Ah)
  8552  0CB6  00A5               	movwf	(?___awdiv)
  8553  0CB7  3000               	movlw	high(0Ah)
  8554  0CB8  00A6               	movwf	((?___awdiv))+1
  8555  0CB9  082F               	movf	(Serial_Print_Int@val+1),w
  8556  0CBA  01A8               	clrf	1+(?___awdiv)+02h
  8557  0CBB  07A8               	addwf	1+(?___awdiv)+02h
  8558  0CBC  082E               	movf	(Serial_Print_Int@val),w
  8559  0CBD  01A7               	clrf	0+(?___awdiv)+02h
  8560  0CBE  07A7               	addwf	0+(?___awdiv)+02h
  8561                           
  8562  0CBF  160A  118A  211C   	fcall	___awdiv
              120A  158A         
  8563  0CC4  1283               	bcf	status, 5	;RP0=0, select bank0
  8564  0CC5  1303               	bcf	status, 6	;RP1=0, select bank0
  8565  0CC6  0825               	movf	(0+(?___awdiv)),w
  8566  0CC7  3E30               	addlw	030h
  8567  0CC8  0099               	movwf	(25)	;volatile
  8568                           	line	195
  8569                           	
  8570  0CC9                     l9448:	
  8571                           ;serial.h: 195: _delay(10);
  8572                           	opt asmopt_off
  8573  0CC9  3003               movlw	3
  8574  0CCA  00B0               movwf	(??_Serial_Print_Int+0)+0,f
  8575  0CCB                     u12647:
  8576  0CCB  0BB0               decfsz	(??_Serial_Print_Int+0)+0,f
  8577  0CCC  2CCB               	goto	u12647
  8578                           opt asmopt_on
  8579                           
  8580                           	line	196
  8581                           	
  8582  0CCD                     l9450:	
  8583                           ;serial.h: 196: val = val%10;
  8584  0CCD  300A               	movlw	low(0Ah)
  8585  0CCE  1283               	bcf	status, 5	;RP0=0, select bank0
  8586  0CCF  1303               	bcf	status, 6	;RP1=0, select bank0
  8587  0CD0  00A5               	movwf	(?___awmod)
  8588  0CD1  3000               	movlw	high(0Ah)
  8589  0CD2  00A6               	movwf	((?___awmod))+1
  8590  0CD3  082F               	movf	(Serial_Print_Int@val+1),w
  8591  0CD4  01A8               	clrf	1+(?___awmod)+02h
  8592  0CD5  07A8               	addwf	1+(?___awmod)+02h
  8593  0CD6  082E               	movf	(Serial_Print_Int@val),w
  8594  0CD7  01A7               	clrf	0+(?___awmod)+02h
  8595  0CD8  07A7               	addwf	0+(?___awmod)+02h
  8596                           
  8597  0CD9  160A  118A  20B4   	fcall	___awmod
              120A  158A         
  8598  0CDE  1283               	bcf	status, 5	;RP0=0, select bank0
  8599  0CDF  1303               	bcf	status, 6	;RP1=0, select bank0
  8600  0CE0  0826               	movf	(1+(?___awmod)),w
  8601  0CE1  01AF               	clrf	(Serial_Print_Int@val+1)
  8602  0CE2  07AF               	addwf	(Serial_Print_Int@val+1)
  8603  0CE3  0825               	movf	(0+(?___awmod)),w
  8604  0CE4  01AE               	clrf	(Serial_Print_Int@val)
  8605  0CE5  07AE               	addwf	(Serial_Print_Int@val)
  8606                           
  8607                           	line	197
  8608                           ;serial.h: 197: }
  8609  0CE6  2D35               	goto	l986
  8610                           	line	198
  8611                           	
  8612  0CE7                     l974:	
  8613                           	
  8614  0CE7                     l9452:	
  8615                           ;serial.h: 198: else if(val > 9){
  8616  0CE7  1283               	bcf	status, 5	;RP0=0, select bank0
  8617  0CE8  1303               	bcf	status, 6	;RP1=0, select bank0
  8618  0CE9  082F               	movf	(Serial_Print_Int@val+1),w
  8619  0CEA  3A80               	xorlw	80h
  8620  0CEB  00FF               	movwf	btemp+1
  8621  0CEC  3080               	movlw	(high(0Ah))^80h
  8622  0CED  027F               	subwf	btemp+1,w
  8623  0CEE  1D03               	skipz
  8624  0CEF  2CF2               	goto	u11035
  8625  0CF0  300A               	movlw	low(0Ah)
  8626  0CF1  022E               	subwf	(Serial_Print_Int@val),w
  8627  0CF2                     u11035:
  8628                           
  8629  0CF2  1C03               	skipc
  8630  0CF3  2CF5               	goto	u11031
  8631  0CF4  2CF6               	goto	u11030
  8632  0CF5                     u11031:
  8633  0CF5  2D35               	goto	l986
  8634  0CF6                     u11030:
  8635  0CF6  2CF8               	goto	l983
  8636                           	line	199
  8637                           	
  8638  0CF7                     l9454:	
  8639                           ;serial.h: 199: while(!TXIF);
  8640  0CF7  2CF8               	goto	l983
  8641                           	
  8642  0CF8                     l984:	
  8643                           	
  8644  0CF8                     l983:	
  8645  0CF8  1283               	bcf	status, 5	;RP0=0, select bank0
  8646  0CF9  1303               	bcf	status, 6	;RP1=0, select bank0
  8647  0CFA  1E0C               	btfss	(100/8),(100)&7
  8648  0CFB  2CFD               	goto	u11041
  8649  0CFC  2CFE               	goto	u11040
  8650  0CFD                     u11041:
  8651  0CFD  2CF8               	goto	l983
  8652  0CFE                     u11040:
  8653  0CFE  2CFF               	goto	l9456
  8654                           	
  8655  0CFF                     l985:	
  8656                           	line	200
  8657                           	
  8658  0CFF                     l9456:	
  8659                           ;serial.h: 200: TXREG = val/10+48;
  8660  0CFF  300A               	movlw	low(0Ah)
  8661  0D00  00A5               	movwf	(?___awdiv)
  8662  0D01  3000               	movlw	high(0Ah)
  8663  0D02  00A6               	movwf	((?___awdiv))+1
  8664  0D03  082F               	movf	(Serial_Print_Int@val+1),w
  8665  0D04  01A8               	clrf	1+(?___awdiv)+02h
  8666  0D05  07A8               	addwf	1+(?___awdiv)+02h
  8667  0D06  082E               	movf	(Serial_Print_Int@val),w
  8668  0D07  01A7               	clrf	0+(?___awdiv)+02h
  8669  0D08  07A7               	addwf	0+(?___awdiv)+02h
  8670                           
  8671  0D09  160A  118A  211C   	fcall	___awdiv
              120A  158A         
  8672  0D0E  1283               	bcf	status, 5	;RP0=0, select bank0
  8673  0D0F  1303               	bcf	status, 6	;RP1=0, select bank0
  8674  0D10  0825               	movf	(0+(?___awdiv)),w
  8675  0D11  3E30               	addlw	030h
  8676  0D12  0099               	movwf	(25)	;volatile
  8677                           	line	201
  8678                           	
  8679  0D13                     l9458:	
  8680                           ;serial.h: 201: _delay(10);
  8681                           	opt asmopt_off
  8682  0D13  3003               movlw	3
  8683  0D14  00B0               movwf	(??_Serial_Print_Int+0)+0,f
  8684  0D15                     u12657:
  8685  0D15  0BB0               decfsz	(??_Serial_Print_Int+0)+0,f
  8686  0D16  2D15               	goto	u12657
  8687                           opt asmopt_on
  8688                           
  8689                           	line	202
  8690                           	
  8691  0D17                     l9460:	
  8692                           ;serial.h: 202: val = val%10;
  8693  0D17  300A               	movlw	low(0Ah)
  8694  0D18  1283               	bcf	status, 5	;RP0=0, select bank0
  8695  0D19  1303               	bcf	status, 6	;RP1=0, select bank0
  8696  0D1A  00A5               	movwf	(?___awmod)
  8697  0D1B  3000               	movlw	high(0Ah)
  8698  0D1C  00A6               	movwf	((?___awmod))+1
  8699  0D1D  082F               	movf	(Serial_Print_Int@val+1),w
  8700  0D1E  01A8               	clrf	1+(?___awmod)+02h
  8701  0D1F  07A8               	addwf	1+(?___awmod)+02h
  8702  0D20  082E               	movf	(Serial_Print_Int@val),w
  8703  0D21  01A7               	clrf	0+(?___awmod)+02h
  8704  0D22  07A7               	addwf	0+(?___awmod)+02h
  8705                           
  8706  0D23  160A  118A  20B4   	fcall	___awmod
              120A  158A         
  8707  0D28  1283               	bcf	status, 5	;RP0=0, select bank0
  8708  0D29  1303               	bcf	status, 6	;RP1=0, select bank0
  8709  0D2A  0826               	movf	(1+(?___awmod)),w
  8710  0D2B  01AF               	clrf	(Serial_Print_Int@val+1)
  8711  0D2C  07AF               	addwf	(Serial_Print_Int@val+1)
  8712  0D2D  0825               	movf	(0+(?___awmod)),w
  8713  0D2E  01AE               	clrf	(Serial_Print_Int@val)
  8714  0D2F  07AE               	addwf	(Serial_Print_Int@val)
  8715                           
  8716  0D30  2D35               	goto	l986
  8717                           	line	203
  8718                           	
  8719  0D31                     l982:	
  8720  0D31  2D35               	goto	l986
  8721                           	line	204
  8722                           	
  8723  0D32                     l981:	
  8724  0D32  2D35               	goto	l986
  8725                           	
  8726  0D33                     l973:	
  8727  0D33  2D35               	goto	l986
  8728                           	
  8729  0D34                     l962:	
  8730                           ;serial.h: 203: }
  8731                           ;serial.h: 204: while(!TXIF);
  8732  0D34  2D35               	goto	l986
  8733                           	
  8734  0D35                     l987:	
  8735                           	
  8736  0D35                     l986:	
  8737  0D35  1283               	bcf	status, 5	;RP0=0, select bank0
  8738  0D36  1303               	bcf	status, 6	;RP1=0, select bank0
  8739  0D37  1E0C               	btfss	(100/8),(100)&7
  8740  0D38  2D3A               	goto	u11051
  8741  0D39  2D3B               	goto	u11050
  8742  0D3A                     u11051:
  8743  0D3A  2D35               	goto	l986
  8744  0D3B                     u11050:
  8745  0D3B  2D3C               	goto	l9462
  8746                           	
  8747  0D3C                     l988:	
  8748                           	line	205
  8749                           	
  8750  0D3C                     l9462:	
  8751                           ;serial.h: 205: TXREG = val+48;
  8752  0D3C  082E               	movf	(Serial_Print_Int@val),w
  8753  0D3D  3E30               	addlw	030h
  8754  0D3E  0099               	movwf	(25)	;volatile
  8755                           	line	206
  8756                           	
  8757  0D3F                     l9464:	
  8758                           ;serial.h: 206: _delay(10);
  8759                           	opt asmopt_off
  8760  0D3F  3003               movlw	3
  8761  0D40  00B0               movwf	(??_Serial_Print_Int+0)+0,f
  8762  0D41                     u12667:
  8763  0D41  0BB0               decfsz	(??_Serial_Print_Int+0)+0,f
  8764  0D42  2D41               	goto	u12667
  8765                           opt asmopt_on
  8766                           
  8767  0D43  2D44               	goto	l989
  8768                           	line	208
  8769                           	
  8770  0D44                     l9466:	
  8771                           	line	209
  8772                           ;serial.h: 208: return 1;
  8773                           ;	Return value of _Serial_Print_Int is never used
  8774                           	
  8775  0D44                     l989:	
  8776  0D44  0008               	return
  8777                           	opt stack 0
  8778                           GLOBAL	__end_of_Serial_Print_Int
  8779  0D45                     	__end_of_Serial_Print_Int:
  8780 ;; =============== function _Serial_Print_Int ends ============
  8781                           
  8782                           	signat	_Serial_Print_Int,4216
  8783                           	global	_Serial_Println_Int
  8784                           psect	text1500,local,class=CODE,delta=2
  8785                           global __ptext1500
  8786  0D45                     __ptext1500:
  8787                           
  8788 ;; *************** function _Serial_Println_Int *****************
  8789 ;; Defined at:
  8790 ;;		line 58 in file "D:\ELECTRONIC\2016\1. Automated Solar Panel Orientation Setter\Firmware\ver4\serial.h"
  8791 ;; Parameters:    Size  Location     Type
  8792 ;;  val             2   14[BANK0 ] int 
  8793 ;; Auto vars:     Size  Location     Type
  8794 ;;		None
  8795 ;; Return value:  Size  Location     Type
  8796 ;;		None               void
  8797 ;; Registers used:
  8798 ;;		wreg, status,2, status,0, btemp+1, pclath, cstack
  8799 ;; Tracked objects:
  8800 ;;		On entry : 0/0
  8801 ;;		On exit  : 0/0
  8802 ;;		Unchanged: 0/0
  8803 ;; Data sizes:     COMMON   BANK0   BANK1   BANK3   BANK2
  8804 ;;      Params:         0       2       0       0       0
  8805 ;;      Locals:         0       0       0       0       0
  8806 ;;      Temps:          0       1       0       0       0
  8807 ;;      Totals:         0       3       0       0       0
  8808 ;;Total ram usage:        3 bytes
  8809 ;; Hardware stack levels used:    1
  8810 ;; Hardware stack levels required when called:    5
  8811 ;; This function calls:
  8812 ;;		___awdiv
  8813 ;;		___awmod
  8814 ;; This function is called by:
  8815 ;;		_CheckMode
  8816 ;; This function uses a non-reentrant model
  8817 ;;
  8818                           psect	text1500
  8819                           	file	"D:\ELECTRONIC\2016\1. Automated Solar Panel Orientation Setter\Firmware\ver4\seri
                                 al.h"
  8820                           	line	58
  8821                           	global	__size_of_Serial_Println_Int
  8822  02BB                     	__size_of_Serial_Println_Int	equ	__end_of_Serial_Println_Int-_Serial_Println_Int
  8823                           	
  8824  0D45                     _Serial_Println_Int:	
  8825                           	opt	stack 1
  8826                           ; Regs used in _Serial_Println_Int: [wreg+status,2+status,0+btemp+1+pclath+cstack]
  8827                           	line	61
  8828                           	
  8829  0D45                     l9284:	
  8830                           ;serial.h: 61: if(val < 0){
  8831  0D45  1283               	bcf	status, 5	;RP0=0, select bank0
  8832  0D46  1303               	bcf	status, 6	;RP1=0, select bank0
  8833  0D47  1FAF               	btfss	(Serial_Println_Int@val+1),7
  8834  0D48  2D4A               	goto	u10701
  8835  0D49  2D4B               	goto	u10700
  8836  0D4A                     u10701:
  8837  0D4A  2D60               	goto	l9292
  8838  0D4B                     u10700:
  8839  0D4B  2D4D               	goto	l887
  8840                           	line	62
  8841                           	
  8842  0D4C                     l9286:	
  8843                           ;serial.h: 62: while(!TXIF);
  8844  0D4C  2D4D               	goto	l887
  8845                           	
  8846  0D4D                     l888:	
  8847                           	
  8848  0D4D                     l887:	
  8849  0D4D  1E0C               	btfss	(100/8),(100)&7
  8850  0D4E  2D50               	goto	u10711
  8851  0D4F  2D51               	goto	u10710
  8852  0D50                     u10711:
  8853  0D50  2D4D               	goto	l887
  8854  0D51                     u10710:
  8855  0D51  2D52               	goto	l9288
  8856                           	
  8857  0D52                     l889:	
  8858                           	line	63
  8859                           	
  8860  0D52                     l9288:	
  8861                           ;serial.h: 63: TXREG = '-';
  8862  0D52  302D               	movlw	(02Dh)
  8863  0D53  0099               	movwf	(25)	;volatile
  8864                           	line	64
  8865                           ;serial.h: 64: _delay(10);
  8866                           	opt asmopt_off
  8867  0D54  3003               movlw	3
  8868  0D55  00B0               movwf	(??_Serial_Println_Int+0)+0,f
  8869  0D56                     u12677:
  8870  0D56  0BB0               decfsz	(??_Serial_Println_Int+0)+0,f
  8871  0D57  2D56               	goto	u12677
  8872                           opt asmopt_on
  8873                           
  8874                           	line	65
  8875                           	
  8876  0D58                     l9290:	
  8877                           ;serial.h: 65: val = -val;
  8878  0D58  1283               	bcf	status, 5	;RP0=0, select bank0
  8879  0D59  1303               	bcf	status, 6	;RP1=0, select bank0
  8880  0D5A  09AE               	comf	(Serial_Println_Int@val),f
  8881  0D5B  09AF               	comf	(Serial_Println_Int@val+1),f
  8882  0D5C  0AAE               	incf	(Serial_Println_Int@val),f
  8883  0D5D  1903               	skipnz
  8884  0D5E  0AAF               	incf	(Serial_Println_Int@val+1),f
  8885  0D5F  2D60               	goto	l9292
  8886                           	line	66
  8887                           	
  8888  0D60                     l886:	
  8889                           	line	67
  8890                           	
  8891  0D60                     l9292:	
  8892                           ;serial.h: 66: }
  8893                           ;serial.h: 67: if(val > 9999){
  8894  0D60  082F               	movf	(Serial_Println_Int@val+1),w
  8895  0D61  3A80               	xorlw	80h
  8896  0D62  00FF               	movwf	btemp+1
  8897  0D63  30A7               	movlw	(high(02710h))^80h
  8898  0D64  027F               	subwf	btemp+1,w
  8899  0D65  1D03               	skipz
  8900  0D66  2D69               	goto	u10725
  8901  0D67  3010               	movlw	low(02710h)
  8902  0D68  022E               	subwf	(Serial_Println_Int@val),w
  8903  0D69                     u10725:
  8904                           
  8905  0D69  1C03               	skipc
  8906  0D6A  2D6C               	goto	u10721
  8907  0D6B  2D6D               	goto	u10720
  8908  0D6C                     u10721:
  8909  0D6C  2E4D               	goto	l9320
  8910  0D6D                     u10720:
  8911  0D6D  2D6F               	goto	l891
  8912                           	line	68
  8913                           	
  8914  0D6E                     l9294:	
  8915                           ;serial.h: 68: while(!TXIF);
  8916  0D6E  2D6F               	goto	l891
  8917                           	
  8918  0D6F                     l892:	
  8919                           	
  8920  0D6F                     l891:	
  8921  0D6F  1283               	bcf	status, 5	;RP0=0, select bank0
  8922  0D70  1303               	bcf	status, 6	;RP1=0, select bank0
  8923  0D71  1E0C               	btfss	(100/8),(100)&7
  8924  0D72  2D74               	goto	u10731
  8925  0D73  2D75               	goto	u10730
  8926  0D74                     u10731:
  8927  0D74  2D6F               	goto	l891
  8928  0D75                     u10730:
  8929  0D75  2D76               	goto	l9296
  8930                           	
  8931  0D76                     l893:	
  8932                           	line	69
  8933                           	
  8934  0D76                     l9296:	
  8935                           ;serial.h: 69: TXREG = val/10000+48;
  8936  0D76  3010               	movlw	low(02710h)
  8937  0D77  00A5               	movwf	(?___awdiv)
  8938  0D78  3027               	movlw	high(02710h)
  8939  0D79  00A6               	movwf	((?___awdiv))+1
  8940  0D7A  082F               	movf	(Serial_Println_Int@val+1),w
  8941  0D7B  01A8               	clrf	1+(?___awdiv)+02h
  8942  0D7C  07A8               	addwf	1+(?___awdiv)+02h
  8943  0D7D  082E               	movf	(Serial_Println_Int@val),w
  8944  0D7E  01A7               	clrf	0+(?___awdiv)+02h
  8945  0D7F  07A7               	addwf	0+(?___awdiv)+02h
  8946                           
  8947  0D80  160A  118A  211C   	fcall	___awdiv
              120A  158A         
  8948  0D85  1283               	bcf	status, 5	;RP0=0, select bank0
  8949  0D86  1303               	bcf	status, 6	;RP1=0, select bank0
  8950  0D87  0825               	movf	(0+(?___awdiv)),w
  8951  0D88  3E30               	addlw	030h
  8952  0D89  0099               	movwf	(25)	;volatile
  8953                           	line	70
  8954                           	
  8955  0D8A                     l9298:	
  8956                           ;serial.h: 70: _delay(10);
  8957                           	opt asmopt_off
  8958  0D8A  3003               movlw	3
  8959  0D8B  00B0               movwf	(??_Serial_Println_Int+0)+0,f
  8960  0D8C                     u12687:
  8961  0D8C  0BB0               decfsz	(??_Serial_Println_Int+0)+0,f
  8962  0D8D  2D8C               	goto	u12687
  8963                           opt asmopt_on
  8964                           
  8965                           	line	71
  8966                           	
  8967  0D8E                     l9300:	
  8968                           ;serial.h: 71: val = val%10000;
  8969  0D8E  3010               	movlw	low(02710h)
  8970  0D8F  1283               	bcf	status, 5	;RP0=0, select bank0
  8971  0D90  1303               	bcf	status, 6	;RP1=0, select bank0
  8972  0D91  00A5               	movwf	(?___awmod)
  8973  0D92  3027               	movlw	high(02710h)
  8974  0D93  00A6               	movwf	((?___awmod))+1
  8975  0D94  082F               	movf	(Serial_Println_Int@val+1),w
  8976  0D95  01A8               	clrf	1+(?___awmod)+02h
  8977  0D96  07A8               	addwf	1+(?___awmod)+02h
  8978  0D97  082E               	movf	(Serial_Println_Int@val),w
  8979  0D98  01A7               	clrf	0+(?___awmod)+02h
  8980  0D99  07A7               	addwf	0+(?___awmod)+02h
  8981                           
  8982  0D9A  160A  118A  20B4   	fcall	___awmod
              120A  158A         
  8983  0D9F  1283               	bcf	status, 5	;RP0=0, select bank0
  8984  0DA0  1303               	bcf	status, 6	;RP1=0, select bank0
  8985  0DA1  0826               	movf	(1+(?___awmod)),w
  8986  0DA2  01AF               	clrf	(Serial_Println_Int@val+1)
  8987  0DA3  07AF               	addwf	(Serial_Println_Int@val+1)
  8988  0DA4  0825               	movf	(0+(?___awmod)),w
  8989  0DA5  01AE               	clrf	(Serial_Println_Int@val)
  8990  0DA6  07AE               	addwf	(Serial_Println_Int@val)
  8991                           
  8992                           	line	73
  8993                           ;serial.h: 73: while(!TXIF);
  8994  0DA7  2DA8               	goto	l894
  8995                           	
  8996  0DA8                     l895:	
  8997                           	
  8998  0DA8                     l894:	
  8999  0DA8  1E0C               	btfss	(100/8),(100)&7
  9000  0DA9  2DAB               	goto	u10741
  9001  0DAA  2DAC               	goto	u10740
  9002  0DAB                     u10741:
  9003  0DAB  2DA8               	goto	l894
  9004  0DAC                     u10740:
  9005  0DAC  2DAD               	goto	l9302
  9006                           	
  9007  0DAD                     l896:	
  9008                           	line	74
  9009                           	
  9010  0DAD                     l9302:	
  9011                           ;serial.h: 74: TXREG = val/1000+48;
  9012  0DAD  30E8               	movlw	low(03E8h)
  9013  0DAE  00A5               	movwf	(?___awdiv)
  9014  0DAF  3003               	movlw	high(03E8h)
  9015  0DB0  00A6               	movwf	((?___awdiv))+1
  9016  0DB1  082F               	movf	(Serial_Println_Int@val+1),w
  9017  0DB2  01A8               	clrf	1+(?___awdiv)+02h
  9018  0DB3  07A8               	addwf	1+(?___awdiv)+02h
  9019  0DB4  082E               	movf	(Serial_Println_Int@val),w
  9020  0DB5  01A7               	clrf	0+(?___awdiv)+02h
  9021  0DB6  07A7               	addwf	0+(?___awdiv)+02h
  9022                           
  9023  0DB7  160A  118A  211C   	fcall	___awdiv
              120A  158A         
  9024  0DBC  1283               	bcf	status, 5	;RP0=0, select bank0
  9025  0DBD  1303               	bcf	status, 6	;RP1=0, select bank0
  9026  0DBE  0825               	movf	(0+(?___awdiv)),w
  9027  0DBF  3E30               	addlw	030h
  9028  0DC0  0099               	movwf	(25)	;volatile
  9029                           	line	75
  9030                           	
  9031  0DC1                     l9304:	
  9032                           ;serial.h: 75: _delay(10);
  9033                           	opt asmopt_off
  9034  0DC1  3003               movlw	3
  9035  0DC2  00B0               movwf	(??_Serial_Println_Int+0)+0,f
  9036  0DC3                     u12697:
  9037  0DC3  0BB0               decfsz	(??_Serial_Println_Int+0)+0,f
  9038  0DC4  2DC3               	goto	u12697
  9039                           opt asmopt_on
  9040                           
  9041                           	line	76
  9042                           	
  9043  0DC5                     l9306:	
  9044                           ;serial.h: 76: val = val%1000;
  9045  0DC5  30E8               	movlw	low(03E8h)
  9046  0DC6  1283               	bcf	status, 5	;RP0=0, select bank0
  9047  0DC7  1303               	bcf	status, 6	;RP1=0, select bank0
  9048  0DC8  00A5               	movwf	(?___awmod)
  9049  0DC9  3003               	movlw	high(03E8h)
  9050  0DCA  00A6               	movwf	((?___awmod))+1
  9051  0DCB  082F               	movf	(Serial_Println_Int@val+1),w
  9052  0DCC  01A8               	clrf	1+(?___awmod)+02h
  9053  0DCD  07A8               	addwf	1+(?___awmod)+02h
  9054  0DCE  082E               	movf	(Serial_Println_Int@val),w
  9055  0DCF  01A7               	clrf	0+(?___awmod)+02h
  9056  0DD0  07A7               	addwf	0+(?___awmod)+02h
  9057                           
  9058  0DD1  160A  118A  20B4   	fcall	___awmod
              120A  158A         
  9059  0DD6  1283               	bcf	status, 5	;RP0=0, select bank0
  9060  0DD7  1303               	bcf	status, 6	;RP1=0, select bank0
  9061  0DD8  0826               	movf	(1+(?___awmod)),w
  9062  0DD9  01AF               	clrf	(Serial_Println_Int@val+1)
  9063  0DDA  07AF               	addwf	(Serial_Println_Int@val+1)
  9064  0DDB  0825               	movf	(0+(?___awmod)),w
  9065  0DDC  01AE               	clrf	(Serial_Println_Int@val)
  9066  0DDD  07AE               	addwf	(Serial_Println_Int@val)
  9067                           
  9068                           	line	78
  9069                           ;serial.h: 78: while(!TXIF);
  9070  0DDE  2DDF               	goto	l897
  9071                           	
  9072  0DDF                     l898:	
  9073                           	
  9074  0DDF                     l897:	
  9075  0DDF  1E0C               	btfss	(100/8),(100)&7
  9076  0DE0  2DE2               	goto	u10751
  9077  0DE1  2DE3               	goto	u10750
  9078  0DE2                     u10751:
  9079  0DE2  2DDF               	goto	l897
  9080  0DE3                     u10750:
  9081  0DE3  2DE4               	goto	l9308
  9082                           	
  9083  0DE4                     l899:	
  9084                           	line	79
  9085                           	
  9086  0DE4                     l9308:	
  9087                           ;serial.h: 79: TXREG = val/100+48;
  9088  0DE4  3064               	movlw	low(064h)
  9089  0DE5  00A5               	movwf	(?___awdiv)
  9090  0DE6  3000               	movlw	high(064h)
  9091  0DE7  00A6               	movwf	((?___awdiv))+1
  9092  0DE8  082F               	movf	(Serial_Println_Int@val+1),w
  9093  0DE9  01A8               	clrf	1+(?___awdiv)+02h
  9094  0DEA  07A8               	addwf	1+(?___awdiv)+02h
  9095  0DEB  082E               	movf	(Serial_Println_Int@val),w
  9096  0DEC  01A7               	clrf	0+(?___awdiv)+02h
  9097  0DED  07A7               	addwf	0+(?___awdiv)+02h
  9098                           
  9099  0DEE  160A  118A  211C   	fcall	___awdiv
              120A  158A         
  9100  0DF3  1283               	bcf	status, 5	;RP0=0, select bank0
  9101  0DF4  1303               	bcf	status, 6	;RP1=0, select bank0
  9102  0DF5  0825               	movf	(0+(?___awdiv)),w
  9103  0DF6  3E30               	addlw	030h
  9104  0DF7  0099               	movwf	(25)	;volatile
  9105                           	line	80
  9106                           	
  9107  0DF8                     l9310:	
  9108                           ;serial.h: 80: _delay(10);
  9109                           	opt asmopt_off
  9110  0DF8  3003               movlw	3
  9111  0DF9  00B0               movwf	(??_Serial_Println_Int+0)+0,f
  9112  0DFA                     u12707:
  9113  0DFA  0BB0               decfsz	(??_Serial_Println_Int+0)+0,f
  9114  0DFB  2DFA               	goto	u12707
  9115                           opt asmopt_on
  9116                           
  9117                           	line	81
  9118                           	
  9119  0DFC                     l9312:	
  9120                           ;serial.h: 81: val = val%100;
  9121  0DFC  3064               	movlw	low(064h)
  9122  0DFD  1283               	bcf	status, 5	;RP0=0, select bank0
  9123  0DFE  1303               	bcf	status, 6	;RP1=0, select bank0
  9124  0DFF  00A5               	movwf	(?___awmod)
  9125  0E00  3000               	movlw	high(064h)
  9126  0E01  00A6               	movwf	((?___awmod))+1
  9127  0E02  082F               	movf	(Serial_Println_Int@val+1),w
  9128  0E03  01A8               	clrf	1+(?___awmod)+02h
  9129  0E04  07A8               	addwf	1+(?___awmod)+02h
  9130  0E05  082E               	movf	(Serial_Println_Int@val),w
  9131  0E06  01A7               	clrf	0+(?___awmod)+02h
  9132  0E07  07A7               	addwf	0+(?___awmod)+02h
  9133                           
  9134  0E08  160A  118A  20B4   	fcall	___awmod
              120A  158A         
  9135  0E0D  1283               	bcf	status, 5	;RP0=0, select bank0
  9136  0E0E  1303               	bcf	status, 6	;RP1=0, select bank0
  9137  0E0F  0826               	movf	(1+(?___awmod)),w
  9138  0E10  01AF               	clrf	(Serial_Println_Int@val+1)
  9139  0E11  07AF               	addwf	(Serial_Println_Int@val+1)
  9140  0E12  0825               	movf	(0+(?___awmod)),w
  9141  0E13  01AE               	clrf	(Serial_Println_Int@val)
  9142  0E14  07AE               	addwf	(Serial_Println_Int@val)
  9143                           
  9144                           	line	83
  9145                           ;serial.h: 83: while(!TXIF);
  9146  0E15  2E16               	goto	l900
  9147                           	
  9148  0E16                     l901:	
  9149                           	
  9150  0E16                     l900:	
  9151  0E16  1E0C               	btfss	(100/8),(100)&7
  9152  0E17  2E19               	goto	u10761
  9153  0E18  2E1A               	goto	u10760
  9154  0E19                     u10761:
  9155  0E19  2E16               	goto	l900
  9156  0E1A                     u10760:
  9157  0E1A  2E1B               	goto	l9314
  9158                           	
  9159  0E1B                     l902:	
  9160                           	line	84
  9161                           	
  9162  0E1B                     l9314:	
  9163                           ;serial.h: 84: TXREG = val/10+48;
  9164  0E1B  300A               	movlw	low(0Ah)
  9165  0E1C  00A5               	movwf	(?___awdiv)
  9166  0E1D  3000               	movlw	high(0Ah)
  9167  0E1E  00A6               	movwf	((?___awdiv))+1
  9168  0E1F  082F               	movf	(Serial_Println_Int@val+1),w
  9169  0E20  01A8               	clrf	1+(?___awdiv)+02h
  9170  0E21  07A8               	addwf	1+(?___awdiv)+02h
  9171  0E22  082E               	movf	(Serial_Println_Int@val),w
  9172  0E23  01A7               	clrf	0+(?___awdiv)+02h
  9173  0E24  07A7               	addwf	0+(?___awdiv)+02h
  9174                           
  9175  0E25  160A  118A  211C   	fcall	___awdiv
              120A  158A         
  9176  0E2A  1283               	bcf	status, 5	;RP0=0, select bank0
  9177  0E2B  1303               	bcf	status, 6	;RP1=0, select bank0
  9178  0E2C  0825               	movf	(0+(?___awdiv)),w
  9179  0E2D  3E30               	addlw	030h
  9180  0E2E  0099               	movwf	(25)	;volatile
  9181                           	line	85
  9182                           	
  9183  0E2F                     l9316:	
  9184                           ;serial.h: 85: _delay(10);
  9185                           	opt asmopt_off
  9186  0E2F  3003               movlw	3
  9187  0E30  00B0               movwf	(??_Serial_Println_Int+0)+0,f
  9188  0E31                     u12717:
  9189  0E31  0BB0               decfsz	(??_Serial_Println_Int+0)+0,f
  9190  0E32  2E31               	goto	u12717
  9191                           opt asmopt_on
  9192                           
  9193                           	line	86
  9194                           	
  9195  0E33                     l9318:	
  9196                           ;serial.h: 86: val = val%10;
  9197  0E33  300A               	movlw	low(0Ah)
  9198  0E34  1283               	bcf	status, 5	;RP0=0, select bank0
  9199  0E35  1303               	bcf	status, 6	;RP1=0, select bank0
  9200  0E36  00A5               	movwf	(?___awmod)
  9201  0E37  3000               	movlw	high(0Ah)
  9202  0E38  00A6               	movwf	((?___awmod))+1
  9203  0E39  082F               	movf	(Serial_Println_Int@val+1),w
  9204  0E3A  01A8               	clrf	1+(?___awmod)+02h
  9205  0E3B  07A8               	addwf	1+(?___awmod)+02h
  9206  0E3C  082E               	movf	(Serial_Println_Int@val),w
  9207  0E3D  01A7               	clrf	0+(?___awmod)+02h
  9208  0E3E  07A7               	addwf	0+(?___awmod)+02h
  9209                           
  9210  0E3F  160A  118A  20B4   	fcall	___awmod
              120A  158A         
  9211  0E44  1283               	bcf	status, 5	;RP0=0, select bank0
  9212  0E45  1303               	bcf	status, 6	;RP1=0, select bank0
  9213  0E46  0826               	movf	(1+(?___awmod)),w
  9214  0E47  01AF               	clrf	(Serial_Println_Int@val+1)
  9215  0E48  07AF               	addwf	(Serial_Println_Int@val+1)
  9216  0E49  0825               	movf	(0+(?___awmod)),w
  9217  0E4A  01AE               	clrf	(Serial_Println_Int@val)
  9218  0E4B  07AE               	addwf	(Serial_Println_Int@val)
  9219                           
  9220                           	line	87
  9221                           ;serial.h: 87: }
  9222  0E4C  2FD4               	goto	l927
  9223                           	line	88
  9224                           	
  9225  0E4D                     l890:	
  9226                           	
  9227  0E4D                     l9320:	
  9228                           ;serial.h: 88: else if(val > 999){
  9229  0E4D  1283               	bcf	status, 5	;RP0=0, select bank0
  9230  0E4E  1303               	bcf	status, 6	;RP1=0, select bank0
  9231  0E4F  082F               	movf	(Serial_Println_Int@val+1),w
  9232  0E50  3A80               	xorlw	80h
  9233  0E51  00FF               	movwf	btemp+1
  9234  0E52  3083               	movlw	(high(03E8h))^80h
  9235  0E53  027F               	subwf	btemp+1,w
  9236  0E54  1D03               	skipz
  9237  0E55  2E58               	goto	u10775
  9238  0E56  30E8               	movlw	low(03E8h)
  9239  0E57  022E               	subwf	(Serial_Println_Int@val),w
  9240  0E58                     u10775:
  9241                           
  9242  0E58  1C03               	skipc
  9243  0E59  2E5B               	goto	u10771
  9244  0E5A  2E5C               	goto	u10770
  9245  0E5B                     u10771:
  9246  0E5B  2F05               	goto	l9342
  9247  0E5C                     u10770:
  9248  0E5C  2E5E               	goto	l905
  9249                           	line	89
  9250                           	
  9251  0E5D                     l9322:	
  9252                           ;serial.h: 89: while(!TXIF);
  9253  0E5D  2E5E               	goto	l905
  9254                           	
  9255  0E5E                     l906:	
  9256                           	
  9257  0E5E                     l905:	
  9258  0E5E  1283               	bcf	status, 5	;RP0=0, select bank0
  9259  0E5F  1303               	bcf	status, 6	;RP1=0, select bank0
  9260  0E60  1E0C               	btfss	(100/8),(100)&7
  9261  0E61  2E63               	goto	u10781
  9262  0E62  2E64               	goto	u10780
  9263  0E63                     u10781:
  9264  0E63  2E5E               	goto	l905
  9265  0E64                     u10780:
  9266  0E64  2E65               	goto	l9324
  9267                           	
  9268  0E65                     l907:	
  9269                           	line	90
  9270                           	
  9271  0E65                     l9324:	
  9272                           ;serial.h: 90: TXREG = val/1000+48;
  9273  0E65  30E8               	movlw	low(03E8h)
  9274  0E66  00A5               	movwf	(?___awdiv)
  9275  0E67  3003               	movlw	high(03E8h)
  9276  0E68  00A6               	movwf	((?___awdiv))+1
  9277  0E69  082F               	movf	(Serial_Println_Int@val+1),w
  9278  0E6A  01A8               	clrf	1+(?___awdiv)+02h
  9279  0E6B  07A8               	addwf	1+(?___awdiv)+02h
  9280  0E6C  082E               	movf	(Serial_Println_Int@val),w
  9281  0E6D  01A7               	clrf	0+(?___awdiv)+02h
  9282  0E6E  07A7               	addwf	0+(?___awdiv)+02h
  9283                           
  9284  0E6F  160A  118A  211C   	fcall	___awdiv
              120A  158A         
  9285  0E74  1283               	bcf	status, 5	;RP0=0, select bank0
  9286  0E75  1303               	bcf	status, 6	;RP1=0, select bank0
  9287  0E76  0825               	movf	(0+(?___awdiv)),w
  9288  0E77  3E30               	addlw	030h
  9289  0E78  0099               	movwf	(25)	;volatile
  9290                           	line	91
  9291                           	
  9292  0E79                     l9326:	
  9293                           ;serial.h: 91: _delay(10);
  9294                           	opt asmopt_off
  9295  0E79  3003               movlw	3
  9296  0E7A  00B0               movwf	(??_Serial_Println_Int+0)+0,f
  9297  0E7B                     u12727:
  9298  0E7B  0BB0               decfsz	(??_Serial_Println_Int+0)+0,f
  9299  0E7C  2E7B               	goto	u12727
  9300                           opt asmopt_on
  9301                           
  9302                           	line	92
  9303                           	
  9304  0E7D                     l9328:	
  9305                           ;serial.h: 92: val = val%1000;
  9306  0E7D  30E8               	movlw	low(03E8h)
  9307  0E7E  1283               	bcf	status, 5	;RP0=0, select bank0
  9308  0E7F  1303               	bcf	status, 6	;RP1=0, select bank0
  9309  0E80  00A5               	movwf	(?___awmod)
  9310  0E81  3003               	movlw	high(03E8h)
  9311  0E82  00A6               	movwf	((?___awmod))+1
  9312  0E83  082F               	movf	(Serial_Println_Int@val+1),w
  9313  0E84  01A8               	clrf	1+(?___awmod)+02h
  9314  0E85  07A8               	addwf	1+(?___awmod)+02h
  9315  0E86  082E               	movf	(Serial_Println_Int@val),w
  9316  0E87  01A7               	clrf	0+(?___awmod)+02h
  9317  0E88  07A7               	addwf	0+(?___awmod)+02h
  9318                           
  9319  0E89  160A  118A  20B4   	fcall	___awmod
              120A  158A         
  9320  0E8E  1283               	bcf	status, 5	;RP0=0, select bank0
  9321  0E8F  1303               	bcf	status, 6	;RP1=0, select bank0
  9322  0E90  0826               	movf	(1+(?___awmod)),w
  9323  0E91  01AF               	clrf	(Serial_Println_Int@val+1)
  9324  0E92  07AF               	addwf	(Serial_Println_Int@val+1)
  9325  0E93  0825               	movf	(0+(?___awmod)),w
  9326  0E94  01AE               	clrf	(Serial_Println_Int@val)
  9327  0E95  07AE               	addwf	(Serial_Println_Int@val)
  9328                           
  9329                           	line	94
  9330                           ;serial.h: 94: while(!TXIF);
  9331  0E96  2E97               	goto	l908
  9332                           	
  9333  0E97                     l909:	
  9334                           	
  9335  0E97                     l908:	
  9336  0E97  1E0C               	btfss	(100/8),(100)&7
  9337  0E98  2E9A               	goto	u10791
  9338  0E99  2E9B               	goto	u10790
  9339  0E9A                     u10791:
  9340  0E9A  2E97               	goto	l908
  9341  0E9B                     u10790:
  9342  0E9B  2E9C               	goto	l9330
  9343                           	
  9344  0E9C                     l910:	
  9345                           	line	95
  9346                           	
  9347  0E9C                     l9330:	
  9348                           ;serial.h: 95: TXREG = val/100+48;
  9349  0E9C  3064               	movlw	low(064h)
  9350  0E9D  00A5               	movwf	(?___awdiv)
  9351  0E9E  3000               	movlw	high(064h)
  9352  0E9F  00A6               	movwf	((?___awdiv))+1
  9353  0EA0  082F               	movf	(Serial_Println_Int@val+1),w
  9354  0EA1  01A8               	clrf	1+(?___awdiv)+02h
  9355  0EA2  07A8               	addwf	1+(?___awdiv)+02h
  9356  0EA3  082E               	movf	(Serial_Println_Int@val),w
  9357  0EA4  01A7               	clrf	0+(?___awdiv)+02h
  9358  0EA5  07A7               	addwf	0+(?___awdiv)+02h
  9359                           
  9360  0EA6  160A  118A  211C   	fcall	___awdiv
              120A  158A         
  9361  0EAB  1283               	bcf	status, 5	;RP0=0, select bank0
  9362  0EAC  1303               	bcf	status, 6	;RP1=0, select bank0
  9363  0EAD  0825               	movf	(0+(?___awdiv)),w
  9364  0EAE  3E30               	addlw	030h
  9365  0EAF  0099               	movwf	(25)	;volatile
  9366                           	line	96
  9367                           	
  9368  0EB0                     l9332:	
  9369                           ;serial.h: 96: _delay(10);
  9370                           	opt asmopt_off
  9371  0EB0  3003               movlw	3
  9372  0EB1  00B0               movwf	(??_Serial_Println_Int+0)+0,f
  9373  0EB2                     u12737:
  9374  0EB2  0BB0               decfsz	(??_Serial_Println_Int+0)+0,f
  9375  0EB3  2EB2               	goto	u12737
  9376                           opt asmopt_on
  9377                           
  9378                           	line	97
  9379                           	
  9380  0EB4                     l9334:	
  9381                           ;serial.h: 97: val = val%100;
  9382  0EB4  3064               	movlw	low(064h)
  9383  0EB5  1283               	bcf	status, 5	;RP0=0, select bank0
  9384  0EB6  1303               	bcf	status, 6	;RP1=0, select bank0
  9385  0EB7  00A5               	movwf	(?___awmod)
  9386  0EB8  3000               	movlw	high(064h)
  9387  0EB9  00A6               	movwf	((?___awmod))+1
  9388  0EBA  082F               	movf	(Serial_Println_Int@val+1),w
  9389  0EBB  01A8               	clrf	1+(?___awmod)+02h
  9390  0EBC  07A8               	addwf	1+(?___awmod)+02h
  9391  0EBD  082E               	movf	(Serial_Println_Int@val),w
  9392  0EBE  01A7               	clrf	0+(?___awmod)+02h
  9393  0EBF  07A7               	addwf	0+(?___awmod)+02h
  9394                           
  9395  0EC0  160A  118A  20B4   	fcall	___awmod
              120A  158A         
  9396  0EC5  1283               	bcf	status, 5	;RP0=0, select bank0
  9397  0EC6  1303               	bcf	status, 6	;RP1=0, select bank0
  9398  0EC7  0826               	movf	(1+(?___awmod)),w
  9399  0EC8  01AF               	clrf	(Serial_Println_Int@val+1)
  9400  0EC9  07AF               	addwf	(Serial_Println_Int@val+1)
  9401  0ECA  0825               	movf	(0+(?___awmod)),w
  9402  0ECB  01AE               	clrf	(Serial_Println_Int@val)
  9403  0ECC  07AE               	addwf	(Serial_Println_Int@val)
  9404                           
  9405                           	line	99
  9406                           ;serial.h: 99: while(!TXIF);
  9407  0ECD  2ECE               	goto	l911
  9408                           	
  9409  0ECE                     l912:	
  9410                           	
  9411  0ECE                     l911:	
  9412  0ECE  1E0C               	btfss	(100/8),(100)&7
  9413  0ECF  2ED1               	goto	u10801
  9414  0ED0  2ED2               	goto	u10800
  9415  0ED1                     u10801:
  9416  0ED1  2ECE               	goto	l911
  9417  0ED2                     u10800:
  9418  0ED2  2ED3               	goto	l9336
  9419                           	
  9420  0ED3                     l913:	
  9421                           	line	100
  9422                           	
  9423  0ED3                     l9336:	
  9424                           ;serial.h: 100: TXREG = val/10+48;
  9425  0ED3  300A               	movlw	low(0Ah)
  9426  0ED4  00A5               	movwf	(?___awdiv)
  9427  0ED5  3000               	movlw	high(0Ah)
  9428  0ED6  00A6               	movwf	((?___awdiv))+1
  9429  0ED7  082F               	movf	(Serial_Println_Int@val+1),w
  9430  0ED8  01A8               	clrf	1+(?___awdiv)+02h
  9431  0ED9  07A8               	addwf	1+(?___awdiv)+02h
  9432  0EDA  082E               	movf	(Serial_Println_Int@val),w
  9433  0EDB  01A7               	clrf	0+(?___awdiv)+02h
  9434  0EDC  07A7               	addwf	0+(?___awdiv)+02h
  9435                           
  9436  0EDD  160A  118A  211C   	fcall	___awdiv
              120A  158A         
  9437  0EE2  1283               	bcf	status, 5	;RP0=0, select bank0
  9438  0EE3  1303               	bcf	status, 6	;RP1=0, select bank0
  9439  0EE4  0825               	movf	(0+(?___awdiv)),w
  9440  0EE5  3E30               	addlw	030h
  9441  0EE6  0099               	movwf	(25)	;volatile
  9442                           	line	101
  9443                           	
  9444  0EE7                     l9338:	
  9445                           ;serial.h: 101: _delay(10);
  9446                           	opt asmopt_off
  9447  0EE7  3003               movlw	3
  9448  0EE8  00B0               movwf	(??_Serial_Println_Int+0)+0,f
  9449  0EE9                     u12747:
  9450  0EE9  0BB0               decfsz	(??_Serial_Println_Int+0)+0,f
  9451  0EEA  2EE9               	goto	u12747
  9452                           opt asmopt_on
  9453                           
  9454                           	line	102
  9455                           	
  9456  0EEB                     l9340:	
  9457                           ;serial.h: 102: val = val%10;
  9458  0EEB  300A               	movlw	low(0Ah)
  9459  0EEC  1283               	bcf	status, 5	;RP0=0, select bank0
  9460  0EED  1303               	bcf	status, 6	;RP1=0, select bank0
  9461  0EEE  00A5               	movwf	(?___awmod)
  9462  0EEF  3000               	movlw	high(0Ah)
  9463  0EF0  00A6               	movwf	((?___awmod))+1
  9464  0EF1  082F               	movf	(Serial_Println_Int@val+1),w
  9465  0EF2  01A8               	clrf	1+(?___awmod)+02h
  9466  0EF3  07A8               	addwf	1+(?___awmod)+02h
  9467  0EF4  082E               	movf	(Serial_Println_Int@val),w
  9468  0EF5  01A7               	clrf	0+(?___awmod)+02h
  9469  0EF6  07A7               	addwf	0+(?___awmod)+02h
  9470                           
  9471  0EF7  160A  118A  20B4   	fcall	___awmod
              120A  158A         
  9472  0EFC  1283               	bcf	status, 5	;RP0=0, select bank0
  9473  0EFD  1303               	bcf	status, 6	;RP1=0, select bank0
  9474  0EFE  0826               	movf	(1+(?___awmod)),w
  9475  0EFF  01AF               	clrf	(Serial_Println_Int@val+1)
  9476  0F00  07AF               	addwf	(Serial_Println_Int@val+1)
  9477  0F01  0825               	movf	(0+(?___awmod)),w
  9478  0F02  01AE               	clrf	(Serial_Println_Int@val)
  9479  0F03  07AE               	addwf	(Serial_Println_Int@val)
  9480                           
  9481                           	line	103
  9482                           ;serial.h: 103: }
  9483  0F04  2FD4               	goto	l927
  9484                           	line	104
  9485                           	
  9486  0F05                     l904:	
  9487                           	
  9488  0F05                     l9342:	
  9489                           ;serial.h: 104: else if(val > 99){
  9490  0F05  1283               	bcf	status, 5	;RP0=0, select bank0
  9491  0F06  1303               	bcf	status, 6	;RP1=0, select bank0
  9492  0F07  082F               	movf	(Serial_Println_Int@val+1),w
  9493  0F08  3A80               	xorlw	80h
  9494  0F09  00FF               	movwf	btemp+1
  9495  0F0A  3080               	movlw	(high(064h))^80h
  9496  0F0B  027F               	subwf	btemp+1,w
  9497  0F0C  1D03               	skipz
  9498  0F0D  2F10               	goto	u10815
  9499  0F0E  3064               	movlw	low(064h)
  9500  0F0F  022E               	subwf	(Serial_Println_Int@val),w
  9501  0F10                     u10815:
  9502                           
  9503  0F10  1C03               	skipc
  9504  0F11  2F13               	goto	u10811
  9505  0F12  2F14               	goto	u10810
  9506  0F13                     u10811:
  9507  0F13  2F86               	goto	l9358
  9508  0F14                     u10810:
  9509  0F14  2F16               	goto	l916
  9510                           	line	105
  9511                           	
  9512  0F15                     l9344:	
  9513                           ;serial.h: 105: while(!TXIF);
  9514  0F15  2F16               	goto	l916
  9515                           	
  9516  0F16                     l917:	
  9517                           	
  9518  0F16                     l916:	
  9519  0F16  1283               	bcf	status, 5	;RP0=0, select bank0
  9520  0F17  1303               	bcf	status, 6	;RP1=0, select bank0
  9521  0F18  1E0C               	btfss	(100/8),(100)&7
  9522  0F19  2F1B               	goto	u10821
  9523  0F1A  2F1C               	goto	u10820
  9524  0F1B                     u10821:
  9525  0F1B  2F16               	goto	l916
  9526  0F1C                     u10820:
  9527  0F1C  2F1D               	goto	l9346
  9528                           	
  9529  0F1D                     l918:	
  9530                           	line	106
  9531                           	
  9532  0F1D                     l9346:	
  9533                           ;serial.h: 106: TXREG = val/100+48;
  9534  0F1D  3064               	movlw	low(064h)
  9535  0F1E  00A5               	movwf	(?___awdiv)
  9536  0F1F  3000               	movlw	high(064h)
  9537  0F20  00A6               	movwf	((?___awdiv))+1
  9538  0F21  082F               	movf	(Serial_Println_Int@val+1),w
  9539  0F22  01A8               	clrf	1+(?___awdiv)+02h
  9540  0F23  07A8               	addwf	1+(?___awdiv)+02h
  9541  0F24  082E               	movf	(Serial_Println_Int@val),w
  9542  0F25  01A7               	clrf	0+(?___awdiv)+02h
  9543  0F26  07A7               	addwf	0+(?___awdiv)+02h
  9544                           
  9545  0F27  160A  118A  211C   	fcall	___awdiv
              120A  158A         
  9546  0F2C  1283               	bcf	status, 5	;RP0=0, select bank0
  9547  0F2D  1303               	bcf	status, 6	;RP1=0, select bank0
  9548  0F2E  0825               	movf	(0+(?___awdiv)),w
  9549  0F2F  3E30               	addlw	030h
  9550  0F30  0099               	movwf	(25)	;volatile
  9551                           	line	107
  9552                           	
  9553  0F31                     l9348:	
  9554                           ;serial.h: 107: _delay(10);
  9555                           	opt asmopt_off
  9556  0F31  3003               movlw	3
  9557  0F32  00B0               movwf	(??_Serial_Println_Int+0)+0,f
  9558  0F33                     u12757:
  9559  0F33  0BB0               decfsz	(??_Serial_Println_Int+0)+0,f
  9560  0F34  2F33               	goto	u12757
  9561                           opt asmopt_on
  9562                           
  9563                           	line	108
  9564                           	
  9565  0F35                     l9350:	
  9566                           ;serial.h: 108: val = val%100;
  9567  0F35  3064               	movlw	low(064h)
  9568  0F36  1283               	bcf	status, 5	;RP0=0, select bank0
  9569  0F37  1303               	bcf	status, 6	;RP1=0, select bank0
  9570  0F38  00A5               	movwf	(?___awmod)
  9571  0F39  3000               	movlw	high(064h)
  9572  0F3A  00A6               	movwf	((?___awmod))+1
  9573  0F3B  082F               	movf	(Serial_Println_Int@val+1),w
  9574  0F3C  01A8               	clrf	1+(?___awmod)+02h
  9575  0F3D  07A8               	addwf	1+(?___awmod)+02h
  9576  0F3E  082E               	movf	(Serial_Println_Int@val),w
  9577  0F3F  01A7               	clrf	0+(?___awmod)+02h
  9578  0F40  07A7               	addwf	0+(?___awmod)+02h
  9579                           
  9580  0F41  160A  118A  20B4   	fcall	___awmod
              120A  158A         
  9581  0F46  1283               	bcf	status, 5	;RP0=0, select bank0
  9582  0F47  1303               	bcf	status, 6	;RP1=0, select bank0
  9583  0F48  0826               	movf	(1+(?___awmod)),w
  9584  0F49  01AF               	clrf	(Serial_Println_Int@val+1)
  9585  0F4A  07AF               	addwf	(Serial_Println_Int@val+1)
  9586  0F4B  0825               	movf	(0+(?___awmod)),w
  9587  0F4C  01AE               	clrf	(Serial_Println_Int@val)
  9588  0F4D  07AE               	addwf	(Serial_Println_Int@val)
  9589                           
  9590                           	line	110
  9591                           ;serial.h: 110: while(!TXIF);
  9592  0F4E  2F4F               	goto	l919
  9593                           	
  9594  0F4F                     l920:	
  9595                           	
  9596  0F4F                     l919:	
  9597  0F4F  1E0C               	btfss	(100/8),(100)&7
  9598  0F50  2F52               	goto	u10831
  9599  0F51  2F53               	goto	u10830
  9600  0F52                     u10831:
  9601  0F52  2F4F               	goto	l919
  9602  0F53                     u10830:
  9603  0F53  2F54               	goto	l9352
  9604                           	
  9605  0F54                     l921:	
  9606                           	line	111
  9607                           	
  9608  0F54                     l9352:	
  9609                           ;serial.h: 111: TXREG = val/10+48;
  9610  0F54  300A               	movlw	low(0Ah)
  9611  0F55  00A5               	movwf	(?___awdiv)
  9612  0F56  3000               	movlw	high(0Ah)
  9613  0F57  00A6               	movwf	((?___awdiv))+1
  9614  0F58  082F               	movf	(Serial_Println_Int@val+1),w
  9615  0F59  01A8               	clrf	1+(?___awdiv)+02h
  9616  0F5A  07A8               	addwf	1+(?___awdiv)+02h
  9617  0F5B  082E               	movf	(Serial_Println_Int@val),w
  9618  0F5C  01A7               	clrf	0+(?___awdiv)+02h
  9619  0F5D  07A7               	addwf	0+(?___awdiv)+02h
  9620                           
  9621  0F5E  160A  118A  211C   	fcall	___awdiv
              120A  158A         
  9622  0F63  1283               	bcf	status, 5	;RP0=0, select bank0
  9623  0F64  1303               	bcf	status, 6	;RP1=0, select bank0
  9624  0F65  0825               	movf	(0+(?___awdiv)),w
  9625  0F66  3E30               	addlw	030h
  9626  0F67  0099               	movwf	(25)	;volatile
  9627                           	line	112
  9628                           	
  9629  0F68                     l9354:	
  9630                           ;serial.h: 112: _delay(10);
  9631                           	opt asmopt_off
  9632  0F68  3003               movlw	3
  9633  0F69  00B0               movwf	(??_Serial_Println_Int+0)+0,f
  9634  0F6A                     u12767:
  9635  0F6A  0BB0               decfsz	(??_Serial_Println_Int+0)+0,f
  9636  0F6B  2F6A               	goto	u12767
  9637                           opt asmopt_on
  9638                           
  9639                           	line	113
  9640                           	
  9641  0F6C                     l9356:	
  9642                           ;serial.h: 113: val = val%10;
  9643  0F6C  300A               	movlw	low(0Ah)
  9644  0F6D  1283               	bcf	status, 5	;RP0=0, select bank0
  9645  0F6E  1303               	bcf	status, 6	;RP1=0, select bank0
  9646  0F6F  00A5               	movwf	(?___awmod)
  9647  0F70  3000               	movlw	high(0Ah)
  9648  0F71  00A6               	movwf	((?___awmod))+1
  9649  0F72  082F               	movf	(Serial_Println_Int@val+1),w
  9650  0F73  01A8               	clrf	1+(?___awmod)+02h
  9651  0F74  07A8               	addwf	1+(?___awmod)+02h
  9652  0F75  082E               	movf	(Serial_Println_Int@val),w
  9653  0F76  01A7               	clrf	0+(?___awmod)+02h
  9654  0F77  07A7               	addwf	0+(?___awmod)+02h
  9655                           
  9656  0F78  160A  118A  20B4   	fcall	___awmod
              120A  158A         
  9657  0F7D  1283               	bcf	status, 5	;RP0=0, select bank0
  9658  0F7E  1303               	bcf	status, 6	;RP1=0, select bank0
  9659  0F7F  0826               	movf	(1+(?___awmod)),w
  9660  0F80  01AF               	clrf	(Serial_Println_Int@val+1)
  9661  0F81  07AF               	addwf	(Serial_Println_Int@val+1)
  9662  0F82  0825               	movf	(0+(?___awmod)),w
  9663  0F83  01AE               	clrf	(Serial_Println_Int@val)
  9664  0F84  07AE               	addwf	(Serial_Println_Int@val)
  9665                           
  9666                           	line	114
  9667                           ;serial.h: 114: }
  9668  0F85  2FD4               	goto	l927
  9669                           	line	115
  9670                           	
  9671  0F86                     l915:	
  9672                           	
  9673  0F86                     l9358:	
  9674                           ;serial.h: 115: else if(val > 9){
  9675  0F86  1283               	bcf	status, 5	;RP0=0, select bank0
  9676  0F87  1303               	bcf	status, 6	;RP1=0, select bank0
  9677  0F88  082F               	movf	(Serial_Println_Int@val+1),w
  9678  0F89  3A80               	xorlw	80h
  9679  0F8A  00FF               	movwf	btemp+1
  9680  0F8B  3080               	movlw	(high(0Ah))^80h
  9681  0F8C  027F               	subwf	btemp+1,w
  9682  0F8D  1D03               	skipz
  9683  0F8E  2F91               	goto	u10845
  9684  0F8F  300A               	movlw	low(0Ah)
  9685  0F90  022E               	subwf	(Serial_Println_Int@val),w
  9686  0F91                     u10845:
  9687                           
  9688  0F91  1C03               	skipc
  9689  0F92  2F94               	goto	u10841
  9690  0F93  2F95               	goto	u10840
  9691  0F94                     u10841:
  9692  0F94  2FD4               	goto	l927
  9693  0F95                     u10840:
  9694  0F95  2F97               	goto	l924
  9695                           	line	116
  9696                           	
  9697  0F96                     l9360:	
  9698                           ;serial.h: 116: while(!TXIF);
  9699  0F96  2F97               	goto	l924
  9700                           	
  9701  0F97                     l925:	
  9702                           	
  9703  0F97                     l924:	
  9704  0F97  1283               	bcf	status, 5	;RP0=0, select bank0
  9705  0F98  1303               	bcf	status, 6	;RP1=0, select bank0
  9706  0F99  1E0C               	btfss	(100/8),(100)&7
  9707  0F9A  2F9C               	goto	u10851
  9708  0F9B  2F9D               	goto	u10850
  9709  0F9C                     u10851:
  9710  0F9C  2F97               	goto	l924
  9711  0F9D                     u10850:
  9712  0F9D  2F9E               	goto	l9362
  9713                           	
  9714  0F9E                     l926:	
  9715                           	line	117
  9716                           	
  9717  0F9E                     l9362:	
  9718                           ;serial.h: 117: TXREG = val/10+48;
  9719  0F9E  300A               	movlw	low(0Ah)
  9720  0F9F  00A5               	movwf	(?___awdiv)
  9721  0FA0  3000               	movlw	high(0Ah)
  9722  0FA1  00A6               	movwf	((?___awdiv))+1
  9723  0FA2  082F               	movf	(Serial_Println_Int@val+1),w
  9724  0FA3  01A8               	clrf	1+(?___awdiv)+02h
  9725  0FA4  07A8               	addwf	1+(?___awdiv)+02h
  9726  0FA5  082E               	movf	(Serial_Println_Int@val),w
  9727  0FA6  01A7               	clrf	0+(?___awdiv)+02h
  9728  0FA7  07A7               	addwf	0+(?___awdiv)+02h
  9729                           
  9730  0FA8  160A  118A  211C   	fcall	___awdiv
              120A  158A         
  9731  0FAD  1283               	bcf	status, 5	;RP0=0, select bank0
  9732  0FAE  1303               	bcf	status, 6	;RP1=0, select bank0
  9733  0FAF  0825               	movf	(0+(?___awdiv)),w
  9734  0FB0  3E30               	addlw	030h
  9735  0FB1  0099               	movwf	(25)	;volatile
  9736                           	line	118
  9737                           	
  9738  0FB2                     l9364:	
  9739                           ;serial.h: 118: _delay(10);
  9740                           	opt asmopt_off
  9741  0FB2  3003               movlw	3
  9742  0FB3  00B0               movwf	(??_Serial_Println_Int+0)+0,f
  9743  0FB4                     u12777:
  9744  0FB4  0BB0               decfsz	(??_Serial_Println_Int+0)+0,f
  9745  0FB5  2FB4               	goto	u12777
  9746                           opt asmopt_on
  9747                           
  9748                           	line	119
  9749                           	
  9750  0FB6                     l9366:	
  9751                           ;serial.h: 119: val = val%10;
  9752  0FB6  300A               	movlw	low(0Ah)
  9753  0FB7  1283               	bcf	status, 5	;RP0=0, select bank0
  9754  0FB8  1303               	bcf	status, 6	;RP1=0, select bank0
  9755  0FB9  00A5               	movwf	(?___awmod)
  9756  0FBA  3000               	movlw	high(0Ah)
  9757  0FBB  00A6               	movwf	((?___awmod))+1
  9758  0FBC  082F               	movf	(Serial_Println_Int@val+1),w
  9759  0FBD  01A8               	clrf	1+(?___awmod)+02h
  9760  0FBE  07A8               	addwf	1+(?___awmod)+02h
  9761  0FBF  082E               	movf	(Serial_Println_Int@val),w
  9762  0FC0  01A7               	clrf	0+(?___awmod)+02h
  9763  0FC1  07A7               	addwf	0+(?___awmod)+02h
  9764                           
  9765  0FC2  160A  118A  20B4   	fcall	___awmod
              120A  158A         
  9766  0FC7  1283               	bcf	status, 5	;RP0=0, select bank0
  9767  0FC8  1303               	bcf	status, 6	;RP1=0, select bank0
  9768  0FC9  0826               	movf	(1+(?___awmod)),w
  9769  0FCA  01AF               	clrf	(Serial_Println_Int@val+1)
  9770  0FCB  07AF               	addwf	(Serial_Println_Int@val+1)
  9771  0FCC  0825               	movf	(0+(?___awmod)),w
  9772  0FCD  01AE               	clrf	(Serial_Println_Int@val)
  9773  0FCE  07AE               	addwf	(Serial_Println_Int@val)
  9774                           
  9775  0FCF  2FD4               	goto	l927
  9776                           	line	120
  9777                           	
  9778  0FD0                     l923:	
  9779  0FD0  2FD4               	goto	l927
  9780                           	line	121
  9781                           	
  9782  0FD1                     l922:	
  9783  0FD1  2FD4               	goto	l927
  9784                           	
  9785  0FD2                     l914:	
  9786  0FD2  2FD4               	goto	l927
  9787                           	
  9788  0FD3                     l903:	
  9789                           ;serial.h: 120: }
  9790                           ;serial.h: 121: while(!TXIF);
  9791  0FD3  2FD4               	goto	l927
  9792                           	
  9793  0FD4                     l928:	
  9794                           	
  9795  0FD4                     l927:	
  9796  0FD4  1283               	bcf	status, 5	;RP0=0, select bank0
  9797  0FD5  1303               	bcf	status, 6	;RP1=0, select bank0
  9798  0FD6  1E0C               	btfss	(100/8),(100)&7
  9799  0FD7  2FD9               	goto	u10861
  9800  0FD8  2FDA               	goto	u10860
  9801  0FD9                     u10861:
  9802  0FD9  2FD4               	goto	l927
  9803  0FDA                     u10860:
  9804  0FDA  2FDB               	goto	l9368
  9805                           	
  9806  0FDB                     l929:	
  9807                           	line	122
  9808                           	
  9809  0FDB                     l9368:	
  9810                           ;serial.h: 122: TXREG = val+48;
  9811  0FDB  082E               	movf	(Serial_Println_Int@val),w
  9812  0FDC  3E30               	addlw	030h
  9813  0FDD  0099               	movwf	(25)	;volatile
  9814                           	line	123
  9815                           	
  9816  0FDE                     l9370:	
  9817                           ;serial.h: 123: _delay(10);
  9818                           	opt asmopt_off
  9819  0FDE  3003               movlw	3
  9820  0FDF  00B0               movwf	(??_Serial_Println_Int+0)+0,f
  9821  0FE0                     u12787:
  9822  0FE0  0BB0               decfsz	(??_Serial_Println_Int+0)+0,f
  9823  0FE1  2FE0               	goto	u12787
  9824                           opt asmopt_on
  9825                           
  9826                           	line	124
  9827                           ;serial.h: 124: while(!TXIF);
  9828  0FE2  2FE3               	goto	l930
  9829                           	
  9830  0FE3                     l931:	
  9831                           	
  9832  0FE3                     l930:	
  9833  0FE3  1283               	bcf	status, 5	;RP0=0, select bank0
  9834  0FE4  1303               	bcf	status, 6	;RP1=0, select bank0
  9835  0FE5  1E0C               	btfss	(100/8),(100)&7
  9836  0FE6  2FE8               	goto	u10871
  9837  0FE7  2FE9               	goto	u10870
  9838  0FE8                     u10871:
  9839  0FE8  2FE3               	goto	l930
  9840  0FE9                     u10870:
  9841  0FE9  2FEA               	goto	l9372
  9842                           	
  9843  0FEA                     l932:	
  9844                           	line	125
  9845                           	
  9846  0FEA                     l9372:	
  9847                           ;serial.h: 125: TXREG = 13;
  9848  0FEA  300D               	movlw	(0Dh)
  9849  0FEB  0099               	movwf	(25)	;volatile
  9850                           	line	126
  9851                           ;serial.h: 126: _delay(10);
  9852                           	opt asmopt_off
  9853  0FEC  3003               movlw	3
  9854  0FED  00B0               movwf	(??_Serial_Println_Int+0)+0,f
  9855  0FEE                     u12797:
  9856  0FEE  0BB0               decfsz	(??_Serial_Println_Int+0)+0,f
  9857  0FEF  2FEE               	goto	u12797
  9858                           opt asmopt_on
  9859                           
  9860                           	line	127
  9861                           ;serial.h: 127: while(!TXIF);
  9862  0FF0  2FF1               	goto	l933
  9863                           	
  9864  0FF1                     l934:	
  9865                           	
  9866  0FF1                     l933:	
  9867  0FF1  1283               	bcf	status, 5	;RP0=0, select bank0
  9868  0FF2  1303               	bcf	status, 6	;RP1=0, select bank0
  9869  0FF3  1E0C               	btfss	(100/8),(100)&7
  9870  0FF4  2FF6               	goto	u10881
  9871  0FF5  2FF7               	goto	u10880
  9872  0FF6                     u10881:
  9873  0FF6  2FF1               	goto	l933
  9874  0FF7                     u10880:
  9875  0FF7  2FF8               	goto	l9374
  9876                           	
  9877  0FF8                     l935:	
  9878                           	line	128
  9879                           	
  9880  0FF8                     l9374:	
  9881                           ;serial.h: 128: TXREG = 10;
  9882  0FF8  300A               	movlw	(0Ah)
  9883  0FF9  0099               	movwf	(25)	;volatile
  9884                           	line	129
  9885                           ;serial.h: 129: _delay(10);
  9886                           	opt asmopt_off
  9887  0FFA  3003               movlw	3
  9888  0FFB  00B0               movwf	(??_Serial_Println_Int+0)+0,f
  9889  0FFC                     u12807:
  9890  0FFC  0BB0               decfsz	(??_Serial_Println_Int+0)+0,f
  9891  0FFD  2FFC               	goto	u12807
  9892                           opt asmopt_on
  9893                           
  9894  0FFE  2FFF               	goto	l936
  9895                           	line	130
  9896                           	
  9897  0FFF                     l9376:	
  9898                           	line	131
  9899                           ;serial.h: 130: return 1;
  9900                           ;	Return value of _Serial_Println_Int is never used
  9901                           	
  9902  0FFF                     l936:	
  9903  0FFF  0008               	return
  9904                           	opt stack 0
  9905                           GLOBAL	__end_of_Serial_Println_Int
  9906  1000                     	__end_of_Serial_Println_Int:
  9907 ;; =============== function _Serial_Println_Int ends ============
  9908                           
  9909                           	signat	_Serial_Println_Int,4216
  9910                           	global	_Serial_NewLine
  9911                           psect	text1501,local,class=CODE,delta=2
  9912                           global __ptext1501
  9913  1BA1                     __ptext1501:
  9914                           
  9915 ;; *************** function _Serial_NewLine *****************
  9916 ;; Defined at:
  9917 ;;		line 37 in file "D:\ELECTRONIC\2016\1. Automated Solar Panel Orientation Setter\Firmware\ver4\serial.h"
  9918 ;; Parameters:    Size  Location     Type
  9919 ;;		None
  9920 ;; Auto vars:     Size  Location     Type
  9921 ;;		None
  9922 ;; Return value:  Size  Location     Type
  9923 ;;		None               void
  9924 ;; Registers used:
  9925 ;;		wreg
  9926 ;; Tracked objects:
  9927 ;;		On entry : 0/0
  9928 ;;		On exit  : 0/0
  9929 ;;		Unchanged: 0/0
  9930 ;; Data sizes:     COMMON   BANK0   BANK1   BANK3   BANK2
  9931 ;;      Params:         0       0       0       0       0
  9932 ;;      Locals:         0       0       0       0       0
  9933 ;;      Temps:          0       1       0       0       0
  9934 ;;      Totals:         0       1       0       0       0
  9935 ;;Total ram usage:        1 bytes
  9936 ;; Hardware stack levels used:    1
  9937 ;; Hardware stack levels required when called:    4
  9938 ;; This function calls:
  9939 ;;		Nothing
  9940 ;; This function is called by:
  9941 ;;		_main
  9942 ;;		_Serial_Println
  9943 ;; This function uses a non-reentrant model
  9944 ;;
  9945                           psect	text1501
  9946                           	file	"D:\ELECTRONIC\2016\1. Automated Solar Panel Orientation Setter\Firmware\ver4\seri
                                 al.h"
  9947                           	line	37
  9948                           	global	__size_of_Serial_NewLine
  9949  0023                     	__size_of_Serial_NewLine	equ	__end_of_Serial_NewLine-_Serial_NewLine
  9950                           	
  9951  1BA1                     _Serial_NewLine:	
  9952                           	opt	stack 3
  9953                           ; Regs used in _Serial_NewLine: [wreg]
  9954                           	line	38
  9955                           	
  9956  1BA1                     l9278:	
  9957                           ;serial.h: 38: while(!TXIF);
  9958  1BA1  2BA2               	goto	l868
  9959                           	
  9960  1BA2                     l869:	
  9961                           	
  9962  1BA2                     l868:	
  9963  1BA2  1283               	bcf	status, 5	;RP0=0, select bank0
  9964  1BA3  1303               	bcf	status, 6	;RP1=0, select bank0
  9965  1BA4  1E0C               	btfss	(100/8),(100)&7
  9966  1BA5  2BA7               	goto	u10681
  9967  1BA6  2BA8               	goto	u10680
  9968  1BA7                     u10681:
  9969  1BA7  2BA2               	goto	l868
  9970  1BA8                     u10680:
  9971  1BA8  2BA9               	goto	l9280
  9972                           	
  9973  1BA9                     l870:	
  9974                           	line	39
  9975                           	
  9976  1BA9                     l9280:	
  9977                           ;serial.h: 39: TXREG = 13;
  9978  1BA9  300D               	movlw	(0Dh)
  9979  1BAA  0099               	movwf	(25)	;volatile
  9980                           	line	40
  9981                           ;serial.h: 40: _delay((unsigned long)((1)*(4000000/4000.0)));
  9982                           	opt asmopt_off
  9983  1BAB  30F9               movlw	249
  9984  1BAC  00A5               movwf	(??_Serial_NewLine+0)+0,f
  9985  1BAD                     u12817:
  9986  1BAD  0064               	clrwdt
  9987  1BAE  0BA5               decfsz	(??_Serial_NewLine+0)+0,f
  9988  1BAF  2BAD               	goto	u12817
  9989  1BB0  2BB1               	nop2	;nop
  9990  1BB1  0064               	clrwdt
  9991                           opt asmopt_on
  9992                           
  9993                           	line	41
  9994                           ;serial.h: 41: while(!TXIF);
  9995  1BB2  2BB3               	goto	l871
  9996                           	
  9997  1BB3                     l872:	
  9998                           	
  9999  1BB3                     l871:	
 10000  1BB3  1283               	bcf	status, 5	;RP0=0, select bank0
 10001  1BB4  1303               	bcf	status, 6	;RP1=0, select bank0
 10002  1BB5  1E0C               	btfss	(100/8),(100)&7
 10003  1BB6  2BB8               	goto	u10691
 10004  1BB7  2BB9               	goto	u10690
 10005  1BB8                     u10691:
 10006  1BB8  2BB3               	goto	l871
 10007  1BB9                     u10690:
 10008  1BB9  2BBA               	goto	l9282
 10009                           	
 10010  1BBA                     l873:	
 10011                           	line	42
 10012                           	
 10013  1BBA                     l9282:	
 10014                           ;serial.h: 42: TXREG = 10;
 10015  1BBA  300A               	movlw	(0Ah)
 10016  1BBB  0099               	movwf	(25)	;volatile
 10017                           	line	43
 10018                           ;serial.h: 43: _delay((unsigned long)((1)*(4000000/4000.0)));
 10019                           	opt asmopt_off
 10020  1BBC  30F9               movlw	249
 10021  1BBD  00A5               movwf	(??_Serial_NewLine+0)+0,f
 10022  1BBE                     u12827:
 10023  1BBE  0064               	clrwdt
 10024  1BBF  0BA5               decfsz	(??_Serial_NewLine+0)+0,f
 10025  1BC0  2BBE               	goto	u12827
 10026  1BC1  2BC2               	nop2	;nop
 10027  1BC2  0064               	clrwdt
 10028                           opt asmopt_on
 10029                           
 10030                           	line	44
 10031                           	
 10032  1BC3                     l874:	
 10033  1BC3  0008               	return
 10034                           	opt stack 0
 10035                           GLOBAL	__end_of_Serial_NewLine
 10036  1BC4                     	__end_of_Serial_NewLine:
 10037 ;; =============== function _Serial_NewLine ends ============
 10038                           
 10039                           	signat	_Serial_NewLine,88
 10040                           	global	_Serial_Print
 10041                           psect	text1502,local,class=CODE,delta=2
 10042                           global __ptext1502
 10043  1C82                     __ptext1502:
 10044                           
 10045 ;; *************** function _Serial_Print *****************
 10046 ;; Defined at:
 10047 ;;		line 27 in file "D:\ELECTRONIC\2016\1. Automated Solar Panel Orientation Setter\Firmware\ver4\serial.h"
 10048 ;; Parameters:    Size  Location     Type
 10049 ;;  a               1    wreg     PTR unsigned char 
 10050 ;;		 -> STR_13(20), STR_12(3), STR_11(3), STR_10(3), 
 10051 ;;		 -> STR_9(3), 
 10052 ;; Auto vars:     Size  Location     Type
 10053 ;;  a               1    6[BANK0 ] PTR unsigned char 
 10054 ;;		 -> STR_13(20), STR_12(3), STR_11(3), STR_10(3), 
 10055 ;;		 -> STR_9(3), 
 10056 ;; Return value:  Size  Location     Type
 10057 ;;		None               void
 10058 ;; Registers used:
 10059 ;;		wreg, fsr0l, fsr0h, status,2, status,0, pclath
 10060 ;; Tracked objects:
 10061 ;;		On entry : 0/0
 10062 ;;		On exit  : 0/0
 10063 ;;		Unchanged: 0/0
 10064 ;; Data sizes:     COMMON   BANK0   BANK1   BANK3   BANK2
 10065 ;;      Params:         0       0       0       0       0
 10066 ;;      Locals:         0       1       0       0       0
 10067 ;;      Temps:          0       1       0       0       0
 10068 ;;      Totals:         0       2       0       0       0
 10069 ;;Total ram usage:        2 bytes
 10070 ;; Hardware stack levels used:    1
 10071 ;; Hardware stack levels required when called:    4
 10072 ;; This function calls:
 10073 ;;		Nothing
 10074 ;; This function is called by:
 10075 ;;		_main
 10076 ;;		_CheckMode
 10077 ;; This function uses a non-reentrant model
 10078 ;;
 10079                           psect	text1502
 10080                           	file	"D:\ELECTRONIC\2016\1. Automated Solar Panel Orientation Setter\Firmware\ver4\seri
                                 al.h"
 10081                           	line	27
 10082                           	global	__size_of_Serial_Print
 10083  002C                     	__size_of_Serial_Print	equ	__end_of_Serial_Print-_Serial_Print
 10084                           	
 10085  1C82                     _Serial_Print:	
 10086                           	opt	stack 2
 10087                           ; Regs used in _Serial_Print: [wreg-fsr0h+status,2+status,0+pclath]
 10088                           ;Serial_Print@a stored from wreg
 10089  1C82  1283               	bcf	status, 5	;RP0=0, select bank0
 10090  1C83  1303               	bcf	status, 6	;RP1=0, select bank0
 10091  1C84  00A6               	movwf	(Serial_Print@a)
 10092                           	line	28
 10093                           	
 10094  1C85                     l9268:	
 10095                           ;serial.h: 28: while( *a!='\0'){
 10096  1C85  2CA0               	goto	l9276
 10097                           	
 10098  1C86                     l860:	
 10099                           	line	29
 10100                           ;serial.h: 29: while(!TXIF);
 10101  1C86  2C87               	goto	l861
 10102                           	
 10103  1C87                     l862:	
 10104                           	
 10105  1C87                     l861:	
 10106  1C87  1E0C               	btfss	(100/8),(100)&7
 10107  1C88  2C8A               	goto	u10661
 10108  1C89  2C8B               	goto	u10660
 10109  1C8A                     u10661:
 10110  1C8A  2C87               	goto	l861
 10111  1C8B                     u10660:
 10112  1C8B  2C8C               	goto	l9270
 10113                           	
 10114  1C8C                     l863:	
 10115                           	line	30
 10116                           	
 10117  1C8C                     l9270:	
 10118                           ;serial.h: 30: TXREG = *a;
 10119  1C8C  0826               	movf	(Serial_Print@a),w
 10120  1C8D  0084               	movwf	fsr0
 10121  1C8E  120A  158A  2000   	fcall	stringdir
              160A  158A         
 10122  1C93  0099               	movwf	(25)	;volatile
 10123                           	line	31
 10124                           	
 10125  1C94                     l9272:	
 10126                           ;serial.h: 31: _delay(10);
 10127                           	opt asmopt_off
 10128  1C94  3003               movlw	3
 10129  1C95  00A5               movwf	(??_Serial_Print+0)+0,f
 10130  1C96                     u12837:
 10131  1C96  0BA5               decfsz	(??_Serial_Print+0)+0,f
 10132  1C97  2C96               	goto	u12837
 10133                           opt asmopt_on
 10134                           
 10135                           	line	32
 10136                           	
 10137  1C98                     l9274:	
 10138                           ;serial.h: 32: a = a+1;
 10139  1C98  1283               	bcf	status, 5	;RP0=0, select bank0
 10140  1C99  1303               	bcf	status, 6	;RP1=0, select bank0
 10141  1C9A  0826               	movf	(Serial_Print@a),w
 10142  1C9B  3E01               	addlw	01h
 10143  1C9C  00A5               	movwf	(??_Serial_Print+0)+0
 10144  1C9D  0825               	movf	(??_Serial_Print+0)+0,w
 10145  1C9E  00A6               	movwf	(Serial_Print@a)
 10146  1C9F  2CA0               	goto	l9276
 10147                           	line	33
 10148                           	
 10149  1CA0                     l859:	
 10150                           	line	28
 10151                           	
 10152  1CA0                     l9276:	
 10153  1CA0  0826               	movf	(Serial_Print@a),w
 10154  1CA1  0084               	movwf	fsr0
 10155  1CA2  120A  158A  2000   	fcall	stringdir
              160A  158A         
 10156  1CA7  3800               	iorlw	0
 10157  1CA8  1D03               	skipz
 10158  1CA9  2CAB               	goto	u10671
 10159  1CAA  2CAC               	goto	u10670
 10160  1CAB                     u10671:
 10161  1CAB  2C87               	goto	l861
 10162  1CAC                     u10670:
 10163  1CAC  2CAD               	goto	l865
 10164                           	
 10165  1CAD                     l864:	
 10166                           	line	35
 10167                           ;serial.h: 33: }
 10168                           ;serial.h: 34: return 1;
 10169                           ;	Return value of _Serial_Print is never used
 10170                           	
 10171  1CAD                     l865:	
 10172  1CAD  0008               	return
 10173                           	opt stack 0
 10174                           GLOBAL	__end_of_Serial_Print
 10175  1CAE                     	__end_of_Serial_Print:
 10176 ;; =============== function _Serial_Print ends ============
 10177                           
 10178                           	signat	_Serial_Print,4216
 10179                           	global	_Serial_Init
 10180                           psect	text1503,local,class=CODE,delta=2
 10181                           global __ptext1503
 10182  1B3E                     __ptext1503:
 10183                           
 10184 ;; *************** function _Serial_Init *****************
 10185 ;; Defined at:
 10186 ;;		line 10 in file "D:\ELECTRONIC\2016\1. Automated Solar Panel Orientation Setter\Firmware\ver4\serial.h"
 10187 ;; Parameters:    Size  Location     Type
 10188 ;;		None
 10189 ;; Auto vars:     Size  Location     Type
 10190 ;;		None
 10191 ;; Return value:  Size  Location     Type
 10192 ;;		None               void
 10193 ;; Registers used:
 10194 ;;		wreg
 10195 ;; Tracked objects:
 10196 ;;		On entry : 0/0
 10197 ;;		On exit  : 0/0
 10198 ;;		Unchanged: 0/0
 10199 ;; Data sizes:     COMMON   BANK0   BANK1   BANK3   BANK2
 10200 ;;      Params:         0       0       0       0       0
 10201 ;;      Locals:         0       0       0       0       0
 10202 ;;      Temps:          0       3       0       0       0
 10203 ;;      Totals:         0       3       0       0       0
 10204 ;;Total ram usage:        3 bytes
 10205 ;; Hardware stack levels used:    1
 10206 ;; Hardware stack levels required when called:    4
 10207 ;; This function calls:
 10208 ;;		Nothing
 10209 ;; This function is called by:
 10210 ;;		_main
 10211 ;; This function uses a non-reentrant model
 10212 ;;
 10213                           psect	text1503
 10214                           	file	"D:\ELECTRONIC\2016\1. Automated Solar Panel Orientation Setter\Firmware\ver4\seri
                                 al.h"
 10215                           	line	10
 10216                           	global	__size_of_Serial_Init
 10217  0020                     	__size_of_Serial_Init	equ	__end_of_Serial_Init-_Serial_Init
 10218                           	
 10219  1B3E                     _Serial_Init:	
 10220                           	opt	stack 3
 10221                           ; Regs used in _Serial_Init: [wreg]
 10222                           	line	13
 10223                           	
 10224  1B3E                     l9258:	
 10225                           ;serial.h: 13: SPEN = 1;
 10226  1B3E  1283               	bcf	status, 5	;RP0=0, select bank0
 10227  1B3F  1303               	bcf	status, 6	;RP1=0, select bank0
 10228  1B40  1798               	bsf	(199/8),(199)&7
 10229                           	line	14
 10230                           ;serial.h: 14: RX9 = 0;
 10231  1B41  1318               	bcf	(198/8),(198)&7
 10232                           	line	15
 10233                           ;serial.h: 15: CREN = 1;
 10234  1B42  1618               	bsf	(196/8),(196)&7
 10235                           	line	16
 10236                           ;serial.h: 16: TX9 = 0;
 10237  1B43  1683               	bsf	status, 5	;RP0=1, select bank1
 10238  1B44  1303               	bcf	status, 6	;RP1=0, select bank1
 10239  1B45  1318               	bcf	(1222/8)^080h,(1222)&7
 10240                           	line	17
 10241                           ;serial.h: 17: TXEN = 1;
 10242  1B46  1698               	bsf	(1221/8)^080h,(1221)&7
 10243                           	line	18
 10244                           ;serial.h: 18: SYNC = 0;
 10245  1B47  1218               	bcf	(1220/8)^080h,(1220)&7
 10246                           	line	19
 10247                           ;serial.h: 19: BRGH = 1;
 10248  1B48  1518               	bsf	(1218/8)^080h,(1218)&7
 10249                           	line	20
 10250                           	
 10251  1B49                     l9260:	
 10252                           ;serial.h: 20: SPBRG = 129;
 10253  1B49  3081               	movlw	(081h)
 10254  1B4A  0099               	movwf	(153)^080h	;volatile
 10255                           	line	21
 10256                           	
 10257  1B4B                     l9262:	
 10258                           ;serial.h: 21: RCIE = 1;
 10259  1B4B  168C               	bsf	(1125/8)^080h,(1125)&7
 10260                           	line	22
 10261                           	
 10262  1B4C                     l9264:	
 10263                           ;serial.h: 22: TXIE = 0;
 10264  1B4C  120C               	bcf	(1124/8)^080h,(1124)&7
 10265                           	line	23
 10266                           	
 10267  1B4D                     l9266:	
 10268                           ;serial.h: 23: ADDEN = 0;
 10269  1B4D  1283               	bcf	status, 5	;RP0=0, select bank0
 10270  1B4E  1303               	bcf	status, 6	;RP1=0, select bank0
 10271  1B4F  1198               	bcf	(195/8),(195)&7
 10272                           	line	24
 10273                           ;serial.h: 24: _delay((unsigned long)((500)*(4000000/4000.0)));
 10274                           	opt asmopt_off
 10275  1B50  3003               movlw  3
 10276  1B51  00A7               movwf	((??_Serial_Init+0)+0+2),f
 10277  1B52  308A               movlw	138
 10278  1B53  00A6               movwf	((??_Serial_Init+0)+0+1),f
 10279  1B54  3056               	movlw	86
 10280  1B55  00A5               movwf	((??_Serial_Init+0)+0),f
 10281  1B56                     u12847:
 10282  1B56  0BA5               	decfsz	((??_Serial_Init+0)+0),f
 10283  1B57  2B56               	goto	u12847
 10284  1B58  0BA6               	decfsz	((??_Serial_Init+0)+0+1),f
 10285  1B59  2B56               	goto	u12847
 10286  1B5A  0BA7               	decfsz	((??_Serial_Init+0)+0+2),f
 10287  1B5B  2B56               	goto	u12847
 10288  1B5C  2B5D               	nop2
 10289                           opt asmopt_on
 10290                           
 10291                           	line	25
 10292                           	
 10293  1B5D                     l856:	
 10294  1B5D  0008               	return
 10295                           	opt stack 0
 10296                           GLOBAL	__end_of_Serial_Init
 10297  1B5E                     	__end_of_Serial_Init:
 10298 ;; =============== function _Serial_Init ends ============
 10299                           
 10300                           	signat	_Serial_Init,88
 10301                           	global	_read_a2d_value
 10302                           psect	text1504,local,class=CODE,delta=2
 10303                           global __ptext1504
 10304  1E5A                     __ptext1504:
 10305                           
 10306 ;; *************** function _read_a2d_value *****************
 10307 ;; Defined at:
 10308 ;;		line 13 in file "D:\ELECTRONIC\2016\1. Automated Solar Panel Orientation Setter\Firmware\ver4\a2d.h"
 10309 ;; Parameters:    Size  Location     Type
 10310 ;;  channel         1    wreg     unsigned char 
 10311 ;; Auto vars:     Size  Location     Type
 10312 ;;  channel         1    9[BANK0 ] unsigned char 
 10313 ;;  a2d_value       2   10[BANK0 ] unsigned int 
 10314 ;; Return value:  Size  Location     Type
 10315 ;;                  2    5[BANK0 ] unsigned int 
 10316 ;; Registers used:
 10317 ;;		wreg, status,2, status,0
 10318 ;; Tracked objects:
 10319 ;;		On entry : 0/0
 10320 ;;		On exit  : 0/0
 10321 ;;		Unchanged: 0/0
 10322 ;; Data sizes:     COMMON   BANK0   BANK1   BANK3   BANK2
 10323 ;;      Params:         0       2       0       0       0
 10324 ;;      Locals:         0       3       0       0       0
 10325 ;;      Temps:          0       2       0       0       0
 10326 ;;      Totals:         0       7       0       0       0
 10327 ;;Total ram usage:        7 bytes
 10328 ;; Hardware stack levels used:    1
 10329 ;; Hardware stack levels required when called:    4
 10330 ;; This function calls:
 10331 ;;		Nothing
 10332 ;; This function is called by:
 10333 ;;		_a2d_read
 10334 ;; This function uses a non-reentrant model
 10335 ;;
 10336                           psect	text1504
 10337                           	file	"D:\ELECTRONIC\2016\1. Automated Solar Panel Orientation Setter\Firmware\ver4\a2d.
                                 h"
 10338                           	line	13
 10339                           	global	__size_of_read_a2d_value
 10340  0046                     	__size_of_read_a2d_value	equ	__end_of_read_a2d_value-_read_a2d_value
 10341                           	
 10342  1E5A                     _read_a2d_value:	
 10343                           	opt	stack 2
 10344                           ; Regs used in _read_a2d_value: [wreg+status,2+status,0]
 10345                           ;read_a2d_value@channel stored from wreg
 10346                           	line	15
 10347  1E5A  1283               	bcf	status, 5	;RP0=0, select bank0
 10348  1E5B  1303               	bcf	status, 6	;RP1=0, select bank0
 10349  1E5C  00A9               	movwf	(read_a2d_value@channel)
 10350                           	
 10351  1E5D                     l9240:	
 10352                           ;a2d.h: 14: unsigned int a2d_value;
 10353                           ;a2d.h: 15: channel = channel << 3;
 10354  1E5D  0829               	movf	(read_a2d_value@channel),w
 10355  1E5E  00A7               	movwf	(??_read_a2d_value+0)+0
 10356  1E5F  3002               	movlw	(03h)-1
 10357  1E60                     u10645:
 10358  1E60  1003               	clrc
 10359  1E61  0DA7               	rlf	(??_read_a2d_value+0)+0,f
 10360  1E62  3EFF               	addlw	-1
 10361  1E63  1D03               	skipz
 10362  1E64  2E60               	goto	u10645
 10363  1E65  1003               	clrc
 10364  1E66  0D27               	rlf	(??_read_a2d_value+0)+0,w
 10365  1E67  00A8               	movwf	(??_read_a2d_value+1)+0
 10366  1E68  0828               	movf	(??_read_a2d_value+1)+0,w
 10367  1E69  00A9               	movwf	(read_a2d_value@channel)
 10368                           	line	16
 10369                           	
 10370  1E6A                     l9242:	
 10371                           ;a2d.h: 16: ADCON0 = ADCON0 & 0b11000111;
 10372  1E6A  081F               	movf	(31),w
 10373  1E6B  39C7               	andlw	0C7h
 10374  1E6C  009F               	movwf	(31)	;volatile
 10375                           	line	17
 10376                           	
 10377  1E6D                     l9244:	
 10378                           ;a2d.h: 17: ADCON0 = ADCON0 | channel;
 10379  1E6D  081F               	movf	(31),w	;volatile
 10380  1E6E  0429               	iorwf	(read_a2d_value@channel),w
 10381  1E6F  009F               	movwf	(31)	;volatile
 10382                           	line	18
 10383                           	
 10384  1E70                     l9246:	
 10385                           ;a2d.h: 18: ADON = 1;
 10386  1E70  141F               	bsf	(248/8),(248)&7
 10387                           	line	19
 10388                           	
 10389  1E71                     l9248:	
 10390                           ;a2d.h: 19: _delay(50);
 10391                           	opt asmopt_off
 10392  1E71  3010               movlw	16
 10393  1E72  00A7               movwf	(??_read_a2d_value+0)+0,f
 10394  1E73                     u12857:
 10395  1E73  0BA7               decfsz	(??_read_a2d_value+0)+0,f
 10396  1E74  2E73               	goto	u12857
 10397  1E75  0064               	clrwdt
 10398                           opt asmopt_on
 10399                           
 10400                           	line	20
 10401                           	
 10402  1E76                     l9250:	
 10403                           ;a2d.h: 20: GO = 1;
 10404  1E76  1283               	bcf	status, 5	;RP0=0, select bank0
 10405  1E77  1303               	bcf	status, 6	;RP1=0, select bank0
 10406  1E78  151F               	bsf	(250/8),(250)&7
 10407                           	line	21
 10408                           ;a2d.h: 21: while( GO == 1 );
 10409  1E79  2E7A               	goto	l850
 10410                           	
 10411  1E7A                     l851:	
 10412                           	
 10413  1E7A                     l850:	
 10414  1E7A  191F               	btfsc	(250/8),(250)&7
 10415  1E7B  2E7D               	goto	u10651
 10416  1E7C  2E7E               	goto	u10650
 10417  1E7D                     u10651:
 10418  1E7D  2E7A               	goto	l850
 10419  1E7E                     u10650:
 10420  1E7E  2E7F               	goto	l9252
 10421                           	
 10422  1E7F                     l852:	
 10423                           	line	22
 10424                           	
 10425  1E7F                     l9252:	
 10426                           ;a2d.h: 22: a2d_value = ADRESH;
 10427  1E7F  081E               	movf	(30),w	;volatile
 10428  1E80  00A7               	movwf	(??_read_a2d_value+0)+0
 10429  1E81  01A8               	clrf	(??_read_a2d_value+0)+0+1
 10430  1E82  0827               	movf	0+(??_read_a2d_value+0)+0,w
 10431  1E83  00AA               	movwf	(read_a2d_value@a2d_value)
 10432  1E84  0828               	movf	1+(??_read_a2d_value+0)+0,w
 10433  1E85  00AB               	movwf	(read_a2d_value@a2d_value+1)
 10434                           	line	23
 10435                           ;a2d.h: 23: a2d_value = a2d_value << 8;
 10436  1E86  082A               	movf	(read_a2d_value@a2d_value),w
 10437  1E87  00A8               	movwf	(??_read_a2d_value+0)+0+1
 10438  1E88  01A7               	clrf	(??_read_a2d_value+0)+0
 10439  1E89  0827               	movf	0+(??_read_a2d_value+0)+0,w
 10440  1E8A  00AA               	movwf	(read_a2d_value@a2d_value)
 10441  1E8B  0828               	movf	1+(??_read_a2d_value+0)+0,w
 10442  1E8C  00AB               	movwf	(read_a2d_value@a2d_value+1)
 10443                           	line	24
 10444                           ;a2d.h: 24: a2d_value = a2d_value + ADRESL;
 10445  1E8D  1683               	bsf	status, 5	;RP0=1, select bank1
 10446  1E8E  1303               	bcf	status, 6	;RP1=0, select bank1
 10447  1E8F  081E               	movf	(158)^080h,w	;volatile
 10448  1E90  1283               	bcf	status, 5	;RP0=0, select bank0
 10449  1E91  1303               	bcf	status, 6	;RP1=0, select bank0
 10450  1E92  072A               	addwf	(read_a2d_value@a2d_value),w
 10451  1E93  00AA               	movwf	(read_a2d_value@a2d_value)
 10452  1E94  082B               	movf	(read_a2d_value@a2d_value+1),w
 10453  1E95  1803               	skipnc
 10454  1E96  0A2B               	incf	(read_a2d_value@a2d_value+1),w
 10455  1E97  00AB               	movwf	((read_a2d_value@a2d_value))+1
 10456                           	line	25
 10457                           	
 10458  1E98                     l9254:	
 10459                           ;a2d.h: 25: return a2d_value;
 10460  1E98  082B               	movf	(read_a2d_value@a2d_value+1),w
 10461  1E99  01A6               	clrf	(?_read_a2d_value+1)
 10462  1E9A  07A6               	addwf	(?_read_a2d_value+1)
 10463  1E9B  082A               	movf	(read_a2d_value@a2d_value),w
 10464  1E9C  01A5               	clrf	(?_read_a2d_value)
 10465  1E9D  07A5               	addwf	(?_read_a2d_value)
 10466                           
 10467  1E9E  2E9F               	goto	l853
 10468                           	
 10469  1E9F                     l9256:	
 10470                           	line	26
 10471                           	
 10472  1E9F                     l853:	
 10473  1E9F  0008               	return
 10474                           	opt stack 0
 10475                           GLOBAL	__end_of_read_a2d_value
 10476  1EA0                     	__end_of_read_a2d_value:
 10477 ;; =============== function _read_a2d_value ends ============
 10478                           
 10479                           	signat	_read_a2d_value,4218
 10480                           	global	_lcd_add
 10481                           psect	text1505,local,class=CODE,delta=2
 10482                           global __ptext1505
 10483  14EA                     __ptext1505:
 10484                           
 10485 ;; *************** function _lcd_add *****************
 10486 ;; Defined at:
 10487 ;;		line 225 in file "D:\ELECTRONIC\2016\1. Automated Solar Panel Orientation Setter\Firmware\ver4\lcdV2.h"
 10488 ;; Parameters:    Size  Location     Type
 10489 ;;		None
 10490 ;; Auto vars:     Size  Location     Type
 10491 ;;		None
 10492 ;; Return value:  Size  Location     Type
 10493 ;;		None               void
 10494 ;; Registers used:
 10495 ;;		wreg, status,2, status,0
 10496 ;; Tracked objects:
 10497 ;;		On entry : 0/0
 10498 ;;		On exit  : 0/0
 10499 ;;		Unchanged: 0/0
 10500 ;; Data sizes:     COMMON   BANK0   BANK1   BANK3   BANK2
 10501 ;;      Params:         0       0       0       0       0
 10502 ;;      Locals:         0       0       0       0       0
 10503 ;;      Temps:          0       2       0       0       0
 10504 ;;      Totals:         0       2       0       0       0
 10505 ;;Total ram usage:        2 bytes
 10506 ;; Hardware stack levels used:    1
 10507 ;; Hardware stack levels required when called:    4
 10508 ;; This function calls:
 10509 ;;		Nothing
 10510 ;; This function is called by:
 10511 ;;		_putch
 10512 ;;		_LCD_print_char
 10513 ;;		_clr_display
 10514 ;;		_position
 10515 ;;		_curser
 10516 ;; This function uses a non-reentrant model
 10517 ;;
 10518                           psect	text1505
 10519                           	file	"D:\ELECTRONIC\2016\1. Automated Solar Panel Orientation Setter\Firmware\ver4\lcdV
                                 2.h"
 10520                           	line	225
 10521                           	global	__size_of_lcd_add
 10522  00FC                     	__size_of_lcd_add	equ	__end_of_lcd_add-_lcd_add
 10523                           	
 10524  14EA                     _lcd_add:	
 10525                           	opt	stack 1
 10526                           ; Regs used in _lcd_add: [wreg+status,2+status,0]
 10527                           	line	226
 10528                           	
 10529  14EA                     l9192:	
 10530                           ;lcdV2.h: 226: lcd_data_high = lcd_data >> 4;
 10531  14EA  1283               	bcf	status, 5	;RP0=0, select bank0
 10532  14EB  1303               	bcf	status, 6	;RP1=0, select bank0
 10533  14EC  085C               	movf	(_lcd_data),w
 10534  14ED  00A5               	movwf	(??_lcd_add+0)+0
 10535  14EE  3004               	movlw	04h
 10536  14EF                     u10305:
 10537  14EF  1003               	clrc
 10538  14F0  0CA5               	rrf	(??_lcd_add+0)+0,f
 10539  14F1  3EFF               	addlw	-1
 10540  14F2  1D03               	skipz
 10541  14F3  2CEF               	goto	u10305
 10542  14F4  0825               	movf	0+(??_lcd_add+0)+0,w
 10543  14F5  00A6               	movwf	(??_lcd_add+1)+0
 10544  14F6  0826               	movf	(??_lcd_add+1)+0,w
 10545  14F7  00DD               	movwf	(_lcd_data_high)
 10546                           	line	227
 10547                           ;lcdV2.h: 227: lcd_data_low = lcd_data << 4;
 10548  14F8  085C               	movf	(_lcd_data),w
 10549  14F9  00A5               	movwf	(??_lcd_add+0)+0
 10550  14FA  3003               	movlw	(04h)-1
 10551  14FB                     u10315:
 10552  14FB  1003               	clrc
 10553  14FC  0DA5               	rlf	(??_lcd_add+0)+0,f
 10554  14FD  3EFF               	addlw	-1
 10555  14FE  1D03               	skipz
 10556  14FF  2CFB               	goto	u10315
 10557  1500  1003               	clrc
 10558  1501  0D25               	rlf	(??_lcd_add+0)+0,w
 10559  1502  00A6               	movwf	(??_lcd_add+1)+0
 10560  1503  0826               	movf	(??_lcd_add+1)+0,w
 10561  1504  00DE               	movwf	(_lcd_data_low)
 10562                           	line	228
 10563                           ;lcdV2.h: 228: lcd_data_low = lcd_data_low >> 4;
 10564  1505  085E               	movf	(_lcd_data_low),w
 10565  1506  00A5               	movwf	(??_lcd_add+0)+0
 10566  1507  3004               	movlw	04h
 10567  1508                     u10325:
 10568  1508  1003               	clrc
 10569  1509  0CA5               	rrf	(??_lcd_add+0)+0,f
 10570  150A  3EFF               	addlw	-1
 10571  150B  1D03               	skipz
 10572  150C  2D08               	goto	u10325
 10573  150D  0825               	movf	0+(??_lcd_add+0)+0,w
 10574  150E  00A6               	movwf	(??_lcd_add+1)+0
 10575  150F  0826               	movf	(??_lcd_add+1)+0,w
 10576  1510  00DE               	movwf	(_lcd_data_low)
 10577                           	line	230
 10578                           	
 10579  1511                     l9194:	
 10580                           ;lcdV2.h: 230: bit0 = lcd_data;
 10581  1511  1166               	bcf	(_bit0/8),(_bit0)&7
 10582  1512  1C5C               	btfss	(_lcd_data),0
 10583  1513  2D15               	goto	u10335
 10584  1514  1566               	bsf	(_bit0/8),(_bit0)&7
 10585  1515                     u10335:
 10586                           
 10587                           	line	231
 10588                           ;lcdV2.h: 231: bit1 = lcd_data>>1;
 10589  1515  1283               	bcf	status, 5	;RP0=0, select bank0
 10590  1516  1303               	bcf	status, 6	;RP1=0, select bank0
 10591  1517  085C               	movf	(_lcd_data),w
 10592  1518  00A5               	movwf	(??_lcd_add+0)+0
 10593  1519  3001               	movlw	01h
 10594  151A                     u10345:
 10595  151A  1003               	clrc
 10596  151B  0CA5               	rrf	(??_lcd_add+0)+0,f
 10597  151C  3EFF               	addlw	-1
 10598  151D  1D03               	skipz
 10599  151E  2D1A               	goto	u10345
 10600  151F  11E6               	bcf	(_bit1/8),(_bit1)&7
 10601  1520  1C25               	btfss	0+(??_lcd_add+0)+0,0
 10602  1521  2D23               	goto	u10355
 10603  1522  15E6               	bsf	(_bit1/8),(_bit1)&7
 10604  1523                     u10355:
 10605                           
 10606                           	line	232
 10607                           ;lcdV2.h: 232: bit2 = lcd_data>>2;
 10608  1523  1283               	bcf	status, 5	;RP0=0, select bank0
 10609  1524  1303               	bcf	status, 6	;RP1=0, select bank0
 10610  1525  085C               	movf	(_lcd_data),w
 10611  1526  00A5               	movwf	(??_lcd_add+0)+0
 10612  1527  3002               	movlw	02h
 10613  1528                     u10365:
 10614  1528  1003               	clrc
 10615  1529  0CA5               	rrf	(??_lcd_add+0)+0,f
 10616  152A  3EFF               	addlw	-1
 10617  152B  1D03               	skipz
 10618  152C  2D28               	goto	u10365
 10619  152D  1266               	bcf	(_bit2/8),(_bit2)&7
 10620  152E  1C25               	btfss	0+(??_lcd_add+0)+0,0
 10621  152F  2D31               	goto	u10375
 10622  1530  1666               	bsf	(_bit2/8),(_bit2)&7
 10623  1531                     u10375:
 10624                           
 10625                           	line	233
 10626                           ;lcdV2.h: 233: bit3 = lcd_data>>3;
 10627  1531  1283               	bcf	status, 5	;RP0=0, select bank0
 10628  1532  1303               	bcf	status, 6	;RP1=0, select bank0
 10629  1533  085C               	movf	(_lcd_data),w
 10630  1534  00A5               	movwf	(??_lcd_add+0)+0
 10631  1535  3003               	movlw	03h
 10632  1536                     u10385:
 10633  1536  1003               	clrc
 10634  1537  0CA5               	rrf	(??_lcd_add+0)+0,f
 10635  1538  3EFF               	addlw	-1
 10636  1539  1D03               	skipz
 10637  153A  2D36               	goto	u10385
 10638  153B  12E6               	bcf	(_bit3/8),(_bit3)&7
 10639  153C  1C25               	btfss	0+(??_lcd_add+0)+0,0
 10640  153D  2D3F               	goto	u10395
 10641  153E  16E6               	bsf	(_bit3/8),(_bit3)&7
 10642  153F                     u10395:
 10643                           
 10644                           	line	234
 10645                           ;lcdV2.h: 234: bit4 = lcd_data>>4;
 10646  153F  1283               	bcf	status, 5	;RP0=0, select bank0
 10647  1540  1303               	bcf	status, 6	;RP1=0, select bank0
 10648  1541  085C               	movf	(_lcd_data),w
 10649  1542  00A5               	movwf	(??_lcd_add+0)+0
 10650  1543  3004               	movlw	04h
 10651  1544                     u10405:
 10652  1544  1003               	clrc
 10653  1545  0CA5               	rrf	(??_lcd_add+0)+0,f
 10654  1546  3EFF               	addlw	-1
 10655  1547  1D03               	skipz
 10656  1548  2D44               	goto	u10405
 10657  1549  1366               	bcf	(_bit4/8),(_bit4)&7
 10658  154A  1C25               	btfss	0+(??_lcd_add+0)+0,0
 10659  154B  2D4D               	goto	u10415
 10660  154C  1766               	bsf	(_bit4/8),(_bit4)&7
 10661  154D                     u10415:
 10662                           
 10663                           	line	235
 10664                           ;lcdV2.h: 235: bit5 = lcd_data>>5;
 10665  154D  1283               	bcf	status, 5	;RP0=0, select bank0
 10666  154E  1303               	bcf	status, 6	;RP1=0, select bank0
 10667  154F  085C               	movf	(_lcd_data),w
 10668  1550  00A5               	movwf	(??_lcd_add+0)+0
 10669  1551  3005               	movlw	05h
 10670  1552                     u10425:
 10671  1552  1003               	clrc
 10672  1553  0CA5               	rrf	(??_lcd_add+0)+0,f
 10673  1554  3EFF               	addlw	-1
 10674  1555  1D03               	skipz
 10675  1556  2D52               	goto	u10425
 10676  1557  13E6               	bcf	(_bit5/8),(_bit5)&7
 10677  1558  1C25               	btfss	0+(??_lcd_add+0)+0,0
 10678  1559  2D5B               	goto	u10435
 10679  155A  17E6               	bsf	(_bit5/8),(_bit5)&7
 10680  155B                     u10435:
 10681                           
 10682                           	line	236
 10683                           ;lcdV2.h: 236: bit6 = lcd_data>>6;
 10684  155B  1283               	bcf	status, 5	;RP0=0, select bank0
 10685  155C  1303               	bcf	status, 6	;RP1=0, select bank0
 10686  155D  085C               	movf	(_lcd_data),w
 10687  155E  00A5               	movwf	(??_lcd_add+0)+0
 10688  155F  3006               	movlw	06h
 10689  1560                     u10445:
 10690  1560  1003               	clrc
 10691  1561  0CA5               	rrf	(??_lcd_add+0)+0,f
 10692  1562  3EFF               	addlw	-1
 10693  1563  1D03               	skipz
 10694  1564  2D60               	goto	u10445
 10695  1565  1067               	bcf	(_bit6/8),(_bit6)&7
 10696  1566  1C25               	btfss	0+(??_lcd_add+0)+0,0
 10697  1567  2D69               	goto	u10455
 10698  1568  1467               	bsf	(_bit6/8),(_bit6)&7
 10699  1569                     u10455:
 10700                           
 10701                           	line	237
 10702                           ;lcdV2.h: 237: bit7 = lcd_data>>7;
 10703  1569  1283               	bcf	status, 5	;RP0=0, select bank0
 10704  156A  1303               	bcf	status, 6	;RP1=0, select bank0
 10705  156B  085C               	movf	(_lcd_data),w
 10706  156C  00A5               	movwf	(??_lcd_add+0)+0
 10707  156D  3007               	movlw	07h
 10708  156E                     u10465:
 10709  156E  1003               	clrc
 10710  156F  0CA5               	rrf	(??_lcd_add+0)+0,f
 10711  1570  3EFF               	addlw	-1
 10712  1571  1D03               	skipz
 10713  1572  2D6E               	goto	u10465
 10714  1573  10E7               	bcf	(_bit7/8),(_bit7)&7
 10715  1574  1C25               	btfss	0+(??_lcd_add+0)+0,0
 10716  1575  2D77               	goto	u10475
 10717  1576  14E7               	bsf	(_bit7/8),(_bit7)&7
 10718  1577                     u10475:
 10719                           
 10720                           	line	239
 10721                           	
 10722  1577                     l9196:	
 10723                           ;lcdV2.h: 239: RC3 = 0;
 10724  1577  1283               	bcf	status, 5	;RP0=0, select bank0
 10725  1578  1303               	bcf	status, 6	;RP1=0, select bank0
 10726  1579  1187               	bcf	(59/8),(59)&7
 10727                           	line	240
 10728                           	
 10729  157A                     l9198:	
 10730                           ;lcdV2.h: 240: _delay(1);
 10731                           		opt asmopt_off
 10732  157A  0064               	clrwdt
 10733                           	opt asmopt_on
 10734                           
 10735                           	line	241
 10736                           	
 10737  157B                     l9200:	
 10738                           ;lcdV2.h: 241: RC3 = 1;
 10739  157B  1283               	bcf	status, 5	;RP0=0, select bank0
 10740  157C  1303               	bcf	status, 6	;RP1=0, select bank0
 10741  157D  1587               	bsf	(59/8),(59)&7
 10742                           	line	242
 10743                           	
 10744  157E                     l9202:	
 10745                           ;lcdV2.h: 242: _delay(1);
 10746                           		opt asmopt_off
 10747  157E  0064               	clrwdt
 10748                           	opt asmopt_on
 10749                           
 10750                           	line	244
 10751                           	
 10752  157F                     l9204:	
 10753                           ;lcdV2.h: 244: RC1 = bit4;
 10754  157F  1283               	bcf	status, 5	;RP0=0, select bank0
 10755  1580  1303               	bcf	status, 6	;RP1=0, select bank0
 10756  1581  1B66               	btfsc	(_bit4/8),(_bit4)&7
 10757  1582  2D84               	goto	u10481
 10758  1583  2D88               	goto	u10480
 10759                           	
 10760  1584                     u10481:
 10761  1584  1283               	bcf	status, 5	;RP0=0, select bank0
 10762  1585  1303               	bcf	status, 6	;RP1=0, select bank0
 10763  1586  1487               	bsf	(57/8),(57)&7
 10764  1587  2D8B               	goto	u10494
 10765  1588                     u10480:
 10766  1588  1283               	bcf	status, 5	;RP0=0, select bank0
 10767  1589  1303               	bcf	status, 6	;RP1=0, select bank0
 10768  158A  1087               	bcf	(57/8),(57)&7
 10769  158B                     u10494:
 10770                           	line	245
 10771                           	
 10772  158B                     l9206:	
 10773                           ;lcdV2.h: 245: RD0 = bit5;
 10774  158B  1BE6               	btfsc	(_bit5/8),(_bit5)&7
 10775  158C  2D8E               	goto	u10501
 10776  158D  2D92               	goto	u10500
 10777                           	
 10778  158E                     u10501:
 10779  158E  1283               	bcf	status, 5	;RP0=0, select bank0
 10780  158F  1303               	bcf	status, 6	;RP1=0, select bank0
 10781  1590  1408               	bsf	(64/8),(64)&7
 10782  1591  2D95               	goto	u10514
 10783  1592                     u10500:
 10784  1592  1283               	bcf	status, 5	;RP0=0, select bank0
 10785  1593  1303               	bcf	status, 6	;RP1=0, select bank0
 10786  1594  1008               	bcf	(64/8),(64)&7
 10787  1595                     u10514:
 10788                           	line	246
 10789                           	
 10790  1595                     l9208:	
 10791                           ;lcdV2.h: 246: RC0 = bit6;
 10792  1595  1867               	btfsc	(_bit6/8),(_bit6)&7
 10793  1596  2D98               	goto	u10521
 10794  1597  2D9C               	goto	u10520
 10795                           	
 10796  1598                     u10521:
 10797  1598  1283               	bcf	status, 5	;RP0=0, select bank0
 10798  1599  1303               	bcf	status, 6	;RP1=0, select bank0
 10799  159A  1407               	bsf	(56/8),(56)&7
 10800  159B  2D9F               	goto	u10534
 10801  159C                     u10520:
 10802  159C  1283               	bcf	status, 5	;RP0=0, select bank0
 10803  159D  1303               	bcf	status, 6	;RP1=0, select bank0
 10804  159E  1007               	bcf	(56/8),(56)&7
 10805  159F                     u10534:
 10806                           	line	247
 10807                           	
 10808  159F                     l9210:	
 10809                           ;lcdV2.h: 247: RD1 = bit7;
 10810  159F  18E7               	btfsc	(_bit7/8),(_bit7)&7
 10811  15A0  2DA2               	goto	u10541
 10812  15A1  2DA6               	goto	u10540
 10813                           	
 10814  15A2                     u10541:
 10815  15A2  1283               	bcf	status, 5	;RP0=0, select bank0
 10816  15A3  1303               	bcf	status, 6	;RP1=0, select bank0
 10817  15A4  1488               	bsf	(65/8),(65)&7
 10818  15A5  2DA9               	goto	u10554
 10819  15A6                     u10540:
 10820  15A6  1283               	bcf	status, 5	;RP0=0, select bank0
 10821  15A7  1303               	bcf	status, 6	;RP1=0, select bank0
 10822  15A8  1088               	bcf	(65/8),(65)&7
 10823  15A9                     u10554:
 10824                           	line	249
 10825                           	
 10826  15A9                     l9212:	
 10827                           ;lcdV2.h: 249: _delay(1);
 10828                           		opt asmopt_off
 10829  15A9  0064               	clrwdt
 10830                           	opt asmopt_on
 10831                           
 10832                           	line	250
 10833                           	
 10834  15AA                     l9214:	
 10835                           ;lcdV2.h: 250: RC3 = 0;
 10836  15AA  1283               	bcf	status, 5	;RP0=0, select bank0
 10837  15AB  1303               	bcf	status, 6	;RP1=0, select bank0
 10838  15AC  1187               	bcf	(59/8),(59)&7
 10839                           	line	251
 10840                           	
 10841  15AD                     l9216:	
 10842                           ;lcdV2.h: 251: _delay(1);
 10843                           		opt asmopt_off
 10844  15AD  0064               	clrwdt
 10845                           	opt asmopt_on
 10846                           
 10847                           	line	255
 10848                           	
 10849  15AE                     l9218:	
 10850                           ;lcdV2.h: 255: RC3 = 0;
 10851  15AE  1283               	bcf	status, 5	;RP0=0, select bank0
 10852  15AF  1303               	bcf	status, 6	;RP1=0, select bank0
 10853  15B0  1187               	bcf	(59/8),(59)&7
 10854                           	line	256
 10855                           	
 10856  15B1                     l9220:	
 10857                           ;lcdV2.h: 256: _delay(1);
 10858                           		opt asmopt_off
 10859  15B1  0064               	clrwdt
 10860                           	opt asmopt_on
 10861                           
 10862                           	line	257
 10863                           	
 10864  15B2                     l9222:	
 10865                           ;lcdV2.h: 257: RC3 = 1;
 10866  15B2  1283               	bcf	status, 5	;RP0=0, select bank0
 10867  15B3  1303               	bcf	status, 6	;RP1=0, select bank0
 10868  15B4  1587               	bsf	(59/8),(59)&7
 10869                           	line	258
 10870                           	
 10871  15B5                     l9224:	
 10872                           ;lcdV2.h: 258: _delay(1);
 10873                           		opt asmopt_off
 10874  15B5  0064               	clrwdt
 10875                           	opt asmopt_on
 10876                           
 10877                           	line	260
 10878                           	
 10879  15B6                     l9226:	
 10880                           ;lcdV2.h: 260: RC1 = bit0;
 10881  15B6  1283               	bcf	status, 5	;RP0=0, select bank0
 10882  15B7  1303               	bcf	status, 6	;RP1=0, select bank0
 10883  15B8  1966               	btfsc	(_bit0/8),(_bit0)&7
 10884  15B9  2DBB               	goto	u10561
 10885  15BA  2DBF               	goto	u10560
 10886                           	
 10887  15BB                     u10561:
 10888  15BB  1283               	bcf	status, 5	;RP0=0, select bank0
 10889  15BC  1303               	bcf	status, 6	;RP1=0, select bank0
 10890  15BD  1487               	bsf	(57/8),(57)&7
 10891  15BE  2DC2               	goto	u10574
 10892  15BF                     u10560:
 10893  15BF  1283               	bcf	status, 5	;RP0=0, select bank0
 10894  15C0  1303               	bcf	status, 6	;RP1=0, select bank0
 10895  15C1  1087               	bcf	(57/8),(57)&7
 10896  15C2                     u10574:
 10897                           	line	261
 10898                           	
 10899  15C2                     l9228:	
 10900                           ;lcdV2.h: 261: RD0 = bit1;
 10901  15C2  19E6               	btfsc	(_bit1/8),(_bit1)&7
 10902  15C3  2DC5               	goto	u10581
 10903  15C4  2DC9               	goto	u10580
 10904                           	
 10905  15C5                     u10581:
 10906  15C5  1283               	bcf	status, 5	;RP0=0, select bank0
 10907  15C6  1303               	bcf	status, 6	;RP1=0, select bank0
 10908  15C7  1408               	bsf	(64/8),(64)&7
 10909  15C8  2DCC               	goto	u10594
 10910  15C9                     u10580:
 10911  15C9  1283               	bcf	status, 5	;RP0=0, select bank0
 10912  15CA  1303               	bcf	status, 6	;RP1=0, select bank0
 10913  15CB  1008               	bcf	(64/8),(64)&7
 10914  15CC                     u10594:
 10915                           	line	262
 10916                           	
 10917  15CC                     l9230:	
 10918                           ;lcdV2.h: 262: RC0 = bit2;
 10919  15CC  1A66               	btfsc	(_bit2/8),(_bit2)&7
 10920  15CD  2DCF               	goto	u10601
 10921  15CE  2DD3               	goto	u10600
 10922                           	
 10923  15CF                     u10601:
 10924  15CF  1283               	bcf	status, 5	;RP0=0, select bank0
 10925  15D0  1303               	bcf	status, 6	;RP1=0, select bank0
 10926  15D1  1407               	bsf	(56/8),(56)&7
 10927  15D2  2DD6               	goto	u10614
 10928  15D3                     u10600:
 10929  15D3  1283               	bcf	status, 5	;RP0=0, select bank0
 10930  15D4  1303               	bcf	status, 6	;RP1=0, select bank0
 10931  15D5  1007               	bcf	(56/8),(56)&7
 10932  15D6                     u10614:
 10933                           	line	263
 10934                           	
 10935  15D6                     l9232:	
 10936                           ;lcdV2.h: 263: RD1 = bit3;
 10937  15D6  1AE6               	btfsc	(_bit3/8),(_bit3)&7
 10938  15D7  2DD9               	goto	u10621
 10939  15D8  2DDD               	goto	u10620
 10940                           	
 10941  15D9                     u10621:
 10942  15D9  1283               	bcf	status, 5	;RP0=0, select bank0
 10943  15DA  1303               	bcf	status, 6	;RP1=0, select bank0
 10944  15DB  1488               	bsf	(65/8),(65)&7
 10945  15DC  2DE0               	goto	u10634
 10946  15DD                     u10620:
 10947  15DD  1283               	bcf	status, 5	;RP0=0, select bank0
 10948  15DE  1303               	bcf	status, 6	;RP1=0, select bank0
 10949  15DF  1088               	bcf	(65/8),(65)&7
 10950  15E0                     u10634:
 10951                           	line	265
 10952                           	
 10953  15E0                     l9234:	
 10954                           ;lcdV2.h: 265: _delay(1);
 10955                           		opt asmopt_off
 10956  15E0  0064               	clrwdt
 10957                           	opt asmopt_on
 10958                           
 10959                           	line	266
 10960                           	
 10961  15E1                     l9236:	
 10962                           ;lcdV2.h: 266: RC3 = 0;
 10963  15E1  1283               	bcf	status, 5	;RP0=0, select bank0
 10964  15E2  1303               	bcf	status, 6	;RP1=0, select bank0
 10965  15E3  1187               	bcf	(59/8),(59)&7
 10966                           	line	267
 10967                           	
 10968  15E4                     l9238:	
 10969                           ;lcdV2.h: 267: _delay(1);
 10970                           		opt asmopt_off
 10971  15E4  0064               	clrwdt
 10972                           	opt asmopt_on
 10973                           
 10974                           	line	268
 10975                           	
 10976  15E5                     l841:	
 10977  15E5  0008               	return
 10978                           	opt stack 0
 10979                           GLOBAL	__end_of_lcd_add
 10980  15E6                     	__end_of_lcd_add:
 10981 ;; =============== function _lcd_add ends ============
 10982                           
 10983                           	signat	_lcd_add,88
 10984                           	global	___awmod
 10985                           psect	text1506,local,class=CODE,delta=2
 10986                           global __ptext1506
 10987  10B4                     __ptext1506:
 10988                           
 10989 ;; *************** function ___awmod *****************
 10990 ;; Defined at:
 10991 ;;		line 5 in file "C:\Program Files (x86)\HI-TECH Software\PICC\9.83\sources\awmod.c"
 10992 ;; Parameters:    Size  Location     Type
 10993 ;;  divisor         2    5[BANK0 ] int 
 10994 ;;  dividend        2    7[BANK0 ] int 
 10995 ;; Auto vars:     Size  Location     Type
 10996 ;;  sign            1   11[BANK0 ] unsigned char 
 10997 ;;  counter         1   10[BANK0 ] unsigned char 
 10998 ;; Return value:  Size  Location     Type
 10999 ;;                  2    5[BANK0 ] int 
 11000 ;; Registers used:
 11001 ;;		wreg, status,2, status,0
 11002 ;; Tracked objects:
 11003 ;;		On entry : 0/0
 11004 ;;		On exit  : 0/0
 11005 ;;		Unchanged: 0/0
 11006 ;; Data sizes:     COMMON   BANK0   BANK1   BANK3   BANK2
 11007 ;;      Params:         0       4       0       0       0
 11008 ;;      Locals:         0       2       0       0       0
 11009 ;;      Temps:          0       1       0       0       0
 11010 ;;      Totals:         0       7       0       0       0
 11011 ;;Total ram usage:        7 bytes
 11012 ;; Hardware stack levels used:    1
 11013 ;; Hardware stack levels required when called:    4
 11014 ;; This function calls:
 11015 ;;		Nothing
 11016 ;; This function is called by:
 11017 ;;		_Serial_Println_Int
 11018 ;;		_Serial_Print_Int
 11019 ;; This function uses a non-reentrant model
 11020 ;;
 11021                           psect	text1506
 11022                           	file	"C:\Program Files (x86)\HI-TECH Software\PICC\9.83\sources\awmod.c"
 11023                           	line	5
 11024                           	global	__size_of___awmod
 11025  0068                     	__size_of___awmod	equ	__end_of___awmod-___awmod
 11026                           	
 11027  10B4                     ___awmod:	
 11028                           	opt	stack 1
 11029                           ; Regs used in ___awmod: [wreg+status,2+status,0]
 11030                           	line	8
 11031                           	
 11032  10B4                     l9158:	
 11033  10B4  1283               	bcf	status, 5	;RP0=0, select bank0
 11034  10B5  1303               	bcf	status, 6	;RP1=0, select bank0
 11035  10B6  01AB               	clrf	(___awmod@sign)
 11036                           	line	9
 11037  10B7  1FA8               	btfss	(___awmod@dividend+1),7
 11038  10B8  28BA               	goto	u10211
 11039  10B9  28BB               	goto	u10210
 11040  10BA                     u10211:
 11041  10BA  28C4               	goto	l9162
 11042  10BB                     u10210:
 11043                           	line	10
 11044                           	
 11045  10BB                     l9160:	
 11046  10BB  09A7               	comf	(___awmod@dividend),f
 11047  10BC  09A8               	comf	(___awmod@dividend+1),f
 11048  10BD  0AA7               	incf	(___awmod@dividend),f
 11049  10BE  1903               	skipnz
 11050  10BF  0AA8               	incf	(___awmod@dividend+1),f
 11051                           	line	11
 11052  10C0  01AB               	clrf	(___awmod@sign)
 11053  10C1  1403               	bsf	status,0
 11054  10C2  0DAB               	rlf	(___awmod@sign),f
 11055  10C3  28C4               	goto	l9162
 11056                           	line	12
 11057                           	
 11058  10C4                     l3478:	
 11059                           	line	13
 11060                           	
 11061  10C4                     l9162:	
 11062  10C4  1FA6               	btfss	(___awmod@divisor+1),7
 11063  10C5  28C7               	goto	u10221
 11064  10C6  28C8               	goto	u10220
 11065  10C7                     u10221:
 11066  10C7  28CE               	goto	l9166
 11067  10C8                     u10220:
 11068                           	line	14
 11069                           	
 11070  10C8                     l9164:	
 11071  10C8  09A5               	comf	(___awmod@divisor),f
 11072  10C9  09A6               	comf	(___awmod@divisor+1),f
 11073  10CA  0AA5               	incf	(___awmod@divisor),f
 11074  10CB  1903               	skipnz
 11075  10CC  0AA6               	incf	(___awmod@divisor+1),f
 11076  10CD  28CE               	goto	l9166
 11077                           	
 11078  10CE                     l3479:	
 11079                           	line	15
 11080                           	
 11081  10CE                     l9166:	
 11082  10CE  0826               	movf	(___awmod@divisor+1),w
 11083  10CF  0425               	iorwf	(___awmod@divisor),w
 11084  10D0  1903               	skipnz
 11085  10D1  28D3               	goto	u10231
 11086  10D2  28D4               	goto	u10230
 11087  10D3                     u10231:
 11088  10D3  290A               	goto	l9184
 11089  10D4                     u10230:
 11090                           	line	16
 11091                           	
 11092  10D4                     l9168:	
 11093  10D4  01AA               	clrf	(___awmod@counter)
 11094  10D5  1403               	bsf	status,0
 11095  10D6  0DAA               	rlf	(___awmod@counter),f
 11096                           	line	17
 11097  10D7  28E4               	goto	l9174
 11098                           	
 11099  10D8                     l3482:	
 11100                           	line	18
 11101                           	
 11102  10D8                     l9170:	
 11103  10D8  3001               	movlw	01h
 11104                           	
 11105  10D9                     u10245:
 11106  10D9  1003               	clrc
 11107  10DA  0DA5               	rlf	(___awmod@divisor),f
 11108  10DB  0DA6               	rlf	(___awmod@divisor+1),f
 11109  10DC  3EFF               	addlw	-1
 11110  10DD  1D03               	skipz
 11111  10DE  28D9               	goto	u10245
 11112                           	line	19
 11113                           	
 11114  10DF                     l9172:	
 11115  10DF  3001               	movlw	(01h)
 11116  10E0  00A9               	movwf	(??___awmod+0)+0
 11117  10E1  0829               	movf	(??___awmod+0)+0,w
 11118  10E2  07AA               	addwf	(___awmod@counter),f
 11119  10E3  28E4               	goto	l9174
 11120                           	line	20
 11121                           	
 11122  10E4                     l3481:	
 11123                           	line	17
 11124                           	
 11125  10E4                     l9174:	
 11126  10E4  1FA6               	btfss	(___awmod@divisor+1),(15)&7
 11127  10E5  28E7               	goto	u10251
 11128  10E6  28E8               	goto	u10250
 11129  10E7                     u10251:
 11130  10E7  28D8               	goto	l9170
 11131  10E8                     u10250:
 11132  10E8  28EA               	goto	l9176
 11133                           	
 11134  10E9                     l3483:	
 11135  10E9  28EA               	goto	l9176
 11136                           	line	21
 11137                           	
 11138  10EA                     l3484:	
 11139                           	line	22
 11140                           	
 11141  10EA                     l9176:	
 11142  10EA  0826               	movf	(___awmod@divisor+1),w
 11143  10EB  0228               	subwf	(___awmod@dividend+1),w
 11144  10EC  1D03               	skipz
 11145  10ED  28F0               	goto	u10265
 11146  10EE  0825               	movf	(___awmod@divisor),w
 11147  10EF  0227               	subwf	(___awmod@dividend),w
 11148  10F0                     u10265:
 11149  10F0  1C03               	skipc
 11150  10F1  28F3               	goto	u10261
 11151  10F2  28F4               	goto	u10260
 11152  10F3                     u10261:
 11153  10F3  28FB               	goto	l9180
 11154  10F4                     u10260:
 11155                           	line	23
 11156                           	
 11157  10F4                     l9178:	
 11158  10F4  0825               	movf	(___awmod@divisor),w
 11159  10F5  02A7               	subwf	(___awmod@dividend),f
 11160  10F6  0826               	movf	(___awmod@divisor+1),w
 11161  10F7  1C03               	skipc
 11162  10F8  03A8               	decf	(___awmod@dividend+1),f
 11163  10F9  02A8               	subwf	(___awmod@dividend+1),f
 11164  10FA  28FB               	goto	l9180
 11165                           	
 11166  10FB                     l3485:	
 11167                           	line	24
 11168                           	
 11169  10FB                     l9180:	
 11170  10FB  3001               	movlw	01h
 11171                           	
 11172  10FC                     u10275:
 11173  10FC  1003               	clrc
 11174  10FD  0CA6               	rrf	(___awmod@divisor+1),f
 11175  10FE  0CA5               	rrf	(___awmod@divisor),f
 11176  10FF  3EFF               	addlw	-1
 11177  1100  1D03               	skipz
 11178  1101  28FC               	goto	u10275
 11179                           	line	25
 11180                           	
 11181  1102                     l9182:	
 11182  1102  3001               	movlw	low(01h)
 11183  1103  02AA               	subwf	(___awmod@counter),f
 11184  1104  1D03               	btfss	status,2
 11185  1105  2907               	goto	u10281
 11186  1106  2908               	goto	u10280
 11187  1107                     u10281:
 11188  1107  28EA               	goto	l9176
 11189  1108                     u10280:
 11190  1108  290A               	goto	l9184
 11191                           	
 11192  1109                     l3486:	
 11193  1109  290A               	goto	l9184
 11194                           	line	26
 11195                           	
 11196  110A                     l3480:	
 11197                           	line	27
 11198                           	
 11199  110A                     l9184:	
 11200  110A  082B               	movf	(___awmod@sign),w
 11201  110B  1D03               	skipz
 11202  110C  290E               	goto	u10290
 11203  110D  2914               	goto	l9188
 11204  110E                     u10290:
 11205                           	line	28
 11206                           	
 11207  110E                     l9186:	
 11208  110E  09A7               	comf	(___awmod@dividend),f
 11209  110F  09A8               	comf	(___awmod@dividend+1),f
 11210  1110  0AA7               	incf	(___awmod@dividend),f
 11211  1111  1903               	skipnz
 11212  1112  0AA8               	incf	(___awmod@dividend+1),f
 11213  1113  2914               	goto	l9188
 11214                           	
 11215  1114                     l3487:	
 11216                           	line	29
 11217                           	
 11218  1114                     l9188:	
 11219  1114  0828               	movf	(___awmod@dividend+1),w
 11220  1115  01A6               	clrf	(?___awmod+1)
 11221  1116  07A6               	addwf	(?___awmod+1)
 11222  1117  0827               	movf	(___awmod@dividend),w
 11223  1118  01A5               	clrf	(?___awmod)
 11224  1119  07A5               	addwf	(?___awmod)
 11225                           
 11226  111A  291B               	goto	l3488
 11227                           	
 11228  111B                     l9190:	
 11229                           	line	30
 11230                           	
 11231  111B                     l3488:	
 11232  111B  0008               	return
 11233                           	opt stack 0
 11234                           GLOBAL	__end_of___awmod
 11235  111C                     	__end_of___awmod:
 11236 ;; =============== function ___awmod ends ============
 11237                           
 11238                           	signat	___awmod,8314
 11239                           	global	___awdiv
 11240                           psect	text1507,local,class=CODE,delta=2
 11241                           global __ptext1507
 11242  111C                     __ptext1507:
 11243                           
 11244 ;; *************** function ___awdiv *****************
 11245 ;; Defined at:
 11246 ;;		line 5 in file "C:\Program Files (x86)\HI-TECH Software\PICC\9.83\sources\awdiv.c"
 11247 ;; Parameters:    Size  Location     Type
 11248 ;;  divisor         2    5[BANK0 ] int 
 11249 ;;  dividend        2    7[BANK0 ] int 
 11250 ;; Auto vars:     Size  Location     Type
 11251 ;;  quotient        2   12[BANK0 ] int 
 11252 ;;  sign            1   11[BANK0 ] unsigned char 
 11253 ;;  counter         1   10[BANK0 ] unsigned char 
 11254 ;; Return value:  Size  Location     Type
 11255 ;;                  2    5[BANK0 ] int 
 11256 ;; Registers used:
 11257 ;;		wreg, status,2, status,0
 11258 ;; Tracked objects:
 11259 ;;		On entry : 0/0
 11260 ;;		On exit  : 0/0
 11261 ;;		Unchanged: 0/0
 11262 ;; Data sizes:     COMMON   BANK0   BANK1   BANK3   BANK2
 11263 ;;      Params:         0       4       0       0       0
 11264 ;;      Locals:         0       4       0       0       0
 11265 ;;      Temps:          0       1       0       0       0
 11266 ;;      Totals:         0       9       0       0       0
 11267 ;;Total ram usage:        9 bytes
 11268 ;; Hardware stack levels used:    1
 11269 ;; Hardware stack levels required when called:    4
 11270 ;; This function calls:
 11271 ;;		Nothing
 11272 ;; This function is called by:
 11273 ;;		_Serial_Println_Int
 11274 ;;		_Serial_Print_Int
 11275 ;; This function uses a non-reentrant model
 11276 ;;
 11277                           psect	text1507
 11278                           	file	"C:\Program Files (x86)\HI-TECH Software\PICC\9.83\sources\awdiv.c"
 11279                           	line	5
 11280                           	global	__size_of___awdiv
 11281  0076                     	__size_of___awdiv	equ	__end_of___awdiv-___awdiv
 11282                           	
 11283  111C                     ___awdiv:	
 11284                           	opt	stack 1
 11285                           ; Regs used in ___awdiv: [wreg+status,2+status,0]
 11286                           	line	9
 11287                           	
 11288  111C                     l9118:	
 11289  111C  1283               	bcf	status, 5	;RP0=0, select bank0
 11290  111D  1303               	bcf	status, 6	;RP1=0, select bank0
 11291  111E  01AB               	clrf	(___awdiv@sign)
 11292                           	line	10
 11293  111F  1FA6               	btfss	(___awdiv@divisor+1),7
 11294  1120  2922               	goto	u10111
 11295  1121  2923               	goto	u10110
 11296  1122                     u10111:
 11297  1122  292C               	goto	l9122
 11298  1123                     u10110:
 11299                           	line	11
 11300                           	
 11301  1123                     l9120:	
 11302  1123  09A5               	comf	(___awdiv@divisor),f
 11303  1124  09A6               	comf	(___awdiv@divisor+1),f
 11304  1125  0AA5               	incf	(___awdiv@divisor),f
 11305  1126  1903               	skipnz
 11306  1127  0AA6               	incf	(___awdiv@divisor+1),f
 11307                           	line	12
 11308  1128  01AB               	clrf	(___awdiv@sign)
 11309  1129  1403               	bsf	status,0
 11310  112A  0DAB               	rlf	(___awdiv@sign),f
 11311  112B  292C               	goto	l9122
 11312                           	line	13
 11313                           	
 11314  112C                     l3410:	
 11315                           	line	14
 11316                           	
 11317  112C                     l9122:	
 11318  112C  1FA8               	btfss	(___awdiv@dividend+1),7
 11319  112D  292F               	goto	u10121
 11320  112E  2930               	goto	u10120
 11321  112F                     u10121:
 11322  112F  293A               	goto	l9128
 11323  1130                     u10120:
 11324                           	line	15
 11325                           	
 11326  1130                     l9124:	
 11327  1130  09A7               	comf	(___awdiv@dividend),f
 11328  1131  09A8               	comf	(___awdiv@dividend+1),f
 11329  1132  0AA7               	incf	(___awdiv@dividend),f
 11330  1133  1903               	skipnz
 11331  1134  0AA8               	incf	(___awdiv@dividend+1),f
 11332                           	line	16
 11333                           	
 11334  1135                     l9126:	
 11335  1135  3001               	movlw	(01h)
 11336  1136  00A9               	movwf	(??___awdiv+0)+0
 11337  1137  0829               	movf	(??___awdiv+0)+0,w
 11338  1138  06AB               	xorwf	(___awdiv@sign),f
 11339  1139  293A               	goto	l9128
 11340                           	line	17
 11341                           	
 11342  113A                     l3411:	
 11343                           	line	18
 11344                           	
 11345  113A                     l9128:	
 11346  113A  01AC               	clrf	(___awdiv@quotient)
 11347  113B  01AD               	clrf	(___awdiv@quotient+1)
 11348                           	line	19
 11349                           	
 11350  113C                     l9130:	
 11351  113C  0826               	movf	(___awdiv@divisor+1),w
 11352  113D  0425               	iorwf	(___awdiv@divisor),w
 11353  113E  1903               	skipnz
 11354  113F  2941               	goto	u10131
 11355  1140  2942               	goto	u10130
 11356  1141                     u10131:
 11357  1141  2980               	goto	l9150
 11358  1142                     u10130:
 11359                           	line	20
 11360                           	
 11361  1142                     l9132:	
 11362  1142  01AA               	clrf	(___awdiv@counter)
 11363  1143  1403               	bsf	status,0
 11364  1144  0DAA               	rlf	(___awdiv@counter),f
 11365                           	line	21
 11366  1145  2952               	goto	l9138
 11367                           	
 11368  1146                     l3414:	
 11369                           	line	22
 11370                           	
 11371  1146                     l9134:	
 11372  1146  3001               	movlw	01h
 11373                           	
 11374  1147                     u10145:
 11375  1147  1003               	clrc
 11376  1148  0DA5               	rlf	(___awdiv@divisor),f
 11377  1149  0DA6               	rlf	(___awdiv@divisor+1),f
 11378  114A  3EFF               	addlw	-1
 11379  114B  1D03               	skipz
 11380  114C  2947               	goto	u10145
 11381                           	line	23
 11382                           	
 11383  114D                     l9136:	
 11384  114D  3001               	movlw	(01h)
 11385  114E  00A9               	movwf	(??___awdiv+0)+0
 11386  114F  0829               	movf	(??___awdiv+0)+0,w
 11387  1150  07AA               	addwf	(___awdiv@counter),f
 11388  1151  2952               	goto	l9138
 11389                           	line	24
 11390                           	
 11391  1152                     l3413:	
 11392                           	line	21
 11393                           	
 11394  1152                     l9138:	
 11395  1152  1FA6               	btfss	(___awdiv@divisor+1),(15)&7
 11396  1153  2955               	goto	u10151
 11397  1154  2956               	goto	u10150
 11398  1155                     u10151:
 11399  1155  2946               	goto	l9134
 11400  1156                     u10150:
 11401  1156  2958               	goto	l9140
 11402                           	
 11403  1157                     l3415:	
 11404  1157  2958               	goto	l9140
 11405                           	line	25
 11406                           	
 11407  1158                     l3416:	
 11408                           	line	26
 11409                           	
 11410  1158                     l9140:	
 11411  1158  3001               	movlw	01h
 11412                           	
 11413  1159                     u10165:
 11414  1159  1003               	clrc
 11415  115A  0DAC               	rlf	(___awdiv@quotient),f
 11416  115B  0DAD               	rlf	(___awdiv@quotient+1),f
 11417  115C  3EFF               	addlw	-1
 11418  115D  1D03               	skipz
 11419  115E  2959               	goto	u10165
 11420                           	line	27
 11421  115F  0826               	movf	(___awdiv@divisor+1),w
 11422  1160  0228               	subwf	(___awdiv@dividend+1),w
 11423  1161  1D03               	skipz
 11424  1162  2965               	goto	u10175
 11425  1163  0825               	movf	(___awdiv@divisor),w
 11426  1164  0227               	subwf	(___awdiv@dividend),w
 11427  1165                     u10175:
 11428  1165  1C03               	skipc
 11429  1166  2968               	goto	u10171
 11430  1167  2969               	goto	u10170
 11431  1168                     u10171:
 11432  1168  2971               	goto	l9146
 11433  1169                     u10170:
 11434                           	line	28
 11435                           	
 11436  1169                     l9142:	
 11437  1169  0825               	movf	(___awdiv@divisor),w
 11438  116A  02A7               	subwf	(___awdiv@dividend),f
 11439  116B  0826               	movf	(___awdiv@divisor+1),w
 11440  116C  1C03               	skipc
 11441  116D  03A8               	decf	(___awdiv@dividend+1),f
 11442  116E  02A8               	subwf	(___awdiv@dividend+1),f
 11443                           	line	29
 11444                           	
 11445  116F                     l9144:	
 11446  116F  142C               	bsf	(___awdiv@quotient)+(0/8),(0)&7
 11447  1170  2971               	goto	l9146
 11448                           	line	30
 11449                           	
 11450  1171                     l3417:	
 11451                           	line	31
 11452                           	
 11453  1171                     l9146:	
 11454  1171  3001               	movlw	01h
 11455                           	
 11456  1172                     u10185:
 11457  1172  1003               	clrc
 11458  1173  0CA6               	rrf	(___awdiv@divisor+1),f
 11459  1174  0CA5               	rrf	(___awdiv@divisor),f
 11460  1175  3EFF               	addlw	-1
 11461  1176  1D03               	skipz
 11462  1177  2972               	goto	u10185
 11463                           	line	32
 11464                           	
 11465  1178                     l9148:	
 11466  1178  3001               	movlw	low(01h)
 11467  1179  02AA               	subwf	(___awdiv@counter),f
 11468  117A  1D03               	btfss	status,2
 11469  117B  297D               	goto	u10191
 11470  117C  297E               	goto	u10190
 11471  117D                     u10191:
 11472  117D  2958               	goto	l9140
 11473  117E                     u10190:
 11474  117E  2980               	goto	l9150
 11475                           	
 11476  117F                     l3418:	
 11477  117F  2980               	goto	l9150
 11478                           	line	33
 11479                           	
 11480  1180                     l3412:	
 11481                           	line	34
 11482                           	
 11483  1180                     l9150:	
 11484  1180  082B               	movf	(___awdiv@sign),w
 11485  1181  1D03               	skipz
 11486  1182  2984               	goto	u10200
 11487  1183  298A               	goto	l9154
 11488  1184                     u10200:
 11489                           	line	35
 11490                           	
 11491  1184                     l9152:	
 11492  1184  09AC               	comf	(___awdiv@quotient),f
 11493  1185  09AD               	comf	(___awdiv@quotient+1),f
 11494  1186  0AAC               	incf	(___awdiv@quotient),f
 11495  1187  1903               	skipnz
 11496  1188  0AAD               	incf	(___awdiv@quotient+1),f
 11497  1189  298A               	goto	l9154
 11498                           	
 11499  118A                     l3419:	
 11500                           	line	36
 11501                           	
 11502  118A                     l9154:	
 11503  118A  082D               	movf	(___awdiv@quotient+1),w
 11504  118B  01A6               	clrf	(?___awdiv+1)
 11505  118C  07A6               	addwf	(?___awdiv+1)
 11506  118D  082C               	movf	(___awdiv@quotient),w
 11507  118E  01A5               	clrf	(?___awdiv)
 11508  118F  07A5               	addwf	(?___awdiv)
 11509                           
 11510  1190  2991               	goto	l3420
 11511                           	
 11512  1191                     l9156:	
 11513                           	line	37
 11514                           	
 11515  1191                     l3420:	
 11516  1191  0008               	return
 11517                           	opt stack 0
 11518                           GLOBAL	__end_of___awdiv
 11519  1192                     	__end_of___awdiv:
 11520 ;; =============== function ___awdiv ends ============
 11521                           
 11522                           	signat	___awdiv,8314
 11523                           	global	___lwmod
 11524                           psect	text1508,local,class=CODE,delta=2
 11525                           global __ptext1508
 11526  1E14                     __ptext1508:
 11527                           
 11528 ;; *************** function ___lwmod *****************
 11529 ;; Defined at:
 11530 ;;		line 5 in file "C:\Program Files (x86)\HI-TECH Software\PICC\9.83\sources\lwmod.c"
 11531 ;; Parameters:    Size  Location     Type
 11532 ;;  divisor         2   13[BANK0 ] unsigned int 
 11533 ;;  dividend        2   15[BANK0 ] unsigned int 
 11534 ;; Auto vars:     Size  Location     Type
 11535 ;;  counter         1   18[BANK0 ] unsigned char 
 11536 ;; Return value:  Size  Location     Type
 11537 ;;                  2   13[BANK0 ] unsigned int 
 11538 ;; Registers used:
 11539 ;;		wreg, status,2, status,0
 11540 ;; Tracked objects:
 11541 ;;		On entry : 0/0
 11542 ;;		On exit  : 0/0
 11543 ;;		Unchanged: 0/0
 11544 ;; Data sizes:     COMMON   BANK0   BANK1   BANK3   BANK2
 11545 ;;      Params:         0       4       0       0       0
 11546 ;;      Locals:         0       1       0       0       0
 11547 ;;      Temps:          0       1       0       0       0
 11548 ;;      Totals:         0       6       0       0       0
 11549 ;;Total ram usage:        6 bytes
 11550 ;; Hardware stack levels used:    1
 11551 ;; Hardware stack levels required when called:    4
 11552 ;; This function calls:
 11553 ;;		Nothing
 11554 ;; This function is called by:
 11555 ;;		_LCDTimeUpdate
 11556 ;;		_printf
 11557 ;; This function uses a non-reentrant model
 11558 ;;
 11559                           psect	text1508
 11560                           	file	"C:\Program Files (x86)\HI-TECH Software\PICC\9.83\sources\lwmod.c"
 11561                           	line	5
 11562                           	global	__size_of___lwmod
 11563  0046                     	__size_of___lwmod	equ	__end_of___lwmod-___lwmod
 11564                           	
 11565  1E14                     ___lwmod:	
 11566                           	opt	stack 2
 11567                           ; Regs used in ___lwmod: [wreg+status,2+status,0]
 11568                           	line	8
 11569                           	
 11570  1E14                     l9096:	
 11571  1E14  1283               	bcf	status, 5	;RP0=0, select bank0
 11572  1E15  1303               	bcf	status, 6	;RP1=0, select bank0
 11573  1E16  082E               	movf	(___lwmod@divisor+1),w
 11574  1E17  042D               	iorwf	(___lwmod@divisor),w
 11575  1E18  1903               	skipnz
 11576  1E19  2E1B               	goto	u10051
 11577  1E1A  2E1C               	goto	u10050
 11578  1E1B                     u10051:
 11579  1E1B  2E52               	goto	l9114
 11580  1E1C                     u10050:
 11581                           	line	9
 11582                           	
 11583  1E1C                     l9098:	
 11584  1E1C  01B2               	clrf	(___lwmod@counter)
 11585  1E1D  1403               	bsf	status,0
 11586  1E1E  0DB2               	rlf	(___lwmod@counter),f
 11587                           	line	10
 11588  1E1F  2E2C               	goto	l9104
 11589                           	
 11590  1E20                     l3288:	
 11591                           	line	11
 11592                           	
 11593  1E20                     l9100:	
 11594  1E20  3001               	movlw	01h
 11595                           	
 11596  1E21                     u10065:
 11597  1E21  1003               	clrc
 11598  1E22  0DAD               	rlf	(___lwmod@divisor),f
 11599  1E23  0DAE               	rlf	(___lwmod@divisor+1),f
 11600  1E24  3EFF               	addlw	-1
 11601  1E25  1D03               	skipz
 11602  1E26  2E21               	goto	u10065
 11603                           	line	12
 11604                           	
 11605  1E27                     l9102:	
 11606  1E27  3001               	movlw	(01h)
 11607  1E28  00B1               	movwf	(??___lwmod+0)+0
 11608  1E29  0831               	movf	(??___lwmod+0)+0,w
 11609  1E2A  07B2               	addwf	(___lwmod@counter),f
 11610  1E2B  2E2C               	goto	l9104
 11611                           	line	13
 11612                           	
 11613  1E2C                     l3287:	
 11614                           	line	10
 11615                           	
 11616  1E2C                     l9104:	
 11617  1E2C  1FAE               	btfss	(___lwmod@divisor+1),(15)&7
 11618  1E2D  2E2F               	goto	u10071
 11619  1E2E  2E30               	goto	u10070
 11620  1E2F                     u10071:
 11621  1E2F  2E20               	goto	l9100
 11622  1E30                     u10070:
 11623  1E30  2E32               	goto	l9106
 11624                           	
 11625  1E31                     l3289:	
 11626  1E31  2E32               	goto	l9106
 11627                           	line	14
 11628                           	
 11629  1E32                     l3290:	
 11630                           	line	15
 11631                           	
 11632  1E32                     l9106:	
 11633  1E32  082E               	movf	(___lwmod@divisor+1),w
 11634  1E33  0230               	subwf	(___lwmod@dividend+1),w
 11635  1E34  1D03               	skipz
 11636  1E35  2E38               	goto	u10085
 11637  1E36  082D               	movf	(___lwmod@divisor),w
 11638  1E37  022F               	subwf	(___lwmod@dividend),w
 11639  1E38                     u10085:
 11640  1E38  1C03               	skipc
 11641  1E39  2E3B               	goto	u10081
 11642  1E3A  2E3C               	goto	u10080
 11643  1E3B                     u10081:
 11644  1E3B  2E43               	goto	l9110
 11645  1E3C                     u10080:
 11646                           	line	16
 11647                           	
 11648  1E3C                     l9108:	
 11649  1E3C  082D               	movf	(___lwmod@divisor),w
 11650  1E3D  02AF               	subwf	(___lwmod@dividend),f
 11651  1E3E  082E               	movf	(___lwmod@divisor+1),w
 11652  1E3F  1C03               	skipc
 11653  1E40  03B0               	decf	(___lwmod@dividend+1),f
 11654  1E41  02B0               	subwf	(___lwmod@dividend+1),f
 11655  1E42  2E43               	goto	l9110
 11656                           	
 11657  1E43                     l3291:	
 11658                           	line	17
 11659                           	
 11660  1E43                     l9110:	
 11661  1E43  3001               	movlw	01h
 11662                           	
 11663  1E44                     u10095:
 11664  1E44  1003               	clrc
 11665  1E45  0CAE               	rrf	(___lwmod@divisor+1),f
 11666  1E46  0CAD               	rrf	(___lwmod@divisor),f
 11667  1E47  3EFF               	addlw	-1
 11668  1E48  1D03               	skipz
 11669  1E49  2E44               	goto	u10095
 11670                           	line	18
 11671                           	
 11672  1E4A                     l9112:	
 11673  1E4A  3001               	movlw	low(01h)
 11674  1E4B  02B2               	subwf	(___lwmod@counter),f
 11675  1E4C  1D03               	btfss	status,2
 11676  1E4D  2E4F               	goto	u10101
 11677  1E4E  2E50               	goto	u10100
 11678  1E4F                     u10101:
 11679  1E4F  2E32               	goto	l9106
 11680  1E50                     u10100:
 11681  1E50  2E52               	goto	l9114
 11682                           	
 11683  1E51                     l3292:	
 11684  1E51  2E52               	goto	l9114
 11685                           	line	19
 11686                           	
 11687  1E52                     l3286:	
 11688                           	line	20
 11689                           	
 11690  1E52                     l9114:	
 11691  1E52  0830               	movf	(___lwmod@dividend+1),w
 11692  1E53  01AE               	clrf	(?___lwmod+1)
 11693  1E54  07AE               	addwf	(?___lwmod+1)
 11694  1E55  082F               	movf	(___lwmod@dividend),w
 11695  1E56  01AD               	clrf	(?___lwmod)
 11696  1E57  07AD               	addwf	(?___lwmod)
 11697                           
 11698  1E58  2E59               	goto	l3293
 11699                           	
 11700  1E59                     l9116:	
 11701                           	line	21
 11702                           	
 11703  1E59                     l3293:	
 11704  1E59  0008               	return
 11705                           	opt stack 0
 11706                           GLOBAL	__end_of___lwmod
 11707  1E5A                     	__end_of___lwmod:
 11708 ;; =============== function ___lwmod ends ============
 11709                           
 11710                           	signat	___lwmod,8314
 11711                           	global	___lwdiv
 11712                           psect	text1509,local,class=CODE,delta=2
 11713                           global __ptext1509
 11714  1004                     __ptext1509:
 11715                           
 11716 ;; *************** function ___lwdiv *****************
 11717 ;; Defined at:
 11718 ;;		line 5 in file "C:\Program Files (x86)\HI-TECH Software\PICC\9.83\sources\lwdiv.c"
 11719 ;; Parameters:    Size  Location     Type
 11720 ;;  divisor         2    5[BANK0 ] unsigned int 
 11721 ;;  dividend        2    7[BANK0 ] unsigned int 
 11722 ;; Auto vars:     Size  Location     Type
 11723 ;;  quotient        2   11[BANK0 ] unsigned int 
 11724 ;;  counter         1   10[BANK0 ] unsigned char 
 11725 ;; Return value:  Size  Location     Type
 11726 ;;                  2    5[BANK0 ] unsigned int 
 11727 ;; Registers used:
 11728 ;;		wreg, status,2, status,0
 11729 ;; Tracked objects:
 11730 ;;		On entry : 0/0
 11731 ;;		On exit  : 0/0
 11732 ;;		Unchanged: 0/0
 11733 ;; Data sizes:     COMMON   BANK0   BANK1   BANK3   BANK2
 11734 ;;      Params:         0       4       0       0       0
 11735 ;;      Locals:         0       3       0       0       0
 11736 ;;      Temps:          0       1       0       0       0
 11737 ;;      Totals:         0       8       0       0       0
 11738 ;;Total ram usage:        8 bytes
 11739 ;; Hardware stack levels used:    1
 11740 ;; Hardware stack levels required when called:    4
 11741 ;; This function calls:
 11742 ;;		Nothing
 11743 ;; This function is called by:
 11744 ;;		_LCDTimeUpdate
 11745 ;;		_printf
 11746 ;; This function uses a non-reentrant model
 11747 ;;
 11748                           psect	text1509
 11749                           	file	"C:\Program Files (x86)\HI-TECH Software\PICC\9.83\sources\lwdiv.c"
 11750                           	line	5
 11751                           	global	__size_of___lwdiv
 11752  0050                     	__size_of___lwdiv	equ	__end_of___lwdiv-___lwdiv
 11753                           	
 11754  1004                     ___lwdiv:	
 11755                           	opt	stack 2
 11756                           ; Regs used in ___lwdiv: [wreg+status,2+status,0]
 11757                           	line	9
 11758                           	
 11759  1004                     l9070:	
 11760  1004  1283               	bcf	status, 5	;RP0=0, select bank0
 11761  1005  1303               	bcf	status, 6	;RP1=0, select bank0
 11762  1006  01AB               	clrf	(___lwdiv@quotient)
 11763  1007  01AC               	clrf	(___lwdiv@quotient+1)
 11764                           	line	10
 11765                           	
 11766  1008                     l9072:	
 11767  1008  0826               	movf	(___lwdiv@divisor+1),w
 11768  1009  0425               	iorwf	(___lwdiv@divisor),w
 11769  100A  1903               	skipnz
 11770  100B  280D               	goto	u9981
 11771  100C  280E               	goto	u9980
 11772  100D                     u9981:
 11773  100D  284C               	goto	l9092
 11774  100E                     u9980:
 11775                           	line	11
 11776                           	
 11777  100E                     l9074:	
 11778  100E  01AA               	clrf	(___lwdiv@counter)
 11779  100F  1403               	bsf	status,0
 11780  1010  0DAA               	rlf	(___lwdiv@counter),f
 11781                           	line	12
 11782  1011  281E               	goto	l9080
 11783                           	
 11784  1012                     l3278:	
 11785                           	line	13
 11786                           	
 11787  1012                     l9076:	
 11788  1012  3001               	movlw	01h
 11789                           	
 11790  1013                     u9995:
 11791  1013  1003               	clrc
 11792  1014  0DA5               	rlf	(___lwdiv@divisor),f
 11793  1015  0DA6               	rlf	(___lwdiv@divisor+1),f
 11794  1016  3EFF               	addlw	-1
 11795  1017  1D03               	skipz
 11796  1018  2813               	goto	u9995
 11797                           	line	14
 11798                           	
 11799  1019                     l9078:	
 11800  1019  3001               	movlw	(01h)
 11801  101A  00A9               	movwf	(??___lwdiv+0)+0
 11802  101B  0829               	movf	(??___lwdiv+0)+0,w
 11803  101C  07AA               	addwf	(___lwdiv@counter),f
 11804  101D  281E               	goto	l9080
 11805                           	line	15
 11806                           	
 11807  101E                     l3277:	
 11808                           	line	12
 11809                           	
 11810  101E                     l9080:	
 11811  101E  1FA6               	btfss	(___lwdiv@divisor+1),(15)&7
 11812  101F  2821               	goto	u10001
 11813  1020  2822               	goto	u10000
 11814  1021                     u10001:
 11815  1021  2812               	goto	l9076
 11816  1022                     u10000:
 11817  1022  2824               	goto	l9082
 11818                           	
 11819  1023                     l3279:	
 11820  1023  2824               	goto	l9082
 11821                           	line	16
 11822                           	
 11823  1024                     l3280:	
 11824                           	line	17
 11825                           	
 11826  1024                     l9082:	
 11827  1024  3001               	movlw	01h
 11828                           	
 11829  1025                     u10015:
 11830  1025  1003               	clrc
 11831  1026  0DAB               	rlf	(___lwdiv@quotient),f
 11832  1027  0DAC               	rlf	(___lwdiv@quotient+1),f
 11833  1028  3EFF               	addlw	-1
 11834  1029  1D03               	skipz
 11835  102A  2825               	goto	u10015
 11836                           	line	18
 11837  102B  0826               	movf	(___lwdiv@divisor+1),w
 11838  102C  0228               	subwf	(___lwdiv@dividend+1),w
 11839  102D  1D03               	skipz
 11840  102E  2831               	goto	u10025
 11841  102F  0825               	movf	(___lwdiv@divisor),w
 11842  1030  0227               	subwf	(___lwdiv@dividend),w
 11843  1031                     u10025:
 11844  1031  1C03               	skipc
 11845  1032  2834               	goto	u10021
 11846  1033  2835               	goto	u10020
 11847  1034                     u10021:
 11848  1034  283D               	goto	l9088
 11849  1035                     u10020:
 11850                           	line	19
 11851                           	
 11852  1035                     l9084:	
 11853  1035  0825               	movf	(___lwdiv@divisor),w
 11854  1036  02A7               	subwf	(___lwdiv@dividend),f
 11855  1037  0826               	movf	(___lwdiv@divisor+1),w
 11856  1038  1C03               	skipc
 11857  1039  03A8               	decf	(___lwdiv@dividend+1),f
 11858  103A  02A8               	subwf	(___lwdiv@dividend+1),f
 11859                           	line	20
 11860                           	
 11861  103B                     l9086:	
 11862  103B  142B               	bsf	(___lwdiv@quotient)+(0/8),(0)&7
 11863  103C  283D               	goto	l9088
 11864                           	line	21
 11865                           	
 11866  103D                     l3281:	
 11867                           	line	22
 11868                           	
 11869  103D                     l9088:	
 11870  103D  3001               	movlw	01h
 11871                           	
 11872  103E                     u10035:
 11873  103E  1003               	clrc
 11874  103F  0CA6               	rrf	(___lwdiv@divisor+1),f
 11875  1040  0CA5               	rrf	(___lwdiv@divisor),f
 11876  1041  3EFF               	addlw	-1
 11877  1042  1D03               	skipz
 11878  1043  283E               	goto	u10035
 11879                           	line	23
 11880                           	
 11881  1044                     l9090:	
 11882  1044  3001               	movlw	low(01h)
 11883  1045  02AA               	subwf	(___lwdiv@counter),f
 11884  1046  1D03               	btfss	status,2
 11885  1047  2849               	goto	u10041
 11886  1048  284A               	goto	u10040
 11887  1049                     u10041:
 11888  1049  2824               	goto	l9082
 11889  104A                     u10040:
 11890  104A  284C               	goto	l9092
 11891                           	
 11892  104B                     l3282:	
 11893  104B  284C               	goto	l9092
 11894                           	line	24
 11895                           	
 11896  104C                     l3276:	
 11897                           	line	25
 11898                           	
 11899  104C                     l9092:	
 11900  104C  082C               	movf	(___lwdiv@quotient+1),w
 11901  104D  01A6               	clrf	(?___lwdiv+1)
 11902  104E  07A6               	addwf	(?___lwdiv+1)
 11903  104F  082B               	movf	(___lwdiv@quotient),w
 11904  1050  01A5               	clrf	(?___lwdiv)
 11905  1051  07A5               	addwf	(?___lwdiv)
 11906                           
 11907  1052  2853               	goto	l3283
 11908                           	
 11909  1053                     l9094:	
 11910                           	line	26
 11911                           	
 11912  1053                     l3283:	
 11913  1053  0008               	return
 11914                           	opt stack 0
 11915                           GLOBAL	__end_of___lwdiv
 11916  1054                     	__end_of___lwdiv:
 11917 ;; =============== function ___lwdiv ends ============
 11918                           
 11919                           	signat	___lwdiv,8314
 11920                           	global	___wmul
 11921                           psect	text1510,local,class=CODE,delta=2
 11922                           global __ptext1510
 11923  1C56                     __ptext1510:
 11924                           
 11925 ;; *************** function ___wmul *****************
 11926 ;; Defined at:
 11927 ;;		line 3 in file "C:\Program Files (x86)\HI-TECH Software\PICC\9.83\sources\wmul.c"
 11928 ;; Parameters:    Size  Location     Type
 11929 ;;  multiplier      2    5[BANK0 ] unsigned int 
 11930 ;;  multiplicand    2    7[BANK0 ] unsigned int 
 11931 ;; Auto vars:     Size  Location     Type
 11932 ;;  product         2    9[BANK0 ] unsigned int 
 11933 ;; Return value:  Size  Location     Type
 11934 ;;                  2    5[BANK0 ] unsigned int 
 11935 ;; Registers used:
 11936 ;;		wreg, status,2, status,0
 11937 ;; Tracked objects:
 11938 ;;		On entry : 0/0
 11939 ;;		On exit  : 0/0
 11940 ;;		Unchanged: 0/0
 11941 ;; Data sizes:     COMMON   BANK0   BANK1   BANK3   BANK2
 11942 ;;      Params:         0       4       0       0       0
 11943 ;;      Locals:         0       2       0       0       0
 11944 ;;      Temps:          0       0       0       0       0
 11945 ;;      Totals:         0       6       0       0       0
 11946 ;;Total ram usage:        6 bytes
 11947 ;; Hardware stack levels used:    1
 11948 ;; Hardware stack levels required when called:    4
 11949 ;; This function calls:
 11950 ;;		Nothing
 11951 ;; This function is called by:
 11952 ;;		_printf
 11953 ;; This function uses a non-reentrant model
 11954 ;;
 11955                           psect	text1510
 11956                           	file	"C:\Program Files (x86)\HI-TECH Software\PICC\9.83\sources\wmul.c"
 11957                           	line	3
 11958                           	global	__size_of___wmul
 11959  002C                     	__size_of___wmul	equ	__end_of___wmul-___wmul
 11960                           	
 11961  1C56                     ___wmul:	
 11962                           	opt	stack 2
 11963                           ; Regs used in ___wmul: [wreg+status,2+status,0]
 11964                           	line	4
 11965                           	
 11966  1C56                     l9058:	
 11967  1C56  1283               	bcf	status, 5	;RP0=0, select bank0
 11968  1C57  1303               	bcf	status, 6	;RP1=0, select bank0
 11969  1C58  01A9               	clrf	(___wmul@product)
 11970  1C59  01AA               	clrf	(___wmul@product+1)
 11971  1C5A  2C5B               	goto	l9060
 11972                           	line	6
 11973                           	
 11974  1C5B                     l3270:	
 11975                           	line	7
 11976                           	
 11977  1C5B                     l9060:	
 11978  1C5B  1C25               	btfss	(___wmul@multiplier),(0)&7
 11979  1C5C  2C5E               	goto	u9941
 11980  1C5D  2C5F               	goto	u9940
 11981  1C5E                     u9941:
 11982  1C5E  2C65               	goto	l3271
 11983  1C5F                     u9940:
 11984                           	line	8
 11985                           	
 11986  1C5F                     l9062:	
 11987  1C5F  0827               	movf	(___wmul@multiplicand),w
 11988  1C60  07A9               	addwf	(___wmul@product),f
 11989  1C61  1803               	skipnc
 11990  1C62  0AAA               	incf	(___wmul@product+1),f
 11991  1C63  0828               	movf	(___wmul@multiplicand+1),w
 11992  1C64  07AA               	addwf	(___wmul@product+1),f
 11993                           	
 11994  1C65                     l3271:	
 11995                           	line	9
 11996  1C65  3001               	movlw	01h
 11997                           	
 11998  1C66                     u9955:
 11999  1C66  1003               	clrc
 12000  1C67  0DA7               	rlf	(___wmul@multiplicand),f
 12001  1C68  0DA8               	rlf	(___wmul@multiplicand+1),f
 12002  1C69  3EFF               	addlw	-1
 12003  1C6A  1D03               	skipz
 12004  1C6B  2C66               	goto	u9955
 12005                           	line	10
 12006                           	
 12007  1C6C                     l9064:	
 12008  1C6C  3001               	movlw	01h
 12009                           	
 12010  1C6D                     u9965:
 12011  1C6D  1003               	clrc
 12012  1C6E  0CA6               	rrf	(___wmul@multiplier+1),f
 12013  1C6F  0CA5               	rrf	(___wmul@multiplier),f
 12014  1C70  3EFF               	addlw	-1
 12015  1C71  1D03               	skipz
 12016  1C72  2C6D               	goto	u9965
 12017                           	line	11
 12018  1C73  0826               	movf	((___wmul@multiplier+1)),w
 12019  1C74  0425               	iorwf	((___wmul@multiplier)),w
 12020  1C75  1D03               	skipz
 12021  1C76  2C78               	goto	u9971
 12022  1C77  2C79               	goto	u9970
 12023  1C78                     u9971:
 12024  1C78  2C5B               	goto	l9060
 12025  1C79                     u9970:
 12026  1C79  2C7A               	goto	l9066
 12027                           	
 12028  1C7A                     l3272:	
 12029                           	line	12
 12030                           	
 12031  1C7A                     l9066:	
 12032  1C7A  082A               	movf	(___wmul@product+1),w
 12033  1C7B  01A6               	clrf	(?___wmul+1)
 12034  1C7C  07A6               	addwf	(?___wmul+1)
 12035  1C7D  0829               	movf	(___wmul@product),w
 12036  1C7E  01A5               	clrf	(?___wmul)
 12037  1C7F  07A5               	addwf	(?___wmul)
 12038                           
 12039  1C80  2C81               	goto	l3273
 12040                           	
 12041  1C81                     l9068:	
 12042                           	line	13
 12043                           	
 12044  1C81                     l3273:	
 12045  1C81  0008               	return
 12046                           	opt stack 0
 12047                           GLOBAL	__end_of___wmul
 12048  1C82                     	__end_of___wmul:
 12049 ;; =============== function ___wmul ends ============
 12050                           
 12051                           	signat	___wmul,8314
 12052                           	global	___bmul
 12053                           psect	text1511,local,class=CODE,delta=2
 12054                           global __ptext1511
 12055  1B24                     __ptext1511:
 12056                           
 12057 ;; *************** function ___bmul *****************
 12058 ;; Defined at:
 12059 ;;		line 3 in file "C:\Program Files (x86)\HI-TECH Software\PICC\9.83\sources\bmul.c"
 12060 ;; Parameters:    Size  Location     Type
 12061 ;;  multiplier      1    wreg     unsigned char 
 12062 ;;  multiplicand    1    5[BANK0 ] unsigned char 
 12063 ;; Auto vars:     Size  Location     Type
 12064 ;;  multiplier      1    8[BANK0 ] unsigned char 
 12065 ;;  product         1    7[BANK0 ] unsigned char 
 12066 ;; Return value:  Size  Location     Type
 12067 ;;                  1    wreg      unsigned char 
 12068 ;; Registers used:
 12069 ;;		wreg, status,2, status,0
 12070 ;; Tracked objects:
 12071 ;;		On entry : 0/0
 12072 ;;		On exit  : 0/0
 12073 ;;		Unchanged: 0/0
 12074 ;; Data sizes:     COMMON   BANK0   BANK1   BANK3   BANK2
 12075 ;;      Params:         0       1       0       0       0
 12076 ;;      Locals:         0       2       0       0       0
 12077 ;;      Temps:          0       1       0       0       0
 12078 ;;      Totals:         0       4       0       0       0
 12079 ;;Total ram usage:        4 bytes
 12080 ;; Hardware stack levels used:    1
 12081 ;; Hardware stack levels required when called:    4
 12082 ;; This function calls:
 12083 ;;		Nothing
 12084 ;; This function is called by:
 12085 ;;		_printf
 12086 ;; This function uses a non-reentrant model
 12087 ;;
 12088                           psect	text1511
 12089                           	file	"C:\Program Files (x86)\HI-TECH Software\PICC\9.83\sources\bmul.c"
 12090                           	line	3
 12091                           	global	__size_of___bmul
 12092  001A                     	__size_of___bmul	equ	__end_of___bmul-___bmul
 12093                           	
 12094  1B24                     ___bmul:	
 12095                           	opt	stack 2
 12096                           ; Regs used in ___bmul: [wreg+status,2+status,0]
 12097                           ;___bmul@multiplier stored from wreg
 12098  1B24  1283               	bcf	status, 5	;RP0=0, select bank0
 12099  1B25  1303               	bcf	status, 6	;RP1=0, select bank0
 12100  1B26  00A8               	movwf	(___bmul@multiplier)
 12101                           	line	4
 12102                           	
 12103  1B27                     l9044:	
 12104  1B27  01A7               	clrf	(___bmul@product)
 12105                           	line	6
 12106                           	
 12107  1B28                     l3264:	
 12108                           	line	7
 12109  1B28  1C28               	btfss	(___bmul@multiplier),(0)&7
 12110  1B29  2B2B               	goto	u9921
 12111  1B2A  2B2C               	goto	u9920
 12112  1B2B                     u9921:
 12113  1B2B  2B31               	goto	l9048
 12114  1B2C                     u9920:
 12115                           	line	8
 12116                           	
 12117  1B2C                     l9046:	
 12118  1B2C  0825               	movf	(___bmul@multiplicand),w
 12119  1B2D  00A6               	movwf	(??___bmul+0)+0
 12120  1B2E  0826               	movf	(??___bmul+0)+0,w
 12121  1B2F  07A7               	addwf	(___bmul@product),f
 12122  1B30  2B31               	goto	l9048
 12123                           	
 12124  1B31                     l3265:	
 12125                           	line	9
 12126                           	
 12127  1B31                     l9048:	
 12128  1B31  1003               	clrc
 12129  1B32  0DA5               	rlf	(___bmul@multiplicand),f
 12130                           
 12131                           	line	10
 12132                           	
 12133  1B33                     l9050:	
 12134  1B33  1003               	clrc
 12135  1B34  0CA8               	rrf	(___bmul@multiplier),f
 12136                           
 12137                           	line	11
 12138                           	
 12139  1B35                     l9052:	
 12140  1B35  08A8               	movf	(___bmul@multiplier),f
 12141  1B36  1D03               	skipz
 12142  1B37  2B39               	goto	u9931
 12143  1B38  2B3A               	goto	u9930
 12144  1B39                     u9931:
 12145  1B39  2B28               	goto	l3264
 12146  1B3A                     u9930:
 12147  1B3A  2B3B               	goto	l9054
 12148                           	
 12149  1B3B                     l3266:	
 12150                           	line	12
 12151                           	
 12152  1B3B                     l9054:	
 12153  1B3B  0827               	movf	(___bmul@product),w
 12154  1B3C  2B3D               	goto	l3267
 12155                           	
 12156  1B3D                     l9056:	
 12157                           	line	13
 12158                           	
 12159  1B3D                     l3267:	
 12160  1B3D  0008               	return
 12161                           	opt stack 0
 12162                           GLOBAL	__end_of___bmul
 12163  1B3E                     	__end_of___bmul:
 12164 ;; =============== function ___bmul ends ============
 12165                           
 12166                           	signat	___bmul,8313
 12167                           	global	_isdigit
 12168                           psect	text1512,local,class=CODE,delta=2
 12169                           global __ptext1512
 12170  1B0D                     __ptext1512:
 12171                           
 12172 ;; *************** function _isdigit *****************
 12173 ;; Defined at:
 12174 ;;		line 13 in file "C:\Program Files (x86)\HI-TECH Software\PICC\9.83\sources\isdigit.c"
 12175 ;; Parameters:    Size  Location     Type
 12176 ;;  c               1    wreg     unsigned char 
 12177 ;; Auto vars:     Size  Location     Type
 12178 ;;  c               1    6[BANK0 ] unsigned char 
 12179 ;; Return value:  Size  Location     Type
 12180 ;;		None               void
 12181 ;; Registers used:
 12182 ;;		wreg, status,2, status,0
 12183 ;; Tracked objects:
 12184 ;;		On entry : 0/0
 12185 ;;		On exit  : 0/0
 12186 ;;		Unchanged: 0/0
 12187 ;; Data sizes:     COMMON   BANK0   BANK1   BANK3   BANK2
 12188 ;;      Params:         0       0       0       0       0
 12189 ;;      Locals:         0       2       0       0       0
 12190 ;;      Temps:          0       0       0       0       0
 12191 ;;      Totals:         0       2       0       0       0
 12192 ;;Total ram usage:        2 bytes
 12193 ;; Hardware stack levels used:    1
 12194 ;; Hardware stack levels required when called:    4
 12195 ;; This function calls:
 12196 ;;		Nothing
 12197 ;; This function is called by:
 12198 ;;		_printf
 12199 ;; This function uses a non-reentrant model
 12200 ;;
 12201                           psect	text1512
 12202                           	file	"C:\Program Files (x86)\HI-TECH Software\PICC\9.83\sources\isdigit.c"
 12203                           	global	__size_of_isdigit
 12204  0017                     	__size_of_isdigit	equ	__end_of_isdigit-_isdigit
 12205                           	
 12206  1B0D                     _isdigit:	
 12207                           	opt	stack 2
 12208                           ; Regs used in _isdigit: [wreg+status,2+status,0]
 12209                           ;isdigit@c stored from wreg
 12210  1B0D  1283               	bcf	status, 5	;RP0=0, select bank0
 12211  1B0E  1303               	bcf	status, 6	;RP1=0, select bank0
 12212  1B0F  00A6               	movwf	(isdigit@c)
 12213                           	line	14
 12214                           	
 12215  1B10                     l9032:	
 12216  1B10  01A5               	clrf	(_isdigit$2439)
 12217                           	
 12218  1B11                     l9034:	
 12219  1B11  303A               	movlw	(03Ah)
 12220  1B12  0226               	subwf	(isdigit@c),w
 12221  1B13  1803               	skipnc
 12222  1B14  2B16               	goto	u9901
 12223  1B15  2B17               	goto	u9900
 12224  1B16                     u9901:
 12225  1B16  2B21               	goto	l9040
 12226  1B17                     u9900:
 12227                           	
 12228  1B17                     l9036:	
 12229  1B17  3030               	movlw	(030h)
 12230  1B18  0226               	subwf	(isdigit@c),w
 12231  1B19  1C03               	skipc
 12232  1B1A  2B1C               	goto	u9911
 12233  1B1B  2B1D               	goto	u9910
 12234  1B1C                     u9911:
 12235  1B1C  2B21               	goto	l9040
 12236  1B1D                     u9910:
 12237                           	
 12238  1B1D                     l9038:	
 12239  1B1D  01A5               	clrf	(_isdigit$2439)
 12240  1B1E  1403               	bsf	status,0
 12241  1B1F  0DA5               	rlf	(_isdigit$2439),f
 12242  1B20  2B21               	goto	l9040
 12243                           	
 12244  1B21                     l3260:	
 12245                           	
 12246  1B21                     l9040:	
 12247  1B21  0C25               	rrf	(_isdigit$2439),w
 12248                           	
 12249  1B22  2B23               	goto	l3261
 12250                           	
 12251  1B23                     l9042:	
 12252                           	line	15
 12253                           	
 12254  1B23                     l3261:	
 12255  1B23  0008               	return
 12256                           	opt stack 0
 12257                           GLOBAL	__end_of_isdigit
 12258  1B24                     	__end_of_isdigit:
 12259 ;; =============== function _isdigit ends ============
 12260                           
 12261                           	signat	_isdigit,4216
 12262                           	global	_RowNo
 12263                           psect	text1513,local,class=CODE,delta=2
 12264                           global __ptext1513
 12265  1CAE                     __ptext1513:
 12266                           
 12267 ;; *************** function _RowNo *****************
 12268 ;; Defined at:
 12269 ;;		line 350 in file "D:\ELECTRONIC\2016\1. Automated Solar Panel Orientation Setter\Firmware\ver4\Automated Solar Panel
        Orientation Setter.c"
 12270 ;; Parameters:    Size  Location     Type
 12271 ;;		None
 12272 ;; Auto vars:     Size  Location     Type
 12273 ;;  row             2    7[BANK0 ] int 
 12274 ;; Return value:  Size  Location     Type
 12275 ;;                  2    5[BANK0 ] int 
 12276 ;; Registers used:
 12277 ;;		wreg, status,2, status,0
 12278 ;; Tracked objects:
 12279 ;;		On entry : 0/0
 12280 ;;		On exit  : 0/0
 12281 ;;		Unchanged: 0/0
 12282 ;; Data sizes:     COMMON   BANK0   BANK1   BANK3   BANK2
 12283 ;;      Params:         0       2       0       0       0
 12284 ;;      Locals:         0       2       0       0       0
 12285 ;;      Temps:          0       0       0       0       0
 12286 ;;      Totals:         0       4       0       0       0
 12287 ;;Total ram usage:        4 bytes
 12288 ;; Hardware stack levels used:    1
 12289 ;; Hardware stack levels required when called:    4
 12290 ;; This function calls:
 12291 ;;		Nothing
 12292 ;; This function is called by:
 12293 ;;		_CheckKeyPad
 12294 ;; This function uses a non-reentrant model
 12295 ;;
 12296                           psect	text1513
 12297                           	file	"D:\ELECTRONIC\2016\1. Automated Solar Panel Orientation Setter\Firmware\ver4\Auto
                                 mated Solar Panel Orientation Setter.c"
 12298                           	line	350
 12299                           	global	__size_of_RowNo
 12300  0034                     	__size_of_RowNo	equ	__end_of_RowNo-_RowNo
 12301                           	
 12302  1CAE                     _RowNo:	
 12303                           	opt	stack 1
 12304                           ; Regs used in _RowNo: [wreg+status,2+status,0]
 12305                           	line	352
 12306                           	
 12307  1CAE                     l8936:	
 12308                           ;Automated Solar Panel Orientation Setter.c: 351: int row;
 12309                           ;Automated Solar Panel Orientation Setter.c: 352: if( RD2!=1){
 12310  1CAE  1283               	bcf	status, 5	;RP0=0, select bank0
 12311  1CAF  1303               	bcf	status, 6	;RP1=0, select bank0
 12312  1CB0  1908               	btfsc	(66/8),(66)&7
 12313  1CB1  2CB3               	goto	u9581
 12314  1CB2  2CB4               	goto	u9580
 12315  1CB3                     u9581:
 12316  1CB3  2CB9               	goto	l1106
 12317  1CB4                     u9580:
 12318                           	line	353
 12319                           	
 12320  1CB4                     l8938:	
 12321                           ;Automated Solar Panel Orientation Setter.c: 353: row = 1;
 12322  1CB4  3001               	movlw	low(01h)
 12323  1CB5  00A7               	movwf	(RowNo@row)
 12324  1CB6  3000               	movlw	high(01h)
 12325  1CB7  00A8               	movwf	((RowNo@row))+1
 12326                           	line	354
 12327                           ;Automated Solar Panel Orientation Setter.c: 354: }
 12328  1CB8  2CDA               	goto	l8948
 12329                           	line	355
 12330                           	
 12331  1CB9                     l1106:	
 12332                           ;Automated Solar Panel Orientation Setter.c: 355: else if( RD7!=1 ){
 12333  1CB9  1B88               	btfsc	(71/8),(71)&7
 12334  1CBA  2CBC               	goto	u9591
 12335  1CBB  2CBD               	goto	u9590
 12336  1CBC                     u9591:
 12337  1CBC  2CC2               	goto	l1108
 12338  1CBD                     u9590:
 12339                           	line	356
 12340                           	
 12341  1CBD                     l8940:	
 12342                           ;Automated Solar Panel Orientation Setter.c: 356: row = 2;
 12343  1CBD  3002               	movlw	low(02h)
 12344  1CBE  00A7               	movwf	(RowNo@row)
 12345  1CBF  3000               	movlw	high(02h)
 12346  1CC0  00A8               	movwf	((RowNo@row))+1
 12347                           	line	357
 12348                           ;Automated Solar Panel Orientation Setter.c: 357: }
 12349  1CC1  2CDA               	goto	l8948
 12350                           	line	358
 12351                           	
 12352  1CC2                     l1108:	
 12353                           ;Automated Solar Panel Orientation Setter.c: 358: else if( RD3!=1 ){
 12354  1CC2  1988               	btfsc	(67/8),(67)&7
 12355  1CC3  2CC5               	goto	u9601
 12356  1CC4  2CC6               	goto	u9600
 12357  1CC5                     u9601:
 12358  1CC5  2CCB               	goto	l1110
 12359  1CC6                     u9600:
 12360                           	line	359
 12361                           	
 12362  1CC6                     l8942:	
 12363                           ;Automated Solar Panel Orientation Setter.c: 359: row = 3;
 12364  1CC6  3003               	movlw	low(03h)
 12365  1CC7  00A7               	movwf	(RowNo@row)
 12366  1CC8  3000               	movlw	high(03h)
 12367  1CC9  00A8               	movwf	((RowNo@row))+1
 12368                           	line	360
 12369                           ;Automated Solar Panel Orientation Setter.c: 360: }
 12370  1CCA  2CDA               	goto	l8948
 12371                           	line	361
 12372                           	
 12373  1CCB                     l1110:	
 12374                           ;Automated Solar Panel Orientation Setter.c: 361: else if( RD6!=1 ){
 12375  1CCB  1B08               	btfsc	(70/8),(70)&7
 12376  1CCC  2CCE               	goto	u9611
 12377  1CCD  2CCF               	goto	u9610
 12378  1CCE                     u9611:
 12379  1CCE  2CD4               	goto	l8946
 12380  1CCF                     u9610:
 12381                           	line	362
 12382                           	
 12383  1CCF                     l8944:	
 12384                           ;Automated Solar Panel Orientation Setter.c: 362: row = 4;
 12385  1CCF  3004               	movlw	low(04h)
 12386  1CD0  00A7               	movwf	(RowNo@row)
 12387  1CD1  3000               	movlw	high(04h)
 12388  1CD2  00A8               	movwf	((RowNo@row))+1
 12389                           	line	363
 12390                           ;Automated Solar Panel Orientation Setter.c: 363: }
 12391  1CD3  2CDA               	goto	l8948
 12392                           	line	364
 12393                           	
 12394  1CD4                     l1112:	
 12395                           	line	365
 12396                           	
 12397  1CD4                     l8946:	
 12398                           ;Automated Solar Panel Orientation Setter.c: 364: else{
 12399                           ;Automated Solar Panel Orientation Setter.c: 365: row = 0;
 12400  1CD4  01A7               	clrf	(RowNo@row)
 12401  1CD5  01A8               	clrf	(RowNo@row+1)
 12402  1CD6  2CDA               	goto	l8948
 12403                           	line	366
 12404                           	
 12405  1CD7                     l1113:	
 12406  1CD7  2CDA               	goto	l8948
 12407                           	
 12408  1CD8                     l1111:	
 12409  1CD8  2CDA               	goto	l8948
 12410                           	
 12411  1CD9                     l1109:	
 12412  1CD9  2CDA               	goto	l8948
 12413                           	
 12414  1CDA                     l1107:	
 12415                           	line	367
 12416                           	
 12417  1CDA                     l8948:	
 12418                           ;Automated Solar Panel Orientation Setter.c: 366: }
 12419                           ;Automated Solar Panel Orientation Setter.c: 367: return row;
 12420  1CDA  0828               	movf	(RowNo@row+1),w
 12421  1CDB  01A6               	clrf	(?_RowNo+1)
 12422  1CDC  07A6               	addwf	(?_RowNo+1)
 12423  1CDD  0827               	movf	(RowNo@row),w
 12424  1CDE  01A5               	clrf	(?_RowNo)
 12425  1CDF  07A5               	addwf	(?_RowNo)
 12426                           
 12427  1CE0  2CE1               	goto	l1114
 12428                           	
 12429  1CE1                     l8950:	
 12430                           	line	368
 12431                           	
 12432  1CE1                     l1114:	
 12433  1CE1  0008               	return
 12434                           	opt stack 0
 12435                           GLOBAL	__end_of_RowNo
 12436  1CE2                     	__end_of_RowNo:
 12437 ;; =============== function _RowNo ends ============
 12438                           
 12439                           	signat	_RowNo,90
 12440                           	global	_eeprom_read
 12441                           psect	text1514,local,class=CODE,delta=2
 12442                           global __ptext1514
 12443  1C0B                     __ptext1514:
 12444                           
 12445 ;; *************** function _eeprom_read *****************
 12446 ;; Defined at:
 12447 ;;		line 7 in file "eeread.c"
 12448 ;; Parameters:    Size  Location     Type
 12449 ;;  addr            1    wreg     unsigned char 
 12450 ;; Auto vars:     Size  Location     Type
 12451 ;;  addr            1    6[BANK0 ] unsigned char 
 12452 ;; Return value:  Size  Location     Type
 12453 ;;                  1    wreg      unsigned char 
 12454 ;; Registers used:
 12455 ;;		wreg, status,2, status,0
 12456 ;; Tracked objects:
 12457 ;;		On entry : 0/0
 12458 ;;		On exit  : 0/0
 12459 ;;		Unchanged: 0/0
 12460 ;; Data sizes:     COMMON   BANK0   BANK1   BANK3   BANK2
 12461 ;;      Params:         0       0       0       0       0
 12462 ;;      Locals:         0       1       0       0       0
 12463 ;;      Temps:          0       1       0       0       0
 12464 ;;      Totals:         0       2       0       0       0
 12465 ;;Total ram usage:        2 bytes
 12466 ;; Hardware stack levels used:    1
 12467 ;; Hardware stack levels required when called:    4
 12468 ;; This function calls:
 12469 ;;		Nothing
 12470 ;; This function is called by:
 12471 ;;		_main
 12472 ;; This function uses a non-reentrant model
 12473 ;;
 12474                           psect	text1514
 12475                           	file	"C:\Program Files (x86)\HI-TECH Software\PICC\9.83\sources\eeread.c"
 12476                           	line	7
 12477                           	global	__size_of_eeprom_read
 12478  0025                     	__size_of_eeprom_read	equ	__end_of_eeprom_read-_eeprom_read
 12479                           	
 12480  1C0B                     _eeprom_read:	
 12481                           	opt	stack 3
 12482                           ; Regs used in _eeprom_read: [wreg+status,2+status,0]
 12483                           ;eeprom_read@addr stored from wreg
 12484                           	line	9
 12485  1C0B  1283               	bcf	status, 5	;RP0=0, select bank0
 12486  1C0C  1303               	bcf	status, 6	;RP1=0, select bank0
 12487  1C0D  00A6               	movwf	(eeprom_read@addr)
 12488                           	line	8
 12489                           	
 12490  1C0E                     l1958:	
 12491                           	line	9
 12492                           # 9 "C:\Program Files (x86)\HI-TECH Software\PICC\9.83\sources\eeread.c"
 12493  1C0E  0064               clrwdt ;#
 12494                           psect	text1514
 12495                           	line	10
 12496  1C0F  1683               	bsf	status, 5	;RP0=1, select bank3
 12497  1C10  1703               	bsf	status, 6	;RP1=1, select bank3
 12498  1C11  188C               	btfsc	(3169/8)^0180h,(3169)&7
 12499  1C12  2C14               	goto	u9561
 12500  1C13  2C15               	goto	u9560
 12501  1C14                     u9561:
 12502  1C14  2C0E               	goto	l1958
 12503  1C15                     u9560:
 12504  1C15  2C16               	goto	l8922
 12505                           	
 12506  1C16                     l1959:	
 12507                           	line	11
 12508                           	
 12509  1C16                     l8922:	
 12510  1C16  1283               	bcf	status, 5	;RP0=0, select bank0
 12511  1C17  1303               	bcf	status, 6	;RP1=0, select bank0
 12512  1C18  0826               	movf	(eeprom_read@addr),w
 12513  1C19  1283               	bcf	status, 5	;RP0=0, select bank2
 12514  1C1A  1703               	bsf	status, 6	;RP1=1, select bank2
 12515  1C1B  008D               	movwf	(269)^0100h	;volatile
 12516  1C1C  303F               	movlw	(03Fh)
 12517  1C1D  1283               	bcf	status, 5	;RP0=0, select bank0
 12518  1C1E  1303               	bcf	status, 6	;RP1=0, select bank0
 12519  1C1F  00A5               	movwf	(??_eeprom_read+0)+0
 12520  1C20  0825               	movf	(??_eeprom_read+0)+0,w
 12521  1C21  1683               	bsf	status, 5	;RP0=1, select bank3
 12522  1C22  1703               	bsf	status, 6	;RP1=1, select bank3
 12523  1C23  058C               	andwf	(396)^0180h,f	;volatile
 12524  1C24  140C               	bsf	(3168/8)^0180h,(3168)&7
 12525  1C25  1003               	clrc
 12526  1C26  180C               	btfsc	(3168/8)^0180h,(3168)&7
 12527  1C27  1403               	setc
 12528  1C28  3000               	movlw	0
 12529  1C29  1803               	skipnc
 12530  1C2A  3001               	movlw	1
 12531                           
 12532  1C2B  1283               	bcf	status, 5	;RP0=0, select bank2
 12533  1C2C  1703               	bsf	status, 6	;RP1=1, select bank2
 12534  1C2D  080C               	movf	(268)^0100h,w	;volatile
 12535  1C2E  2C2F               	goto	l1960
 12536                           	
 12537  1C2F                     l8924:	
 12538                           	line	12
 12539                           	
 12540  1C2F                     l1960:	
 12541  1C2F  0008               	return
 12542                           	opt stack 0
 12543                           GLOBAL	__end_of_eeprom_read
 12544  1C30                     	__end_of_eeprom_read:
 12545 ;; =============== function _eeprom_read ends ============
 12546                           
 12547                           	signat	_eeprom_read,4217
 12548                           	global	_eeprom_write
 12549                           psect	text1515,local,class=CODE,delta=2
 12550                           global __ptext1515
 12551  1D56                     __ptext1515:
 12552                           
 12553 ;; *************** function _eeprom_write *****************
 12554 ;; Defined at:
 12555 ;;		line 7 in file "C:\Program Files (x86)\HI-TECH Software\PICC\9.83\sources\eewrite.c"
 12556 ;; Parameters:    Size  Location     Type
 12557 ;;  addr            1    wreg     unsigned char 
 12558 ;;  value           1    5[BANK0 ] unsigned char 
 12559 ;; Auto vars:     Size  Location     Type
 12560 ;;  addr            1    7[BANK0 ] unsigned char 
 12561 ;; Return value:  Size  Location     Type
 12562 ;;                  1    wreg      unsigned char 
 12563 ;; Registers used:
 12564 ;;		wreg, status,2, status,0
 12565 ;; Tracked objects:
 12566 ;;		On entry : 0/0
 12567 ;;		On exit  : 0/0
 12568 ;;		Unchanged: 0/0
 12569 ;; Data sizes:     COMMON   BANK0   BANK1   BANK3   BANK2
 12570 ;;      Params:         0       1       0       0       0
 12571 ;;      Locals:         0       1       0       0       0
 12572 ;;      Temps:          0       1       0       0       0
 12573 ;;      Totals:         0       3       0       0       0
 12574 ;;Total ram usage:        3 bytes
 12575 ;; Hardware stack levels used:    1
 12576 ;; Hardware stack levels required when called:    4
 12577 ;; This function calls:
 12578 ;;		Nothing
 12579 ;; This function is called by:
 12580 ;;		_main
 12581 ;; This function uses a non-reentrant model
 12582 ;;
 12583                           psect	text1515
 12584                           	file	"C:\Program Files (x86)\HI-TECH Software\PICC\9.83\sources\eewrite.c"
 12585                           	line	7
 12586                           	global	__size_of_eeprom_write
 12587  003B                     	__size_of_eeprom_write	equ	__end_of_eeprom_write-_eeprom_write
 12588                           	
 12589  1D56                     _eeprom_write:	
 12590                           	opt	stack 3
 12591                           ; Regs used in _eeprom_write: [wreg+status,2+status,0]
 12592                           ;eeprom_write@addr stored from wreg
 12593  1D56  1283               	bcf	status, 5	;RP0=0, select bank0
 12594  1D57  1303               	bcf	status, 6	;RP1=0, select bank0
 12595  1D58  00A7               	movwf	(eeprom_write@addr)
 12596                           	line	8
 12597                           	
 12598  1D59                     l2575:	
 12599  1D59  2D5A               	goto	l2576
 12600                           	
 12601  1D5A                     l2577:	
 12602                           	
 12603  1D5A                     l2576:	
 12604  1D5A  1683               	bsf	status, 5	;RP0=1, select bank3
 12605  1D5B  1703               	bsf	status, 6	;RP1=1, select bank3
 12606  1D5C  188C               	btfsc	(3169/8)^0180h,(3169)&7
 12607  1D5D  2D5F               	goto	u9531
 12608  1D5E  2D60               	goto	u9530
 12609  1D5F                     u9531:
 12610  1D5F  2D5A               	goto	l2576
 12611  1D60                     u9530:
 12612  1D60  2D61               	goto	l8902
 12613                           	
 12614  1D61                     l2578:	
 12615                           	
 12616  1D61                     l8902:	
 12617  1D61  1283               	bcf	status, 5	;RP0=0, select bank0
 12618  1D62  1303               	bcf	status, 6	;RP1=0, select bank0
 12619  1D63  0827               	movf	(eeprom_write@addr),w
 12620  1D64  1283               	bcf	status, 5	;RP0=0, select bank2
 12621  1D65  1703               	bsf	status, 6	;RP1=1, select bank2
 12622  1D66  008D               	movwf	(269)^0100h	;volatile
 12623  1D67  1283               	bcf	status, 5	;RP0=0, select bank0
 12624  1D68  1303               	bcf	status, 6	;RP1=0, select bank0
 12625  1D69  0825               	movf	(eeprom_write@value),w
 12626  1D6A  1283               	bcf	status, 5	;RP0=0, select bank2
 12627  1D6B  1703               	bsf	status, 6	;RP1=1, select bank2
 12628  1D6C  008C               	movwf	(268)^0100h	;volatile
 12629                           	
 12630  1D6D                     l8904:	
 12631  1D6D  303F               	movlw	(03Fh)
 12632  1D6E  1283               	bcf	status, 5	;RP0=0, select bank0
 12633  1D6F  1303               	bcf	status, 6	;RP1=0, select bank0
 12634  1D70  00A6               	movwf	(??_eeprom_write+0)+0
 12635  1D71  0826               	movf	(??_eeprom_write+0)+0,w
 12636  1D72  1683               	bsf	status, 5	;RP0=1, select bank3
 12637  1D73  1703               	bsf	status, 6	;RP1=1, select bank3
 12638  1D74  058C               	andwf	(396)^0180h,f	;volatile
 12639                           	
 12640  1D75                     l8906:	
 12641  1D75  1283               	bcf	status, 5	;RP0=0, select bank0
 12642  1D76  1303               	bcf	status, 6	;RP1=0, select bank0
 12643  1D77  1003               	bcf	(24/8),(24)&7
 12644                           	
 12645  1D78                     l8908:	
 12646  1D78  1F8B               	btfss	(95/8),(95)&7
 12647  1D79  2D7B               	goto	u9541
 12648  1D7A  2D7C               	goto	u9540
 12649  1D7B                     u9541:
 12650  1D7B  2D7D               	goto	l2579
 12651  1D7C                     u9540:
 12652                           	
 12653  1D7C                     l8910:	
 12654  1D7C  1403               	bsf	(24/8),(24)&7
 12655                           	
 12656  1D7D                     l2579:	
 12657  1D7D  138B               	bcf	(95/8),(95)&7
 12658  1D7E  1683               	bsf	status, 5	;RP0=1, select bank3
 12659  1D7F  1703               	bsf	status, 6	;RP1=1, select bank3
 12660  1D80  150C               	bsf	(3170/8)^0180h,(3170)&7
 12661                           	
 12662  1D81                     l8912:	
 12663  1D81  3055               	movlw	(055h)
 12664  1D82  008D               	movwf	(397)^0180h	;volatile
 12665  1D83  30AA               	movlw	(0AAh)
 12666  1D84  008D               	movwf	(397)^0180h	;volatile
 12667                           	
 12668  1D85                     l8914:	
 12669  1D85  148C               	bsf	(3169/8)^0180h,(3169)&7
 12670                           	
 12671  1D86                     l8916:	
 12672  1D86  110C               	bcf	(3170/8)^0180h,(3170)&7
 12673                           	
 12674  1D87                     l8918:	
 12675  1D87  1283               	bcf	status, 5	;RP0=0, select bank0
 12676  1D88  1303               	bcf	status, 6	;RP1=0, select bank0
 12677  1D89  1C03               	btfss	(24/8),(24)&7
 12678  1D8A  2D8C               	goto	u9551
 12679  1D8B  2D8D               	goto	u9550
 12680  1D8C                     u9551:
 12681  1D8C  2D90               	goto	l2582
 12682  1D8D                     u9550:
 12683                           	
 12684  1D8D                     l8920:	
 12685  1D8D  178B               	bsf	(95/8),(95)&7
 12686  1D8E  2D90               	goto	l2582
 12687                           	
 12688  1D8F                     l2580:	
 12689  1D8F  2D90               	goto	l2582
 12690                           	
 12691  1D90                     l2581:	
 12692                           	line	10
 12693                           ;	Return value of _eeprom_write is never used
 12694                           	
 12695  1D90                     l2582:	
 12696  1D90  0008               	return
 12697                           	opt stack 0
 12698                           GLOBAL	__end_of_eeprom_write
 12699  1D91                     	__end_of_eeprom_write:
 12700 ;; =============== function _eeprom_write ends ============
 12701                           
 12702                           	signat	_eeprom_write,8313
 12703                           	global	_Timer1_Init
 12704                           psect	text1516,local,class=CODE,delta=2
 12705                           global __ptext1516
 12706  1AEB                     __ptext1516:
 12707                           
 12708 ;; *************** function _Timer1_Init *****************
 12709 ;; Defined at:
 12710 ;;		line 4 in file "D:\ELECTRONIC\2016\1. Automated Solar Panel Orientation Setter\Firmware\ver4\timer1.h"
 12711 ;; Parameters:    Size  Location     Type
 12712 ;;		None
 12713 ;; Auto vars:     Size  Location     Type
 12714 ;;		None
 12715 ;; Return value:  Size  Location     Type
 12716 ;;		None               void
 12717 ;; Registers used:
 12718 ;;		wreg
 12719 ;; Tracked objects:
 12720 ;;		On entry : 0/0
 12721 ;;		On exit  : 0/0
 12722 ;;		Unchanged: 0/0
 12723 ;; Data sizes:     COMMON   BANK0   BANK1   BANK3   BANK2
 12724 ;;      Params:         0       0       0       0       0
 12725 ;;      Locals:         0       0       0       0       0
 12726 ;;      Temps:          0       0       0       0       0
 12727 ;;      Totals:         0       0       0       0       0
 12728 ;;Total ram usage:        0 bytes
 12729 ;; Hardware stack levels used:    1
 12730 ;; Hardware stack levels required when called:    4
 12731 ;; This function calls:
 12732 ;;		Nothing
 12733 ;; This function is called by:
 12734 ;;		_main
 12735 ;; This function uses a non-reentrant model
 12736 ;;
 12737                           psect	text1516
 12738                           	file	"D:\ELECTRONIC\2016\1. Automated Solar Panel Orientation Setter\Firmware\ver4\time
                                 r1.h"
 12739                           	line	4
 12740                           	global	__size_of_Timer1_Init
 12741  000F                     	__size_of_Timer1_Init	equ	__end_of_Timer1_Init-_Timer1_Init
 12742                           	
 12743  1AEB                     _Timer1_Init:	
 12744                           	opt	stack 3
 12745                           ; Regs used in _Timer1_Init: [wreg]
 12746                           	line	6
 12747                           	
 12748  1AEB                     l8896:	
 12749                           ;timer1.h: 6: T1CKPS1 = 0;
 12750  1AEB  1283               	bcf	status, 5	;RP0=0, select bank0
 12751  1AEC  1303               	bcf	status, 6	;RP1=0, select bank0
 12752  1AED  1290               	bcf	(133/8),(133)&7
 12753                           	line	7
 12754                           ;timer1.h: 7: T1CKPS0 = 1;
 12755  1AEE  1610               	bsf	(132/8),(132)&7
 12756                           	line	8
 12757                           ;timer1.h: 8: TMR1CS = 0;
 12758  1AEF  1090               	bcf	(129/8),(129)&7
 12759                           	line	9
 12760                           ;timer1.h: 9: TMR1ON = 1;
 12761  1AF0  1410               	bsf	(128/8),(128)&7
 12762                           	line	10
 12763                           ;timer1.h: 10: T1OSCEN = 0;
 12764  1AF1  1190               	bcf	(131/8),(131)&7
 12765                           	line	11
 12766                           	
 12767  1AF2                     l8898:	
 12768                           ;timer1.h: 11: TMR1L = 0xB0;
 12769  1AF2  30B0               	movlw	(0B0h)
 12770  1AF3  008E               	movwf	(14)	;volatile
 12771                           	line	12
 12772                           ;timer1.h: 12: TMR1H = 60;
 12773  1AF4  303C               	movlw	(03Ch)
 12774  1AF5  008F               	movwf	(15)	;volatile
 12775                           	line	13
 12776                           	
 12777  1AF6                     l8900:	
 12778                           ;timer1.h: 13: TMR1IE = 1;
 12779  1AF6  1683               	bsf	status, 5	;RP0=1, select bank1
 12780  1AF7  1303               	bcf	status, 6	;RP1=0, select bank1
 12781  1AF8  140C               	bsf	(1120/8)^080h,(1120)&7
 12782                           	line	14
 12783                           	
 12784  1AF9                     l995:	
 12785  1AF9  0008               	return
 12786                           	opt stack 0
 12787                           GLOBAL	__end_of_Timer1_Init
 12788  1AFA                     	__end_of_Timer1_Init:
 12789 ;; =============== function _Timer1_Init ends ============
 12790                           
 12791                           	signat	_Timer1_Init,88
 12792                           	global	_enableInterrupt
 12793                           psect	text1517,local,class=CODE,delta=2
 12794                           global __ptext1517
 12795  1AFA                     __ptext1517:
 12796                           
 12797 ;; *************** function _enableInterrupt *****************
 12798 ;; Defined at:
 12799 ;;		line 7 in file "D:\ELECTRONIC\2016\1. Automated Solar Panel Orientation Setter\Firmware\ver4\interrupts.h"
 12800 ;; Parameters:    Size  Location     Type
 12801 ;;		None
 12802 ;; Auto vars:     Size  Location     Type
 12803 ;;		None
 12804 ;; Return value:  Size  Location     Type
 12805 ;;		None               void
 12806 ;; Registers used:
 12807 ;;		None
 12808 ;; Tracked objects:
 12809 ;;		On entry : 0/0
 12810 ;;		On exit  : 0/0
 12811 ;;		Unchanged: 0/0
 12812 ;; Data sizes:     COMMON   BANK0   BANK1   BANK3   BANK2
 12813 ;;      Params:         0       0       0       0       0
 12814 ;;      Locals:         0       0       0       0       0
 12815 ;;      Temps:          0       0       0       0       0
 12816 ;;      Totals:         0       0       0       0       0
 12817 ;;Total ram usage:        0 bytes
 12818 ;; Hardware stack levels used:    1
 12819 ;; Hardware stack levels required when called:    4
 12820 ;; This function calls:
 12821 ;;		Nothing
 12822 ;; This function is called by:
 12823 ;;		_main
 12824 ;; This function uses a non-reentrant model
 12825 ;;
 12826                           psect	text1517
 12827                           	file	"D:\ELECTRONIC\2016\1. Automated Solar Panel Orientation Setter\Firmware\ver4\inte
                                 rrupts.h"
 12828                           	line	7
 12829                           	global	__size_of_enableInterrupt
 12830  0013                     	__size_of_enableInterrupt	equ	__end_of_enableInterrupt-_enableInterrupt
 12831                           	
 12832  1AFA                     _enableInterrupt:	
 12833                           	opt	stack 3
 12834                           ; Regs used in _enableInterrupt: []
 12835                           	line	9
 12836                           	
 12837  1AFA                     l8894:	
 12838                           ;interrupts.h: 9: RBIE = 0;
 12839  1AFA  118B               	bcf	(91/8),(91)&7
 12840                           	line	10
 12841                           ;interrupts.h: 10: INTE = 0;
 12842  1AFB  120B               	bcf	(92/8),(92)&7
 12843                           	line	12
 12844                           ;interrupts.h: 12: PSPIE = 0;
 12845  1AFC  1683               	bsf	status, 5	;RP0=1, select bank1
 12846  1AFD  1303               	bcf	status, 6	;RP1=0, select bank1
 12847  1AFE  138C               	bcf	(1127/8)^080h,(1127)&7
 12848                           	line	13
 12849                           ;interrupts.h: 13: ADIE = 0;
 12850  1AFF  130C               	bcf	(1126/8)^080h,(1126)&7
 12851                           	line	15
 12852                           ;interrupts.h: 15: TXIE = 0;
 12853  1B00  120C               	bcf	(1124/8)^080h,(1124)&7
 12854                           	line	16
 12855                           ;interrupts.h: 16: RCIE = 1;
 12856  1B01  168C               	bsf	(1125/8)^080h,(1125)&7
 12857                           	line	18
 12858                           ;interrupts.h: 18: SSPIE = 0;
 12859  1B02  118C               	bcf	(1123/8)^080h,(1123)&7
 12860                           	line	19
 12861                           ;interrupts.h: 19: CCP1IE = 0;
 12862  1B03  110C               	bcf	(1122/8)^080h,(1122)&7
 12863                           	line	21
 12864                           ;interrupts.h: 21: TMR1IE = 1;
 12865  1B04  140C               	bsf	(1120/8)^080h,(1120)&7
 12866                           	line	22
 12867                           ;interrupts.h: 22: TMR2IE = 0;
 12868  1B05  108C               	bcf	(1121/8)^080h,(1121)&7
 12869                           	line	23
 12870                           ;interrupts.h: 23: T0IE = 0;
 12871  1B06  128B               	bcf	(93/8),(93)&7
 12872                           	line	25
 12873                           ;interrupts.h: 25: EEIE = 0;
 12874  1B07  120D               	bcf	(1132/8)^080h,(1132)&7
 12875                           	line	26
 12876                           ;interrupts.h: 26: BCLIE = 0;
 12877  1B08  118D               	bcf	(1131/8)^080h,(1131)&7
 12878                           	line	27
 12879                           ;interrupts.h: 27: CCP2IE = 0;
 12880  1B09  100D               	bcf	(1128/8)^080h,(1128)&7
 12881                           	line	30
 12882                           ;interrupts.h: 30: GIE = 1;
 12883  1B0A  178B               	bsf	(95/8),(95)&7
 12884                           	line	31
 12885                           ;interrupts.h: 31: PEIE = 1;
 12886  1B0B  170B               	bsf	(94/8),(94)&7
 12887                           	line	32
 12888                           	
 12889  1B0C                     l992:	
 12890  1B0C  0008               	return
 12891                           	opt stack 0
 12892                           GLOBAL	__end_of_enableInterrupt
 12893  1B0D                     	__end_of_enableInterrupt:
 12894 ;; =============== function _enableInterrupt ends ============
 12895                           
 12896                           	signat	_enableInterrupt,88
 12897                           	global	_atod_init
 12898                           psect	text1518,local,class=CODE,delta=2
 12899                           global __ptext1518
 12900  1AE2                     __ptext1518:
 12901                           
 12902 ;; *************** function _atod_init *****************
 12903 ;; Defined at:
 12904 ;;		line 8 in file "D:\ELECTRONIC\2016\1. Automated Solar Panel Orientation Setter\Firmware\ver4\a2d.h"
 12905 ;; Parameters:    Size  Location     Type
 12906 ;;		None
 12907 ;; Auto vars:     Size  Location     Type
 12908 ;;		None
 12909 ;; Return value:  Size  Location     Type
 12910 ;;		None               void
 12911 ;; Registers used:
 12912 ;;		wreg
 12913 ;; Tracked objects:
 12914 ;;		On entry : 0/0
 12915 ;;		On exit  : 0/0
 12916 ;;		Unchanged: 0/0
 12917 ;; Data sizes:     COMMON   BANK0   BANK1   BANK3   BANK2
 12918 ;;      Params:         0       0       0       0       0
 12919 ;;      Locals:         0       0       0       0       0
 12920 ;;      Temps:          0       0       0       0       0
 12921 ;;      Totals:         0       0       0       0       0
 12922 ;;Total ram usage:        0 bytes
 12923 ;; Hardware stack levels used:    1
 12924 ;; Hardware stack levels required when called:    4
 12925 ;; This function calls:
 12926 ;;		Nothing
 12927 ;; This function is called by:
 12928 ;;		_main
 12929 ;; This function uses a non-reentrant model
 12930 ;;
 12931                           psect	text1518
 12932                           	file	"D:\ELECTRONIC\2016\1. Automated Solar Panel Orientation Setter\Firmware\ver4\a2d.
                                 h"
 12933                           	line	8
 12934                           	global	__size_of_atod_init
 12935  0009                     	__size_of_atod_init	equ	__end_of_atod_init-_atod_init
 12936                           	
 12937  1AE2                     _atod_init:	
 12938                           	opt	stack 3
 12939                           ; Regs used in _atod_init: [wreg]
 12940                           	line	9
 12941                           	
 12942  1AE2                     l8880:	
 12943                           ;a2d.h: 9: ADCON0 = 0b01000010;
 12944  1AE2  3042               	movlw	(042h)
 12945  1AE3  1283               	bcf	status, 5	;RP0=0, select bank0
 12946  1AE4  1303               	bcf	status, 6	;RP1=0, select bank0
 12947  1AE5  009F               	movwf	(31)	;volatile
 12948                           	line	10
 12949                           ;a2d.h: 10: ADCON1 = 0b10000100;
 12950  1AE6  3084               	movlw	(084h)
 12951  1AE7  1683               	bsf	status, 5	;RP0=1, select bank1
 12952  1AE8  1303               	bcf	status, 6	;RP1=0, select bank1
 12953  1AE9  009F               	movwf	(159)^080h	;volatile
 12954                           	line	11
 12955                           	
 12956  1AEA                     l847:	
 12957  1AEA  0008               	return
 12958                           	opt stack 0
 12959                           GLOBAL	__end_of_atod_init
 12960  1AEB                     	__end_of_atod_init:
 12961 ;; =============== function _atod_init ends ============
 12962                           
 12963                           	signat	_atod_init,88
 12964                           	global	_lcd_init
 12965                           psect	text1519,local,class=CODE,delta=2
 12966                           global __ptext1519
 12967  1227                     __ptext1519:
 12968                           
 12969 ;; *************** function _lcd_init *****************
 12970 ;; Defined at:
 12971 ;;		line 61 in file "D:\ELECTRONIC\2016\1. Automated Solar Panel Orientation Setter\Firmware\ver4\lcdV2.h"
 12972 ;; Parameters:    Size  Location     Type
 12973 ;;		None
 12974 ;; Auto vars:     Size  Location     Type
 12975 ;;  DelayLCD        2    5[BANK0 ] unsigned int 
 12976 ;; Return value:  Size  Location     Type
 12977 ;;		None               void
 12978 ;; Registers used:
 12979 ;;		wreg, status,2
 12980 ;; Tracked objects:
 12981 ;;		On entry : 0/0
 12982 ;;		On exit  : 0/0
 12983 ;;		Unchanged: 0/0
 12984 ;; Data sizes:     COMMON   BANK0   BANK1   BANK3   BANK2
 12985 ;;      Params:         0       0       0       0       0
 12986 ;;      Locals:         0       2       0       0       0
 12987 ;;      Temps:          0       0       0       0       0
 12988 ;;      Totals:         0       2       0       0       0
 12989 ;;Total ram usage:        2 bytes
 12990 ;; Hardware stack levels used:    1
 12991 ;; Hardware stack levels required when called:    4
 12992 ;; This function calls:
 12993 ;;		Nothing
 12994 ;; This function is called by:
 12995 ;;		_main
 12996 ;; This function uses a non-reentrant model
 12997 ;;
 12998                           psect	text1519
 12999                           	file	"D:\ELECTRONIC\2016\1. Automated Solar Panel Orientation Setter\Firmware\ver4\lcdV
                                 2.h"
 13000                           	line	61
 13001                           	global	__size_of_lcd_init
 13002  00D2                     	__size_of_lcd_init	equ	__end_of_lcd_init-_lcd_init
 13003                           	
 13004  1227                     _lcd_init:	
 13005                           	opt	stack 3
 13006                           ; Regs used in _lcd_init: [wreg+status,2]
 13007                           	line	63
 13008                           	
 13009  1227                     l8822:	
 13010                           ;lcdV2.h: 63: RC3 = 0;
 13011  1227  1283               	bcf	status, 5	;RP0=0, select bank0
 13012  1228  1303               	bcf	status, 6	;RP1=0, select bank0
 13013  1229  1187               	bcf	(59/8),(59)&7
 13014                           	line	67
 13015                           ;lcdV2.h: 65: unsigned int DelayLCD;
 13016                           ;lcdV2.h: 67: RC2 = 0;
 13017  122A  1107               	bcf	(58/8),(58)&7
 13018                           	line	68
 13019                           ;lcdV2.h: 68: RD1 = 0;
 13020  122B  1088               	bcf	(65/8),(65)&7
 13021                           	line	69
 13022                           ;lcdV2.h: 69: RC0 = 0;
 13023  122C  1007               	bcf	(56/8),(56)&7
 13024                           	line	70
 13025                           ;lcdV2.h: 70: RD0 = 1;
 13026  122D  1408               	bsf	(64/8),(64)&7
 13027                           	line	71
 13028                           ;lcdV2.h: 71: RC1 = 0;
 13029  122E  1087               	bcf	(57/8),(57)&7
 13030                           	line	72
 13031                           ;lcdV2.h: 72: RC3 = 1;
 13032  122F  1587               	bsf	(59/8),(59)&7
 13033                           	line	73
 13034                           ;lcdV2.h: 73: RC3 = 0;
 13035  1230  1187               	bcf	(59/8),(59)&7
 13036                           	line	74
 13037                           ;lcdV2.h: 74: RD1 = 1;
 13038  1231  1488               	bsf	(65/8),(65)&7
 13039                           	line	75
 13040                           ;lcdV2.h: 75: RC0 = 0;
 13041  1232  1007               	bcf	(56/8),(56)&7
 13042                           	line	76
 13043                           ;lcdV2.h: 76: RD0 = 0;
 13044  1233  1008               	bcf	(64/8),(64)&7
 13045                           	line	77
 13046                           ;lcdV2.h: 77: RC1 = 0;
 13047  1234  1087               	bcf	(57/8),(57)&7
 13048                           	line	78
 13049                           ;lcdV2.h: 78: RC3 = 1;
 13050  1235  1587               	bsf	(59/8),(59)&7
 13051                           	line	79
 13052                           ;lcdV2.h: 79: RC3 = 0;
 13053  1236  1187               	bcf	(59/8),(59)&7
 13054                           	line	80
 13055                           	
 13056  1237                     l8824:	
 13057                           ;lcdV2.h: 80: for(DelayLCD=0;DelayLCD<2500;DelayLCD++);
 13058  1237  01A5               	clrf	(lcd_init@DelayLCD)
 13059  1238  01A6               	clrf	(lcd_init@DelayLCD+1)
 13060                           	
 13061  1239                     l8826:	
 13062  1239  3009               	movlw	high(09C4h)
 13063  123A  0226               	subwf	(lcd_init@DelayLCD+1),w
 13064  123B  30C4               	movlw	low(09C4h)
 13065  123C  1903               	skipnz
 13066  123D  0225               	subwf	(lcd_init@DelayLCD),w
 13067  123E  1C03               	skipc
 13068  123F  2A41               	goto	u9391
 13069  1240  2A42               	goto	u9390
 13070  1241                     u9391:
 13071  1241  2A44               	goto	l8830
 13072  1242                     u9390:
 13073  1242  2A53               	goto	l804
 13074                           	
 13075  1243                     l8828:	
 13076  1243  2A53               	goto	l804
 13077                           	
 13078  1244                     l803:	
 13079                           	
 13080  1244                     l8830:	
 13081  1244  3001               	movlw	low(01h)
 13082  1245  07A5               	addwf	(lcd_init@DelayLCD),f
 13083  1246  1803               	skipnc
 13084  1247  0AA6               	incf	(lcd_init@DelayLCD+1),f
 13085  1248  3000               	movlw	high(01h)
 13086  1249  07A6               	addwf	(lcd_init@DelayLCD+1),f
 13087  124A  3009               	movlw	high(09C4h)
 13088  124B  0226               	subwf	(lcd_init@DelayLCD+1),w
 13089  124C  30C4               	movlw	low(09C4h)
 13090  124D  1903               	skipnz
 13091  124E  0225               	subwf	(lcd_init@DelayLCD),w
 13092  124F  1C03               	skipc
 13093  1250  2A52               	goto	u9401
 13094  1251  2A53               	goto	u9400
 13095  1252                     u9401:
 13096  1252  2A44               	goto	l8830
 13097  1253                     u9400:
 13098                           	
 13099  1253                     l804:	
 13100                           	line	83
 13101                           ;lcdV2.h: 83: RC2 = 0;
 13102  1253  1107               	bcf	(58/8),(58)&7
 13103                           	line	84
 13104                           ;lcdV2.h: 84: RD1 = 0;
 13105  1254  1088               	bcf	(65/8),(65)&7
 13106                           	line	85
 13107                           ;lcdV2.h: 85: RC0 = 0;
 13108  1255  1007               	bcf	(56/8),(56)&7
 13109                           	line	86
 13110                           ;lcdV2.h: 86: RD0 = 1;
 13111  1256  1408               	bsf	(64/8),(64)&7
 13112                           	line	87
 13113                           ;lcdV2.h: 87: RC1 = 0;
 13114  1257  1087               	bcf	(57/8),(57)&7
 13115                           	line	88
 13116                           ;lcdV2.h: 88: RC3 = 1;
 13117  1258  1587               	bsf	(59/8),(59)&7
 13118                           	line	89
 13119                           ;lcdV2.h: 89: RC3 = 0;
 13120  1259  1187               	bcf	(59/8),(59)&7
 13121                           	line	90
 13122                           ;lcdV2.h: 90: RD1 = 1;
 13123  125A  1488               	bsf	(65/8),(65)&7
 13124                           	line	91
 13125                           ;lcdV2.h: 91: RC0 = 0;
 13126  125B  1007               	bcf	(56/8),(56)&7
 13127                           	line	92
 13128                           ;lcdV2.h: 92: RD0 = 0;
 13129  125C  1008               	bcf	(64/8),(64)&7
 13130                           	line	93
 13131                           ;lcdV2.h: 93: RC1 = 0;
 13132  125D  1087               	bcf	(57/8),(57)&7
 13133                           	line	94
 13134                           ;lcdV2.h: 94: RC3 = 1;
 13135  125E  1587               	bsf	(59/8),(59)&7
 13136                           	line	95
 13137                           ;lcdV2.h: 95: RC3 = 0;
 13138  125F  1187               	bcf	(59/8),(59)&7
 13139                           	line	96
 13140                           	
 13141  1260                     l8832:	
 13142                           ;lcdV2.h: 96: for(DelayLCD=0;DelayLCD<2500;DelayLCD++);
 13143  1260  01A5               	clrf	(lcd_init@DelayLCD)
 13144  1261  01A6               	clrf	(lcd_init@DelayLCD+1)
 13145                           	
 13146  1262                     l8834:	
 13147  1262  3009               	movlw	high(09C4h)
 13148  1263  0226               	subwf	(lcd_init@DelayLCD+1),w
 13149  1264  30C4               	movlw	low(09C4h)
 13150  1265  1903               	skipnz
 13151  1266  0225               	subwf	(lcd_init@DelayLCD),w
 13152  1267  1C03               	skipc
 13153  1268  2A6A               	goto	u9411
 13154  1269  2A6B               	goto	u9410
 13155  126A                     u9411:
 13156  126A  2A6D               	goto	l8838
 13157  126B                     u9410:
 13158  126B  2A7C               	goto	l806
 13159                           	
 13160  126C                     l8836:	
 13161  126C  2A7C               	goto	l806
 13162                           	
 13163  126D                     l805:	
 13164                           	
 13165  126D                     l8838:	
 13166  126D  3001               	movlw	low(01h)
 13167  126E  07A5               	addwf	(lcd_init@DelayLCD),f
 13168  126F  1803               	skipnc
 13169  1270  0AA6               	incf	(lcd_init@DelayLCD+1),f
 13170  1271  3000               	movlw	high(01h)
 13171  1272  07A6               	addwf	(lcd_init@DelayLCD+1),f
 13172  1273  3009               	movlw	high(09C4h)
 13173  1274  0226               	subwf	(lcd_init@DelayLCD+1),w
 13174  1275  30C4               	movlw	low(09C4h)
 13175  1276  1903               	skipnz
 13176  1277  0225               	subwf	(lcd_init@DelayLCD),w
 13177  1278  1C03               	skipc
 13178  1279  2A7B               	goto	u9421
 13179  127A  2A7C               	goto	u9420
 13180  127B                     u9421:
 13181  127B  2A6D               	goto	l8838
 13182  127C                     u9420:
 13183                           	
 13184  127C                     l806:	
 13185                           	line	99
 13186                           ;lcdV2.h: 99: RC2 = 0;
 13187  127C  1107               	bcf	(58/8),(58)&7
 13188                           	line	100
 13189                           ;lcdV2.h: 100: RD1 = 0;
 13190  127D  1088               	bcf	(65/8),(65)&7
 13191                           	line	101
 13192                           ;lcdV2.h: 101: RC0 = 0;
 13193  127E  1007               	bcf	(56/8),(56)&7
 13194                           	line	102
 13195                           ;lcdV2.h: 102: RD0 = 0;
 13196  127F  1008               	bcf	(64/8),(64)&7
 13197                           	line	103
 13198                           ;lcdV2.h: 103: RC1 = 0;
 13199  1280  1087               	bcf	(57/8),(57)&7
 13200                           	line	104
 13201                           ;lcdV2.h: 104: RC3 = 1;
 13202  1281  1587               	bsf	(59/8),(59)&7
 13203                           	line	105
 13204                           ;lcdV2.h: 105: RC3 = 0;
 13205  1282  1187               	bcf	(59/8),(59)&7
 13206                           	line	106
 13207                           ;lcdV2.h: 106: RD1 = 0;
 13208  1283  1088               	bcf	(65/8),(65)&7
 13209                           	line	107
 13210                           ;lcdV2.h: 107: RC0 = 1;
 13211  1284  1407               	bsf	(56/8),(56)&7
 13212                           	line	108
 13213                           ;lcdV2.h: 108: RD0 = 1;
 13214  1285  1408               	bsf	(64/8),(64)&7
 13215                           	line	109
 13216                           ;lcdV2.h: 109: RC1 = 0;
 13217  1286  1087               	bcf	(57/8),(57)&7
 13218                           	line	110
 13219                           ;lcdV2.h: 110: RC3 = 1;
 13220  1287  1587               	bsf	(59/8),(59)&7
 13221                           	line	111
 13222                           ;lcdV2.h: 111: RC3 = 0;
 13223  1288  1187               	bcf	(59/8),(59)&7
 13224                           	line	112
 13225                           	
 13226  1289                     l8840:	
 13227                           ;lcdV2.h: 112: for(DelayLCD=0;DelayLCD<2500;DelayLCD++);
 13228  1289  01A5               	clrf	(lcd_init@DelayLCD)
 13229  128A  01A6               	clrf	(lcd_init@DelayLCD+1)
 13230                           	
 13231  128B                     l8842:	
 13232  128B  3009               	movlw	high(09C4h)
 13233  128C  0226               	subwf	(lcd_init@DelayLCD+1),w
 13234  128D  30C4               	movlw	low(09C4h)
 13235  128E  1903               	skipnz
 13236  128F  0225               	subwf	(lcd_init@DelayLCD),w
 13237  1290  1C03               	skipc
 13238  1291  2A93               	goto	u9431
 13239  1292  2A94               	goto	u9430
 13240  1293                     u9431:
 13241  1293  2A96               	goto	l8846
 13242  1294                     u9430:
 13243  1294  2AA5               	goto	l808
 13244                           	
 13245  1295                     l8844:	
 13246  1295  2AA5               	goto	l808
 13247                           	
 13248  1296                     l807:	
 13249                           	
 13250  1296                     l8846:	
 13251  1296  3001               	movlw	low(01h)
 13252  1297  07A5               	addwf	(lcd_init@DelayLCD),f
 13253  1298  1803               	skipnc
 13254  1299  0AA6               	incf	(lcd_init@DelayLCD+1),f
 13255  129A  3000               	movlw	high(01h)
 13256  129B  07A6               	addwf	(lcd_init@DelayLCD+1),f
 13257  129C  3009               	movlw	high(09C4h)
 13258  129D  0226               	subwf	(lcd_init@DelayLCD+1),w
 13259  129E  30C4               	movlw	low(09C4h)
 13260  129F  1903               	skipnz
 13261  12A0  0225               	subwf	(lcd_init@DelayLCD),w
 13262  12A1  1C03               	skipc
 13263  12A2  2AA4               	goto	u9441
 13264  12A3  2AA5               	goto	u9440
 13265  12A4                     u9441:
 13266  12A4  2A96               	goto	l8846
 13267  12A5                     u9440:
 13268                           	
 13269  12A5                     l808:	
 13270                           	line	115
 13271                           ;lcdV2.h: 115: RC2 = 0;
 13272  12A5  1107               	bcf	(58/8),(58)&7
 13273                           	line	116
 13274                           ;lcdV2.h: 116: RD1 = 0;
 13275  12A6  1088               	bcf	(65/8),(65)&7
 13276                           	line	117
 13277                           ;lcdV2.h: 117: RC0 = 0;
 13278  12A7  1007               	bcf	(56/8),(56)&7
 13279                           	line	118
 13280                           ;lcdV2.h: 118: RD0 = 0;
 13281  12A8  1008               	bcf	(64/8),(64)&7
 13282                           	line	119
 13283                           ;lcdV2.h: 119: RC1 = 0;
 13284  12A9  1087               	bcf	(57/8),(57)&7
 13285                           	line	120
 13286                           ;lcdV2.h: 120: RC3 = 1;
 13287  12AA  1587               	bsf	(59/8),(59)&7
 13288                           	line	121
 13289                           ;lcdV2.h: 121: RC3 = 0;
 13290  12AB  1187               	bcf	(59/8),(59)&7
 13291                           	line	122
 13292                           ;lcdV2.h: 122: RD1 = 1;
 13293  12AC  1488               	bsf	(65/8),(65)&7
 13294                           	line	123
 13295                           ;lcdV2.h: 123: RC0 = 1;
 13296  12AD  1407               	bsf	(56/8),(56)&7
 13297                           	line	124
 13298                           ;lcdV2.h: 124: RD0 = 0;
 13299  12AE  1008               	bcf	(64/8),(64)&7
 13300                           	line	125
 13301                           ;lcdV2.h: 125: RC1 = 0;
 13302  12AF  1087               	bcf	(57/8),(57)&7
 13303                           	line	126
 13304                           ;lcdV2.h: 126: RC3 = 1;
 13305  12B0  1587               	bsf	(59/8),(59)&7
 13306                           	line	127
 13307                           ;lcdV2.h: 127: RC3 = 0;
 13308  12B1  1187               	bcf	(59/8),(59)&7
 13309                           	line	128
 13310                           	
 13311  12B2                     l8848:	
 13312                           ;lcdV2.h: 128: for(DelayLCD=0;DelayLCD<2500;DelayLCD++);
 13313  12B2  01A5               	clrf	(lcd_init@DelayLCD)
 13314  12B3  01A6               	clrf	(lcd_init@DelayLCD+1)
 13315                           	
 13316  12B4                     l8850:	
 13317  12B4  3009               	movlw	high(09C4h)
 13318  12B5  0226               	subwf	(lcd_init@DelayLCD+1),w
 13319  12B6  30C4               	movlw	low(09C4h)
 13320  12B7  1903               	skipnz
 13321  12B8  0225               	subwf	(lcd_init@DelayLCD),w
 13322  12B9  1C03               	skipc
 13323  12BA  2ABC               	goto	u9451
 13324  12BB  2ABD               	goto	u9450
 13325  12BC                     u9451:
 13326  12BC  2ABF               	goto	l8854
 13327  12BD                     u9450:
 13328  12BD  2ACE               	goto	l810
 13329                           	
 13330  12BE                     l8852:	
 13331  12BE  2ACE               	goto	l810
 13332                           	
 13333  12BF                     l809:	
 13334                           	
 13335  12BF                     l8854:	
 13336  12BF  3001               	movlw	low(01h)
 13337  12C0  07A5               	addwf	(lcd_init@DelayLCD),f
 13338  12C1  1803               	skipnc
 13339  12C2  0AA6               	incf	(lcd_init@DelayLCD+1),f
 13340  12C3  3000               	movlw	high(01h)
 13341  12C4  07A6               	addwf	(lcd_init@DelayLCD+1),f
 13342  12C5  3009               	movlw	high(09C4h)
 13343  12C6  0226               	subwf	(lcd_init@DelayLCD+1),w
 13344  12C7  30C4               	movlw	low(09C4h)
 13345  12C8  1903               	skipnz
 13346  12C9  0225               	subwf	(lcd_init@DelayLCD),w
 13347  12CA  1C03               	skipc
 13348  12CB  2ACD               	goto	u9461
 13349  12CC  2ACE               	goto	u9460
 13350  12CD                     u9461:
 13351  12CD  2ABF               	goto	l8854
 13352  12CE                     u9460:
 13353                           	
 13354  12CE                     l810:	
 13355                           	line	131
 13356                           ;lcdV2.h: 131: RC2 = 0;
 13357  12CE  1107               	bcf	(58/8),(58)&7
 13358                           	line	132
 13359                           ;lcdV2.h: 132: RD1 = 0;
 13360  12CF  1088               	bcf	(65/8),(65)&7
 13361                           	line	133
 13362                           ;lcdV2.h: 133: RC0 = 0;
 13363  12D0  1007               	bcf	(56/8),(56)&7
 13364                           	line	134
 13365                           ;lcdV2.h: 134: RD0 = 0;
 13366  12D1  1008               	bcf	(64/8),(64)&7
 13367                           	line	135
 13368                           ;lcdV2.h: 135: RC1 = 0;
 13369  12D2  1087               	bcf	(57/8),(57)&7
 13370                           	line	136
 13371                           ;lcdV2.h: 136: RC3 = 1;
 13372  12D3  1587               	bsf	(59/8),(59)&7
 13373                           	line	137
 13374                           ;lcdV2.h: 137: RC3 = 0;
 13375  12D4  1187               	bcf	(59/8),(59)&7
 13376                           	line	138
 13377                           ;lcdV2.h: 138: RD1 = 0;
 13378  12D5  1088               	bcf	(65/8),(65)&7
 13379                           	line	139
 13380                           ;lcdV2.h: 139: RC0 = 0;
 13381  12D6  1007               	bcf	(56/8),(56)&7
 13382                           	line	140
 13383                           ;lcdV2.h: 140: RD0 = 0;
 13384  12D7  1008               	bcf	(64/8),(64)&7
 13385                           	line	141
 13386                           ;lcdV2.h: 141: RC1 = 1;
 13387  12D8  1487               	bsf	(57/8),(57)&7
 13388                           	line	142
 13389                           ;lcdV2.h: 142: RC3 = 1;
 13390  12D9  1587               	bsf	(59/8),(59)&7
 13391                           	line	143
 13392                           ;lcdV2.h: 143: RC3 = 0;
 13393  12DA  1187               	bcf	(59/8),(59)&7
 13394                           	line	144
 13395                           	
 13396  12DB                     l8856:	
 13397                           ;lcdV2.h: 144: for(DelayLCD=0;DelayLCD<2500;DelayLCD++);
 13398  12DB  01A5               	clrf	(lcd_init@DelayLCD)
 13399  12DC  01A6               	clrf	(lcd_init@DelayLCD+1)
 13400                           	
 13401  12DD                     l8858:	
 13402  12DD  3009               	movlw	high(09C4h)
 13403  12DE  0226               	subwf	(lcd_init@DelayLCD+1),w
 13404  12DF  30C4               	movlw	low(09C4h)
 13405  12E0  1903               	skipnz
 13406  12E1  0225               	subwf	(lcd_init@DelayLCD),w
 13407  12E2  1C03               	skipc
 13408  12E3  2AE5               	goto	u9471
 13409  12E4  2AE6               	goto	u9470
 13410  12E5                     u9471:
 13411  12E5  2AE8               	goto	l8862
 13412  12E6                     u9470:
 13413  12E6  2AF8               	goto	l813
 13414                           	
 13415  12E7                     l8860:	
 13416  12E7  2AF8               	goto	l813
 13417                           	
 13418  12E8                     l811:	
 13419                           	
 13420  12E8                     l8862:	
 13421  12E8  3001               	movlw	low(01h)
 13422  12E9  07A5               	addwf	(lcd_init@DelayLCD),f
 13423  12EA  1803               	skipnc
 13424  12EB  0AA6               	incf	(lcd_init@DelayLCD+1),f
 13425  12EC  3000               	movlw	high(01h)
 13426  12ED  07A6               	addwf	(lcd_init@DelayLCD+1),f
 13427  12EE  3009               	movlw	high(09C4h)
 13428  12EF  0226               	subwf	(lcd_init@DelayLCD+1),w
 13429  12F0  30C4               	movlw	low(09C4h)
 13430  12F1  1903               	skipnz
 13431  12F2  0225               	subwf	(lcd_init@DelayLCD),w
 13432  12F3  1C03               	skipc
 13433  12F4  2AF6               	goto	u9481
 13434  12F5  2AF7               	goto	u9480
 13435  12F6                     u9481:
 13436  12F6  2AE8               	goto	l8862
 13437  12F7                     u9480:
 13438  12F7  2AF8               	goto	l813
 13439                           	
 13440  12F8                     l812:	
 13441                           	line	147
 13442                           	
 13443  12F8                     l813:	
 13444  12F8  0008               	return
 13445                           	opt stack 0
 13446                           GLOBAL	__end_of_lcd_init
 13447  12F9                     	__end_of_lcd_init:
 13448 ;; =============== function _lcd_init ends ============
 13449                           
 13450                           	signat	_lcd_init,88
 13451                           	global	_Setup_IOports
 13452                           psect	text1520,local,class=CODE,delta=2
 13453                           global __ptext1520
 13454  1BE7                     __ptext1520:
 13455                           
 13456 ;; *************** function _Setup_IOports *****************
 13457 ;; Defined at:
 13458 ;;		line 56 in file "D:\ELECTRONIC\2016\1. Automated Solar Panel Orientation Setter\Firmware\ver4\setup.h"
 13459 ;; Parameters:    Size  Location     Type
 13460 ;;		None
 13461 ;; Auto vars:     Size  Location     Type
 13462 ;;		None
 13463 ;; Return value:  Size  Location     Type
 13464 ;;		None               void
 13465 ;; Registers used:
 13466 ;;		wreg, status,2
 13467 ;; Tracked objects:
 13468 ;;		On entry : 0/0
 13469 ;;		On exit  : 0/0
 13470 ;;		Unchanged: 0/0
 13471 ;; Data sizes:     COMMON   BANK0   BANK1   BANK3   BANK2
 13472 ;;      Params:         0       0       0       0       0
 13473 ;;      Locals:         0       0       0       0       0
 13474 ;;      Temps:          0       0       0       0       0
 13475 ;;      Totals:         0       0       0       0       0
 13476 ;;Total ram usage:        0 bytes
 13477 ;; Hardware stack levels used:    1
 13478 ;; Hardware stack levels required when called:    4
 13479 ;; This function calls:
 13480 ;;		Nothing
 13481 ;; This function is called by:
 13482 ;;		_main
 13483 ;; This function uses a non-reentrant model
 13484 ;;
 13485                           psect	text1520
 13486                           	file	"D:\ELECTRONIC\2016\1. Automated Solar Panel Orientation Setter\Firmware\ver4\setu
                                 p.h"
 13487                           	line	56
 13488                           	global	__size_of_Setup_IOports
 13489  0024                     	__size_of_Setup_IOports	equ	__end_of_Setup_IOports-_Setup_IOports
 13490                           	
 13491  1BE7                     _Setup_IOports:	
 13492                           	opt	stack 3
 13493                           ; Regs used in _Setup_IOports: [wreg+status,2]
 13494                           	line	58
 13495                           	
 13496  1BE7                     l8808:	
 13497                           ;setup.h: 58: TRISA = 0b11111111;
 13498  1BE7  30FF               	movlw	(0FFh)
 13499  1BE8  1683               	bsf	status, 5	;RP0=1, select bank1
 13500  1BE9  1303               	bcf	status, 6	;RP1=0, select bank1
 13501  1BEA  0085               	movwf	(133)^080h	;volatile
 13502                           	line	59
 13503                           	
 13504  1BEB                     l8810:	
 13505                           ;setup.h: 59: PORTA = 0b00000000;
 13506  1BEB  1283               	bcf	status, 5	;RP0=0, select bank0
 13507  1BEC  1303               	bcf	status, 6	;RP1=0, select bank0
 13508  1BED  0185               	clrf	(5)	;volatile
 13509                           	line	61
 13510                           	
 13511  1BEE                     l8812:	
 13512                           ;setup.h: 61: TRISB = 0b11000000;
 13513  1BEE  30C0               	movlw	(0C0h)
 13514  1BEF  1683               	bsf	status, 5	;RP0=1, select bank1
 13515  1BF0  1303               	bcf	status, 6	;RP1=0, select bank1
 13516  1BF1  0086               	movwf	(134)^080h	;volatile
 13517                           	line	62
 13518                           ;setup.h: 62: PORTB = 0b00000000;
 13519  1BF2  1283               	bcf	status, 5	;RP0=0, select bank0
 13520  1BF3  1303               	bcf	status, 6	;RP1=0, select bank0
 13521  1BF4  0186               	clrf	(6)	;volatile
 13522                           	line	64
 13523                           	
 13524  1BF5                     l8814:	
 13525                           ;setup.h: 64: TRISC = 0b10000000;
 13526  1BF5  3080               	movlw	(080h)
 13527  1BF6  1683               	bsf	status, 5	;RP0=1, select bank1
 13528  1BF7  1303               	bcf	status, 6	;RP1=0, select bank1
 13529  1BF8  0087               	movwf	(135)^080h	;volatile
 13530                           	line	65
 13531                           	
 13532  1BF9                     l8816:	
 13533                           ;setup.h: 65: PORTC = 0b00000000;
 13534  1BF9  1283               	bcf	status, 5	;RP0=0, select bank0
 13535  1BFA  1303               	bcf	status, 6	;RP1=0, select bank0
 13536  1BFB  0187               	clrf	(7)	;volatile
 13537                           	line	67
 13538                           ;setup.h: 67: TRISD = 0b11001100;
 13539  1BFC  30CC               	movlw	(0CCh)
 13540  1BFD  1683               	bsf	status, 5	;RP0=1, select bank1
 13541  1BFE  1303               	bcf	status, 6	;RP1=0, select bank1
 13542  1BFF  0088               	movwf	(136)^080h	;volatile
 13543                           	line	68
 13544                           	
 13545  1C00                     l8818:	
 13546                           ;setup.h: 68: PORTD = 0b00000000;
 13547  1C00  1283               	bcf	status, 5	;RP0=0, select bank0
 13548  1C01  1303               	bcf	status, 6	;RP1=0, select bank0
 13549  1C02  0188               	clrf	(8)	;volatile
 13550                           	line	70
 13551                           	
 13552  1C03                     l8820:	
 13553                           ;setup.h: 70: TRISE = 0b10000000;
 13554  1C03  3080               	movlw	(080h)
 13555  1C04  1683               	bsf	status, 5	;RP0=1, select bank1
 13556  1C05  1303               	bcf	status, 6	;RP1=0, select bank1
 13557  1C06  0089               	movwf	(137)^080h	;volatile
 13558                           	line	71
 13559                           ;setup.h: 71: PORTE = 0b00000000;
 13560  1C07  1283               	bcf	status, 5	;RP0=0, select bank0
 13561  1C08  1303               	bcf	status, 6	;RP1=0, select bank0
 13562  1C09  0189               	clrf	(9)	;volatile
 13563                           	line	72
 13564                           	
 13565  1C0A                     l800:	
 13566  1C0A  0008               	return
 13567                           	opt stack 0
 13568                           GLOBAL	__end_of_Setup_IOports
 13569  1C0B                     	__end_of_Setup_IOports:
 13570 ;; =============== function _Setup_IOports ends ============
 13571                           
 13572                           	signat	_Setup_IOports,88
 13573                           	global	_nop
 13574                           psect	text1521,local,class=CODE,delta=2
 13575                           global __ptext1521
 13576  1AD5                     __ptext1521:
 13577                           
 13578 ;; *************** function _nop *****************
 13579 ;; Defined at:
 13580 ;;		line 50 in file "D:\ELECTRONIC\2016\1. Automated Solar Panel Orientation Setter\Firmware\ver4\setup.h"
 13581 ;; Parameters:    Size  Location     Type
 13582 ;;		None
 13583 ;; Auto vars:     Size  Location     Type
 13584 ;;		None
 13585 ;; Return value:  Size  Location     Type
 13586 ;;		None               void
 13587 ;; Registers used:
 13588 ;;		wreg
 13589 ;; Tracked objects:
 13590 ;;		On entry : 0/0
 13591 ;;		On exit  : 0/0
 13592 ;;		Unchanged: 0/0
 13593 ;; Data sizes:     COMMON   BANK0   BANK1   BANK3   BANK2
 13594 ;;      Params:         0       0       0       0       0
 13595 ;;      Locals:         0       0       0       0       0
 13596 ;;      Temps:          0       0       0       0       0
 13597 ;;      Totals:         0       0       0       0       0
 13598 ;;Total ram usage:        0 bytes
 13599 ;; Hardware stack levels used:    1
 13600 ;; Hardware stack levels required when called:    4
 13601 ;; This function calls:
 13602 ;;		Nothing
 13603 ;; This function is called by:
 13604 ;;		_main
 13605 ;;		_CheckMode
 13606 ;;		_KeyToSerial
 13607 ;;		_check_pc
 13608 ;; This function uses a non-reentrant model
 13609 ;;
 13610                           psect	text1521
 13611                           	file	"D:\ELECTRONIC\2016\1. Automated Solar Panel Orientation Setter\Firmware\ver4\setu
                                 p.h"
 13612                           	line	50
 13613                           	global	__size_of_nop
 13614  0005                     	__size_of_nop	equ	__end_of_nop-_nop
 13615                           	
 13616  1AD5                     _nop:	
 13617                           	opt	stack 2
 13618                           ; Regs used in _nop: [wreg]
 13619                           	line	51
 13620                           	
 13621  1AD5                     l8806:	
 13622                           ;setup.h: 51: Nop = !Nop;
 13623  1AD5  3002               	movlw	1<<((_Nop)&7)
 13624  1AD6  1283               	bcf	status, 5	;RP0=0, select bank0
 13625  1AD7  1303               	bcf	status, 6	;RP1=0, select bank0
 13626  1AD8  06E6               	xorwf	((_Nop)/8),f
 13627                           	line	52
 13628                           	
 13629  1AD9                     l797:	
 13630  1AD9  0008               	return
 13631                           	opt stack 0
 13632                           GLOBAL	__end_of_nop
 13633  1ADA                     	__end_of_nop:
 13634 ;; =============== function _nop ends ============
 13635                           
 13636                           	signat	_nop,88
 13637                           	global	_isr
 13638                           psect	text1522,local,class=CODE,delta=2
 13639                           global __ptext1522
 13640  15E6                     __ptext1522:
 13641                           
 13642 ;; *************** function _isr *****************
 13643 ;; Defined at:
 13644 ;;		line 438 in file "D:\ELECTRONIC\2016\1. Automated Solar Panel Orientation Setter\Firmware\ver4\Automated Solar Panel
        Orientation Setter.c"
 13645 ;; Parameters:    Size  Location     Type
 13646 ;;		None
 13647 ;; Auto vars:     Size  Location     Type
 13648 ;;		None
 13649 ;; Return value:  Size  Location     Type
 13650 ;;		None               void
 13651 ;; Registers used:
 13652 ;;		wreg, fsr0l, fsr0h, status,2, status,0, pclath, cstack
 13653 ;; Tracked objects:
 13654 ;;		On entry : 0/0
 13655 ;;		On exit  : 0/0
 13656 ;;		Unchanged: 0/0
 13657 ;; Data sizes:     COMMON   BANK0   BANK1   BANK3   BANK2
 13658 ;;      Params:         0       0       0       0       0
 13659 ;;      Locals:         0       0       0       0       0
 13660 ;;      Temps:          0       5       0       0       0
 13661 ;;      Totals:         0       5       0       0       0
 13662 ;;Total ram usage:        5 bytes
 13663 ;; Hardware stack levels used:    1
 13664 ;; Hardware stack levels required when called:    3
 13665 ;; This function calls:
 13666 ;;		i1_LCD_print_char
 13667 ;;		i1___lwmod
 13668 ;; This function is called by:
 13669 ;;		Interrupt level 1
 13670 ;; This function uses a non-reentrant model
 13671 ;;
 13672                           psect	text1522
 13673                           	file	"D:\ELECTRONIC\2016\1. Automated Solar Panel Orientation Setter\Firmware\ver4\Auto
                                 mated Solar Panel Orientation Setter.c"
 13674                           	line	438
 13675                           	global	__size_of_isr
 13676  010D                     	__size_of_isr	equ	__end_of_isr-_isr
 13677                           	
 13678  15E6                     _isr:	
 13679                           	opt	stack 0
 13680                           ; Regs used in _isr: [wreg-fsr0h+status,2+status,0+pclath+cstack]
 13681                           psect	intentry,class=CODE,delta=2
 13682                           global __pintentry
 13683  0004                     __pintentry:
 13684                           global interrupt_function
 13685  0004                     interrupt_function:
 13686                           	global saved_w
 13687  007E                     	saved_w	set	btemp+0
 13688  0004  00FE               	movwf	saved_w
 13689  0005  0E03               	swapf	status,w
 13690  0006  1283               	bcf	status, 5	;RP0=0, select bank0
 13691  0007  1303               	bcf	status, 6	;RP1=0, select bank0
 13692  0008  00A1               	movwf	(??_isr+1)
 13693  0009  0804               	movf	fsr0,w
 13694  000A  00A2               	movwf	(??_isr+2)
 13695  000B  080A               	movf	pclath,w
 13696  000C  00A3               	movwf	(??_isr+3)
 13697  000D  087F               	movf	btemp+1,w
 13698  000E  00A4               	movwf	(??_isr+4)
 13699  000F  160A  118A  2DE6   	ljmp	_isr
 13700                           psect	text1522
 13701                           	line	439
 13702                           	
 13703  15E6                     i1l7178:	
 13704                           ;Automated Solar Panel Orientation Setter.c: 439: if(TMR1IF==1){
 13705  15E6  1C0C               	btfss	(96/8),(96)&7
 13706  15E7  2DE9               	goto	u607_21
 13707  15E8  2DEA               	goto	u607_20
 13708  15E9                     u607_21:
 13709  15E9  2EA0               	goto	i1l7218
 13710  15EA                     u607_20:
 13711                           	line	440
 13712                           	
 13713  15EA                     i1l7180:	
 13714                           ;Automated Solar Panel Orientation Setter.c: 440: msecond ++;
 13715  15EA  3001               	movlw	low(01h)
 13716  15EB  1683               	bsf	status, 5	;RP0=1, select bank1
 13717  15EC  1303               	bcf	status, 6	;RP1=0, select bank1
 13718  15ED  07C4               	addwf	(_msecond)^080h,f
 13719  15EE  1803               	skipnc
 13720  15EF  0AC5               	incf	(_msecond+1)^080h,f
 13721  15F0  3000               	movlw	high(01h)
 13722  15F1  07C5               	addwf	(_msecond+1)^080h,f
 13723                           	line	441
 13724                           ;Automated Solar Panel Orientation Setter.c: 441: if(msecond == 50){
 13725  15F2  3032               	movlw	032h
 13726  15F3  0644               	xorwf	(_msecond)^080h,w
 13727  15F4  0445               	iorwf	(_msecond+1)^080h,w
 13728  15F5  1D03               	skipz
 13729  15F6  2DF8               	goto	u608_21
 13730  15F7  2DF9               	goto	u608_20
 13731  15F8                     u608_21:
 13732  15F8  2E99               	goto	i1l1144
 13733  15F9                     u608_20:
 13734                           	line	442
 13735                           	
 13736  15F9                     i1l7182:	
 13737                           ;Automated Solar Panel Orientation Setter.c: 442: second ++;
 13738  15F9  3001               	movlw	low(01h)
 13739  15FA  07C6               	addwf	(_second)^080h,f
 13740  15FB  1803               	skipnc
 13741  15FC  0AC7               	incf	(_second+1)^080h,f
 13742  15FD  3000               	movlw	high(01h)
 13743  15FE  07C7               	addwf	(_second+1)^080h,f
 13744                           	line	445
 13745                           	
 13746  15FF                     i1l7184:	
 13747                           ;Automated Solar Panel Orientation Setter.c: 445: if(BlinkDet) LCD_print_char(2,14,':');
 13748  15FF  1283               	bcf	status, 5	;RP0=0, select bank0
 13749  1600  1303               	bcf	status, 6	;RP1=0, select bank0
 13750  1601  1C66               	btfss	(_BlinkDet/8),(_BlinkDet)&7
 13751  1602  2E04               	goto	u609_21
 13752  1603  2E05               	goto	u609_20
 13753  1604                     u609_21:
 13754  1604  2E17               	goto	i1l7188
 13755  1605                     u609_20:
 13756                           	
 13757  1605                     i1l7186:	
 13758  1605  3002               	movlw	low(02h)
 13759  1606  00F8               	movwf	(?i1_LCD_print_char)
 13760  1607  3000               	movlw	high(02h)
 13761  1608  00F9               	movwf	((?i1_LCD_print_char))+1
 13762  1609  300E               	movlw	low(0Eh)
 13763  160A  00FA               	movwf	0+(?i1_LCD_print_char)+02h
 13764  160B  3000               	movlw	high(0Eh)
 13765  160C  00FB               	movwf	(0+(?i1_LCD_print_char)+02h)+1
 13766  160D  303A               	movlw	(03Ah)
 13767  160E  00A0               	movwf	(??_isr+0)+0
 13768  160F  0820               	movf	(??_isr+0)+0,w
 13769  1610  00FC               	movwf	0+(?i1_LCD_print_char)+04h
 13770  1611  160A  158A  237F   	fcall	i1_LCD_print_char
              160A  118A         
 13771  1616  2E2B               	goto	i1l7190
 13772                           	line	446
 13773                           	
 13774  1617                     i1l1145:	
 13775                           	
 13776  1617                     i1l7188:	
 13777                           ;Automated Solar Panel Orientation Setter.c: 446: else LCD_print_char(2,14,' ');
 13778  1617  3002               	movlw	low(02h)
 13779  1618  00F8               	movwf	(?i1_LCD_print_char)
 13780  1619  3000               	movlw	high(02h)
 13781  161A  00F9               	movwf	((?i1_LCD_print_char))+1
 13782  161B  300E               	movlw	low(0Eh)
 13783  161C  00FA               	movwf	0+(?i1_LCD_print_char)+02h
 13784  161D  3000               	movlw	high(0Eh)
 13785  161E  00FB               	movwf	(0+(?i1_LCD_print_char)+02h)+1
 13786  161F  3020               	movlw	(020h)
 13787  1620  1283               	bcf	status, 5	;RP0=0, select bank0
 13788  1621  1303               	bcf	status, 6	;RP1=0, select bank0
 13789  1622  00A0               	movwf	(??_isr+0)+0
 13790  1623  0820               	movf	(??_isr+0)+0,w
 13791  1624  00FC               	movwf	0+(?i1_LCD_print_char)+04h
 13792  1625  160A  158A  237F   	fcall	i1_LCD_print_char
              160A  118A         
 13793  162A  2E2B               	goto	i1l7190
 13794                           	
 13795  162B                     i1l1146:	
 13796                           	line	447
 13797                           	
 13798  162B                     i1l7190:	
 13799                           ;Automated Solar Panel Orientation Setter.c: 447: BlinkDet = !BlinkDet;
 13800  162B  3001               	movlw	1<<((_BlinkDet)&7)
 13801  162C  1283               	bcf	status, 5	;RP0=0, select bank0
 13802  162D  1303               	bcf	status, 6	;RP1=0, select bank0
 13803  162E  06E6               	xorwf	((_BlinkDet)/8),f
 13804                           	line	449
 13805                           	
 13806  162F                     i1l7192:	
 13807                           ;Automated Solar Panel Orientation Setter.c: 449: RD6 = !RD6;
 13808  162F  3040               	movlw	1<<((70)&7)
 13809  1630  0688               	xorwf	((70)/8),f
 13810                           	line	450
 13811                           	
 13812  1631                     i1l7194:	
 13813                           ;Automated Solar Panel Orientation Setter.c: 450: msecond = 0;
 13814  1631  1683               	bsf	status, 5	;RP0=1, select bank1
 13815  1632  1303               	bcf	status, 6	;RP1=0, select bank1
 13816  1633  01C4               	clrf	(_msecond)^080h
 13817  1634  01C5               	clrf	(_msecond+1)^080h
 13818                           	line	451
 13819                           	
 13820  1635                     i1l7196:	
 13821                           ;Automated Solar Panel Orientation Setter.c: 451: if( second == 60){
 13822  1635  303C               	movlw	03Ch
 13823  1636  0646               	xorwf	(_second)^080h,w
 13824  1637  0447               	iorwf	(_second+1)^080h,w
 13825  1638  1D03               	skipz
 13826  1639  2E3B               	goto	u610_21
 13827  163A  2E3C               	goto	u610_20
 13828  163B                     u610_21:
 13829  163B  2E99               	goto	i1l1144
 13830  163C                     u610_20:
 13831                           	line	456
 13832                           	
 13833  163C                     i1l7198:	
 13834                           ;Automated Solar Panel Orientation Setter.c: 456: LCD_print_char(2,16,minute%10+48);
 13835  163C  3002               	movlw	low(02h)
 13836  163D  00F8               	movwf	(?i1_LCD_print_char)
 13837  163E  3000               	movlw	high(02h)
 13838  163F  00F9               	movwf	((?i1_LCD_print_char))+1
 13839  1640  3010               	movlw	low(010h)
 13840  1641  00FA               	movwf	0+(?i1_LCD_print_char)+02h
 13841  1642  3000               	movlw	high(010h)
 13842  1643  00FB               	movwf	(0+(?i1_LCD_print_char)+02h)+1
 13843  1644  300A               	movlw	low(0Ah)
 13844  1645  00F1               	movwf	(?i1___lwmod)
 13845  1646  3000               	movlw	high(0Ah)
 13846  1647  00F2               	movwf	((?i1___lwmod))+1
 13847  1648  1283               	bcf	status, 5	;RP0=0, select bank0
 13848  1649  1303               	bcf	status, 6	;RP1=0, select bank0
 13849  164A  0859               	movf	(_minute+1),w
 13850  164B  01F4               	clrf	1+(?i1___lwmod)+02h
 13851  164C  07F4               	addwf	1+(?i1___lwmod)+02h
 13852  164D  0858               	movf	(_minute),w
 13853  164E  01F3               	clrf	0+(?i1___lwmod)+02h
 13854  164F  07F3               	addwf	0+(?i1___lwmod)+02h
 13855                           
 13856  1650  160A  158A  25D0   	fcall	i1___lwmod
              160A  118A         
 13857  1655  0871               	movf	(0+(?i1___lwmod)),w
 13858  1656  3E30               	addlw	030h
 13859  1657  1283               	bcf	status, 5	;RP0=0, select bank0
 13860  1658  1303               	bcf	status, 6	;RP1=0, select bank0
 13861  1659  00A0               	movwf	(??_isr+0)+0
 13862  165A  0820               	movf	(??_isr+0)+0,w
 13863  165B  00FC               	movwf	0+(?i1_LCD_print_char)+04h
 13864  165C  160A  158A  237F   	fcall	i1_LCD_print_char
              160A  118A         
 13865                           	line	458
 13866                           	
 13867  1661                     i1l7200:	
 13868                           ;Automated Solar Panel Orientation Setter.c: 458: minute ++;
 13869  1661  3001               	movlw	low(01h)
 13870  1662  1283               	bcf	status, 5	;RP0=0, select bank0
 13871  1663  1303               	bcf	status, 6	;RP1=0, select bank0
 13872  1664  07D8               	addwf	(_minute),f
 13873  1665  1803               	skipnc
 13874  1666  0AD9               	incf	(_minute+1),f
 13875  1667  3000               	movlw	high(01h)
 13876  1668  07D9               	addwf	(_minute+1),f
 13877                           	line	459
 13878                           	
 13879  1669                     i1l7202:	
 13880                           ;Automated Solar Panel Orientation Setter.c: 459: second = 0;
 13881  1669  1683               	bsf	status, 5	;RP0=1, select bank1
 13882  166A  1303               	bcf	status, 6	;RP1=0, select bank1
 13883  166B  01C6               	clrf	(_second)^080h
 13884  166C  01C7               	clrf	(_second+1)^080h
 13885                           	line	461
 13886                           	
 13887  166D                     i1l7204:	
 13888                           ;Automated Solar Panel Orientation Setter.c: 461: x = minute%30 ;
 13889  166D  301E               	movlw	low(01Eh)
 13890  166E  00F1               	movwf	(?i1___lwmod)
 13891  166F  3000               	movlw	high(01Eh)
 13892  1670  00F2               	movwf	((?i1___lwmod))+1
 13893  1671  1283               	bcf	status, 5	;RP0=0, select bank0
 13894  1672  1303               	bcf	status, 6	;RP1=0, select bank0
 13895  1673  0859               	movf	(_minute+1),w
 13896  1674  01F4               	clrf	1+(?i1___lwmod)+02h
 13897  1675  07F4               	addwf	1+(?i1___lwmod)+02h
 13898  1676  0858               	movf	(_minute),w
 13899  1677  01F3               	clrf	0+(?i1___lwmod)+02h
 13900  1678  07F3               	addwf	0+(?i1___lwmod)+02h
 13901                           
 13902  1679  160A  158A  25D0   	fcall	i1___lwmod
              160A  118A         
 13903  167E  0871               	movf	(0+(?i1___lwmod)),w
 13904  167F  1283               	bcf	status, 5	;RP0=0, select bank0
 13905  1680  1303               	bcf	status, 6	;RP1=0, select bank0
 13906  1681  00A0               	movwf	(??_isr+0)+0
 13907  1682  0820               	movf	(??_isr+0)+0,w
 13908  1683  00E3               	movwf	(_x)
 13909  1684  2E86               	goto	i1l7208
 13910                           	line	462
 13911                           	
 13912  1685                     i1l7206:	
 13913  1685  2E86               	goto	i1l7208
 13914                           	line	465
 13915                           	
 13916  1686                     i1l1148:	
 13917                           	line	468
 13918                           	
 13919  1686                     i1l7208:	
 13920                           ;Automated Solar Panel Orientation Setter.c: 465: }
 13921                           ;Automated Solar Panel Orientation Setter.c: 468: if( minute == 60){
 13922  1686  303C               	movlw	03Ch
 13923  1687  0658               	xorwf	(_minute),w
 13924  1688  0459               	iorwf	(_minute+1),w
 13925  1689  1D03               	skipz
 13926  168A  2E8C               	goto	u611_21
 13927  168B  2E8D               	goto	u611_20
 13928  168C                     u611_21:
 13929  168C  2E99               	goto	i1l1144
 13930  168D                     u611_20:
 13931                           	line	469
 13932                           	
 13933  168D                     i1l7210:	
 13934                           ;Automated Solar Panel Orientation Setter.c: 469: minute = 0;
 13935  168D  01D8               	clrf	(_minute)
 13936  168E  01D9               	clrf	(_minute+1)
 13937                           	line	470
 13938                           	
 13939  168F                     i1l7212:	
 13940                           ;Automated Solar Panel Orientation Setter.c: 470: hour ++;
 13941  168F  3001               	movlw	low(01h)
 13942  1690  07D2               	addwf	(_hour),f
 13943  1691  1803               	skipnc
 13944  1692  0AD3               	incf	(_hour+1),f
 13945  1693  3000               	movlw	high(01h)
 13946  1694  07D3               	addwf	(_hour+1),f
 13947  1695  2E99               	goto	i1l1144
 13948                           	line	471
 13949                           	
 13950  1696                     i1l7214:	
 13951  1696  2E99               	goto	i1l1144
 13952                           	
 13953  1697                     i1l1150:	
 13954  1697  2E99               	goto	i1l1144
 13955                           	line	472
 13956                           	
 13957  1698                     i1l1149:	
 13958  1698  2E99               	goto	i1l1144
 13959                           	line	473
 13960                           	
 13961  1699                     i1l1147:	
 13962                           	line	474
 13963                           	
 13964  1699                     i1l1144:	
 13965                           	line	475
 13966                           ;Automated Solar Panel Orientation Setter.c: 472: }
 13967                           ;Automated Solar Panel Orientation Setter.c: 473: }
 13968                           ;Automated Solar Panel Orientation Setter.c: 474: }
 13969                           ;Automated Solar Panel Orientation Setter.c: 475: TMR1IF = 0;
 13970  1699  1283               	bcf	status, 5	;RP0=0, select bank0
 13971  169A  100C               	bcf	(96/8),(96)&7
 13972                           	line	476
 13973                           	
 13974  169B                     i1l7216:	
 13975                           ;Automated Solar Panel Orientation Setter.c: 476: TMR1L = 0xB0;
 13976  169B  30B0               	movlw	(0B0h)
 13977  169C  008E               	movwf	(14)	;volatile
 13978                           	line	477
 13979                           ;Automated Solar Panel Orientation Setter.c: 477: TMR1H = 0x3C;
 13980  169D  303C               	movlw	(03Ch)
 13981  169E  008F               	movwf	(15)	;volatile
 13982  169F  2EA0               	goto	i1l7218
 13983                           	line	478
 13984                           	
 13985  16A0                     i1l1143:	
 13986                           	line	479
 13987                           	
 13988  16A0                     i1l7218:	
 13989                           ;Automated Solar Panel Orientation Setter.c: 478: }
 13990                           ;Automated Solar Panel Orientation Setter.c: 479: if( RCIF == 1){
 13991  16A0  1E8C               	btfss	(101/8),(101)&7
 13992  16A1  2EA3               	goto	u612_21
 13993  16A2  2EA4               	goto	u612_20
 13994  16A3                     u612_21:
 13995  16A3  2ED9               	goto	i1l7238
 13996  16A4                     u612_20:
 13997                           	line	480
 13998                           	
 13999  16A4                     i1l7220:	
 14000                           ;Automated Solar Panel Orientation Setter.c: 480: if ((FERR == 0) && (OERR == 0))
 14001  16A4  1918               	btfsc	(194/8),(194)&7
 14002  16A5  2EA7               	goto	u613_21
 14003  16A6  2EA8               	goto	u613_20
 14004  16A7                     u613_21:
 14005  16A7  2ECB               	goto	i1l1152
 14006  16A8                     u613_20:
 14007                           	
 14008  16A8                     i1l7222:	
 14009  16A8  1898               	btfsc	(193/8),(193)&7
 14010  16A9  2EAB               	goto	u614_21
 14011  16AA  2EAC               	goto	u614_20
 14012  16AB                     u614_21:
 14013  16AB  2ECB               	goto	i1l1152
 14014  16AC                     u614_20:
 14015                           	line	482
 14016                           	
 14017  16AC                     i1l7224:	
 14018                           ;Automated Solar Panel Orientation Setter.c: 481: {
 14019                           ;Automated Solar Panel Orientation Setter.c: 482: wtmp = RCREG;
 14020  16AC  081A               	movf	(26),w	;volatile
 14021  16AD  00A0               	movwf	(??_isr+0)+0
 14022  16AE  0820               	movf	(??_isr+0)+0,w
 14023  16AF  00E2               	movwf	(_wtmp)
 14024                           	line	483
 14025                           ;Automated Solar Panel Orientation Setter.c: 483: if( RCREG=='*' || j > 20-1 ){
 14026  16B0  081A               	movf	(26),w	;volatile
 14027  16B1  3A2A               	xorlw	02Ah
 14028  16B2  1903               	skipnz
 14029  16B3  2EB5               	goto	u615_21
 14030  16B4  2EB6               	goto	u615_20
 14031  16B5                     u615_21:
 14032  16B5  2EBC               	goto	i1l1155
 14033  16B6                     u615_20:
 14034                           	
 14035  16B6                     i1l7226:	
 14036  16B6  3014               	movlw	(014h)
 14037  16B7  025A               	subwf	(_j),w
 14038  16B8  1C03               	skipc
 14039  16B9  2EBB               	goto	u616_21
 14040  16BA  2EBC               	goto	u616_20
 14041  16BB                     u616_21:
 14042  16BB  2EBE               	goto	i1l7228
 14043  16BC                     u616_20:
 14044                           	
 14045  16BC                     i1l1155:	
 14046                           	line	484
 14047                           ;Automated Solar Panel Orientation Setter.c: 484: j=0;
 14048  16BC  01DA               	clrf	(_j)
 14049  16BD  2EBE               	goto	i1l7228
 14050                           	line	485
 14051                           	
 14052  16BE                     i1l1153:	
 14053                           	line	486
 14054                           	
 14055  16BE                     i1l7228:	
 14056                           ;Automated Solar Panel Orientation Setter.c: 485: }
 14057                           ;Automated Solar Panel Orientation Setter.c: 486: buffer[j] = RCREG;
 14058  16BE  081A               	movf	(26),w	;volatile
 14059  16BF  00A0               	movwf	(??_isr+0)+0
 14060  16C0  085A               	movf	(_j),w
 14061  16C1  3EA0               	addlw	_buffer&0ffh
 14062  16C2  0084               	movwf	fsr0
 14063  16C3  0820               	movf	(??_isr+0)+0,w
 14064  16C4  1383               	bcf	status, 7	;select IRP bank1
 14065  16C5  0080               	movwf	indf
 14066                           	line	487
 14067                           	
 14068  16C6                     i1l7230:	
 14069                           ;Automated Solar Panel Orientation Setter.c: 487: j ++;
 14070  16C6  3001               	movlw	(01h)
 14071  16C7  00A0               	movwf	(??_isr+0)+0
 14072  16C8  0820               	movf	(??_isr+0)+0,w
 14073  16C9  07DA               	addwf	(_j),f
 14074                           	line	488
 14075                           ;Automated Solar Panel Orientation Setter.c: 488: }
 14076  16CA  2ED7               	goto	i1l7236
 14077                           	line	489
 14078                           	
 14079  16CB                     i1l1152:	
 14080                           	line	491
 14081                           ;Automated Solar Panel Orientation Setter.c: 489: else
 14082                           ;Automated Solar Panel Orientation Setter.c: 490: {
 14083                           ;Automated Solar Panel Orientation Setter.c: 491: CREN = 0;
 14084  16CB  1218               	bcf	(196/8),(196)&7
 14085                           	line	492
 14086                           ;Automated Solar Panel Orientation Setter.c: 492: FERR = 0;
 14087  16CC  1118               	bcf	(194/8),(194)&7
 14088                           	line	493
 14089                           	
 14090  16CD                     i1l7232:	
 14091                           ;Automated Solar Panel Orientation Setter.c: 493: wtmp = RCREG;
 14092  16CD  081A               	movf	(26),w	;volatile
 14093  16CE  00A0               	movwf	(??_isr+0)+0
 14094  16CF  0820               	movf	(??_isr+0)+0,w
 14095  16D0  00E2               	movwf	(_wtmp)
 14096                           	line	494
 14097                           ;Automated Solar Panel Orientation Setter.c: 494: wtmp = RCREG;
 14098  16D1  081A               	movf	(26),w	;volatile
 14099  16D2  00A0               	movwf	(??_isr+0)+0
 14100  16D3  0820               	movf	(??_isr+0)+0,w
 14101  16D4  00E2               	movwf	(_wtmp)
 14102                           	line	495
 14103                           	
 14104  16D5                     i1l7234:	
 14105                           ;Automated Solar Panel Orientation Setter.c: 495: CREN = 1;
 14106  16D5  1618               	bsf	(196/8),(196)&7
 14107  16D6  2ED7               	goto	i1l7236
 14108                           	line	496
 14109                           	
 14110  16D7                     i1l1156:	
 14111                           	line	497
 14112                           	
 14113  16D7                     i1l7236:	
 14114                           ;Automated Solar Panel Orientation Setter.c: 496: }
 14115                           ;Automated Solar Panel Orientation Setter.c: 497: RCIF = 0;
 14116  16D7  128C               	bcf	(101/8),(101)&7
 14117  16D8  2ED9               	goto	i1l7238
 14118                           	line	498
 14119                           	
 14120  16D9                     i1l1151:	
 14121                           	line	499
 14122                           	
 14123  16D9                     i1l7238:	
 14124                           ;Automated Solar Panel Orientation Setter.c: 498: }
 14125                           ;Automated Solar Panel Orientation Setter.c: 499: if(OERR == 1)
 14126  16D9  1C98               	btfss	(193/8),(193)&7
 14127  16DA  2EDC               	goto	u617_21
 14128  16DB  2EDD               	goto	u617_20
 14129  16DC                     u617_21:
 14130  16DC  2EE8               	goto	i1l1158
 14131  16DD                     u617_20:
 14132                           	line	501
 14133                           	
 14134  16DD                     i1l7240:	
 14135                           ;Automated Solar Panel Orientation Setter.c: 500: {
 14136                           ;Automated Solar Panel Orientation Setter.c: 501: CREN = 0;
 14137  16DD  1218               	bcf	(196/8),(196)&7
 14138                           	line	503
 14139                           	
 14140  16DE                     i1l7242:	
 14141                           ;Automated Solar Panel Orientation Setter.c: 503: wtmp = RCREG;
 14142  16DE  081A               	movf	(26),w	;volatile
 14143  16DF  00A0               	movwf	(??_isr+0)+0
 14144  16E0  0820               	movf	(??_isr+0)+0,w
 14145  16E1  00E2               	movwf	(_wtmp)
 14146                           	line	504
 14147                           ;Automated Solar Panel Orientation Setter.c: 504: wtmp = RCREG;
 14148  16E2  081A               	movf	(26),w	;volatile
 14149  16E3  00A0               	movwf	(??_isr+0)+0
 14150  16E4  0820               	movf	(??_isr+0)+0,w
 14151  16E5  00E2               	movwf	(_wtmp)
 14152                           	line	505
 14153                           	
 14154  16E6                     i1l7244:	
 14155                           ;Automated Solar Panel Orientation Setter.c: 505: CREN = 1;
 14156  16E6  1618               	bsf	(196/8),(196)&7
 14157  16E7  2EE8               	goto	i1l1158
 14158                           	line	506
 14159                           	
 14160  16E8                     i1l1157:	
 14161                           	line	508
 14162                           	
 14163  16E8                     i1l1158:	
 14164  16E8  0824               	movf	(??_isr+4),w
 14165  16E9  00FF               	movwf	btemp+1
 14166  16EA  0823               	movf	(??_isr+3),w
 14167  16EB  008A               	movwf	pclath
 14168  16EC  0822               	movf	(??_isr+2),w
 14169  16ED  0084               	movwf	fsr0
 14170  16EE  0E21               	swapf	(??_isr+1)^00h,w
 14171  16EF  0083               	movwf	status
 14172  16F0  0EFE               	swapf	saved_w,f
 14173  16F1  0E7E               	swapf	saved_w,w
 14174  16F2  0009               	retfie
 14175                           	opt stack 0
 14176                           GLOBAL	__end_of_isr
 14177  16F3                     	__end_of_isr:
 14178 ;; =============== function _isr ends ============
 14179                           
 14180                           	signat	_isr,88
 14181                           	global	i1_LCD_print_char
 14182                           psect	text1523,local,class=CODE,delta=2
 14183                           global __ptext1523
 14184  1B7F                     __ptext1523:
 14185                           
 14186 ;; *************** function i1_LCD_print_char *****************
 14187 ;; Defined at:
 14188 ;;		line 174 in file "D:\ELECTRONIC\2016\1. Automated Solar Panel Orientation Setter\Firmware\ver4\lcdV2.h"
 14189 ;; Parameters:    Size  Location     Type
 14190 ;;  LCD_print_ch    2    7[COMMON] int 
 14191 ;;  LCD_print_ch    2    9[COMMON] int 
 14192 ;;  LCD_print_ch    1   11[COMMON] unsigned char 
 14193 ;; Auto vars:     Size  Location     Type
 14194 ;;		None
 14195 ;; Return value:  Size  Location     Type
 14196 ;;		None               void
 14197 ;; Registers used:
 14198 ;;		wreg, status,2, status,0, pclath, cstack
 14199 ;; Tracked objects:
 14200 ;;		On entry : 0/0
 14201 ;;		On exit  : 0/0
 14202 ;;		Unchanged: 0/0
 14203 ;; Data sizes:     COMMON   BANK0   BANK1   BANK3   BANK2
 14204 ;;      Params:         5       0       0       0       0
 14205 ;;      Locals:         0       0       0       0       0
 14206 ;;      Temps:          1       0       0       0       0
 14207 ;;      Totals:         6       0       0       0       0
 14208 ;;Total ram usage:        6 bytes
 14209 ;; Hardware stack levels used:    1
 14210 ;; Hardware stack levels required when called:    2
 14211 ;; This function calls:
 14212 ;;		i1_position
 14213 ;;		i1_lcd_add
 14214 ;; This function is called by:
 14215 ;;		_isr
 14216 ;; This function uses a non-reentrant model
 14217 ;;
 14218                           psect	text1523
 14219                           	file	"D:\ELECTRONIC\2016\1. Automated Solar Panel Orientation Setter\Firmware\ver4\lcdV
                                 2.h"
 14220                           	line	174
 14221                           	global	__size_ofi1_LCD_print_char
 14222  0022                     	__size_ofi1_LCD_print_char	equ	__end_ofi1_LCD_print_char-i1_LCD_print_char
 14223                           	
 14224  1B7F                     i1_LCD_print_char:	
 14225                           	opt	stack 0
 14226                           ; Regs used in i1_LCD_print_char: [wreg+status,2+status,0+pclath+cstack]
 14227                           	line	175
 14228                           	
 14229  1B7F                     i1l7514:	
 14230                           ;lcdV2.h: 175: position(row,column);
 14231  1B7F  087A               	movf	(i1LCD_print_char@column),w
 14232  1B80  00FD               	movwf	(??i1_LCD_print_char+0)+0
 14233  1B81  087D               	movf	(??i1_LCD_print_char+0)+0,w
 14234  1B82  00F3               	movwf	(?i1_position)
 14235  1B83  0878               	movf	(i1LCD_print_char@row),w
 14236  1B84  160A  158A  251B   	fcall	i1_position
              160A  158A         
 14237                           	line	176
 14238                           	
 14239  1B89                     i1l7516:	
 14240                           ;lcdV2.h: 176: RC2 = 1;
 14241  1B89  1283               	bcf	status, 5	;RP0=0, select bank0
 14242  1B8A  1303               	bcf	status, 6	;RP1=0, select bank0
 14243  1B8B  1507               	bsf	(58/8),(58)&7
 14244                           	line	177
 14245                           	
 14246  1B8C                     i1l7518:	
 14247                           ;lcdV2.h: 177: _delay(20);
 14248                           	opt asmopt_off
 14249  1B8C  3006               movlw	6
 14250  1B8D  00FD               movwf	(??i1_LCD_print_char+0)+0,f
 14251  1B8E                     u1286_27:
 14252  1B8E  0BFD               decfsz	(??i1_LCD_print_char+0)+0,f
 14253  1B8F  2B8E               	goto	u1286_27
 14254  1B90  0064               	clrwdt
 14255                           opt asmopt_on
 14256                           
 14257                           	line	178
 14258                           	
 14259  1B91                     i1l7520:	
 14260                           ;lcdV2.h: 178: lcd_data = print_value;
 14261  1B91  087C               	movf	(i1LCD_print_char@print_value),w
 14262  1B92  00FD               	movwf	(??i1_LCD_print_char+0)+0
 14263  1B93  087D               	movf	(??i1_LCD_print_char+0)+0,w
 14264  1B94  1283               	bcf	status, 5	;RP0=0, select bank0
 14265  1B95  1303               	bcf	status, 6	;RP1=0, select bank0
 14266  1B96  00DC               	movwf	(_lcd_data)
 14267                           	line	179
 14268                           ;lcdV2.h: 179: lcd_add();
 14269  1B97  160A  118A  23EE   	fcall	i1_lcd_add
              160A  158A         
 14270                           	line	180
 14271                           	
 14272  1B9C                     i1l7522:	
 14273                           ;lcdV2.h: 180: _delay(100);
 14274                           	opt asmopt_off
 14275  1B9C  3021               movlw	33
 14276  1B9D  00FD               movwf	(??i1_LCD_print_char+0)+0,f
 14277  1B9E                     u1287_27:
 14278  1B9E  0BFD               decfsz	(??i1_LCD_print_char+0)+0,f
 14279  1B9F  2B9E               	goto	u1287_27
 14280                           opt asmopt_on
 14281                           
 14282                           	line	181
 14283                           	
 14284  1BA0                     i1l825:	
 14285  1BA0  0008               	return
 14286                           	opt stack 0
 14287                           GLOBAL	__end_ofi1_LCD_print_char
 14288  1BA1                     	__end_ofi1_LCD_print_char:
 14289 ;; =============== function i1_LCD_print_char ends ============
 14290                           
 14291                           	signat	i1_LCD_print_char,88
 14292                           	global	i1_position
 14293                           psect	text1524,local,class=CODE,delta=2
 14294                           global __ptext1524
 14295  1D1B                     __ptext1524:
 14296                           
 14297 ;; *************** function i1_position *****************
 14298 ;; Defined at:
 14299 ;;		line 209 in file "D:\ELECTRONIC\2016\1. Automated Solar Panel Orientation Setter\Firmware\ver4\lcdV2.h"
 14300 ;; Parameters:    Size  Location     Type
 14301 ;;  position        1    wreg     unsigned char 
 14302 ;;  position        1    2[COMMON] unsigned char 
 14303 ;; Auto vars:     Size  Location     Type
 14304 ;;  position        1    6[COMMON] unsigned char 
 14305 ;;  position        1    5[COMMON] unsigned char 
 14306 ;; Return value:  Size  Location     Type
 14307 ;;		None               void
 14308 ;; Registers used:
 14309 ;;		wreg, status,2, status,0, pclath, cstack
 14310 ;; Tracked objects:
 14311 ;;		On entry : 0/0
 14312 ;;		On exit  : 0/0
 14313 ;;		Unchanged: 0/0
 14314 ;; Data sizes:     COMMON   BANK0   BANK1   BANK3   BANK2
 14315 ;;      Params:         1       0       0       0       0
 14316 ;;      Locals:         2       0       0       0       0
 14317 ;;      Temps:          2       0       0       0       0
 14318 ;;      Totals:         5       0       0       0       0
 14319 ;;Total ram usage:        5 bytes
 14320 ;; Hardware stack levels used:    1
 14321 ;; Hardware stack levels required when called:    1
 14322 ;; This function calls:
 14323 ;;		i1_lcd_add
 14324 ;; This function is called by:
 14325 ;;		i1_LCD_print_char
 14326 ;; This function uses a non-reentrant model
 14327 ;;
 14328                           psect	text1524
 14329                           	file	"D:\ELECTRONIC\2016\1. Automated Solar Panel Orientation Setter\Firmware\ver4\lcdV
                                 2.h"
 14330                           	line	209
 14331                           	global	__size_ofi1_position
 14332  003B                     	__size_ofi1_position	equ	__end_ofi1_position-i1_position
 14333                           	
 14334  1D1B                     i1_position:	
 14335                           	opt	stack 0
 14336                           ; Regs used in i1_position: [wreg+status,2+status,0+pclath+cstack]
 14337                           ;i1position@row stored from wreg
 14338                           	line	211
 14339  1D1B  00F7               	movwf	(i1position@row)
 14340                           	
 14341  1D1C                     i1l7524:	
 14342                           ;lcdV2.h: 210: char post ;
 14343                           ;lcdV2.h: 211: if( row == 1 ) row = 128;
 14344  1D1C  0877               	movf	(i1position@row),w
 14345  1D1D  3A01               	xorlw	01h
 14346  1D1E  1D03               	skipz
 14347  1D1F  2D21               	goto	u693_21
 14348  1D20  2D22               	goto	u693_20
 14349  1D21                     u693_21:
 14350  1D21  2D26               	goto	i1l836
 14351  1D22                     u693_20:
 14352                           	
 14353  1D22                     i1l7526:	
 14354  1D22  3080               	movlw	(080h)
 14355  1D23  00F4               	movwf	(??i1_position+0)+0
 14356  1D24  0874               	movf	(??i1_position+0)+0,w
 14357  1D25  00F7               	movwf	(i1position@row)
 14358                           	
 14359  1D26                     i1l836:	
 14360                           	line	212
 14361                           ;lcdV2.h: 212: if( row == 2 ) row = 192;
 14362  1D26  0877               	movf	(i1position@row),w
 14363  1D27  3A02               	xorlw	02h
 14364  1D28  1D03               	skipz
 14365  1D29  2D2B               	goto	u694_21
 14366  1D2A  2D2C               	goto	u694_20
 14367  1D2B                     u694_21:
 14368  1D2B  2D31               	goto	i1l7530
 14369  1D2C                     u694_20:
 14370                           	
 14371  1D2C                     i1l7528:	
 14372  1D2C  30C0               	movlw	(0C0h)
 14373  1D2D  00F4               	movwf	(??i1_position+0)+0
 14374  1D2E  0874               	movf	(??i1_position+0)+0,w
 14375  1D2F  00F7               	movwf	(i1position@row)
 14376  1D30  2D31               	goto	i1l7530
 14377                           	
 14378  1D31                     i1l837:	
 14379                           	line	213
 14380                           	
 14381  1D31                     i1l7530:	
 14382                           ;lcdV2.h: 213: post = row + collum - 1;
 14383  1D31  0873               	movf	(i1position@collum),w
 14384  1D32  0777               	addwf	(i1position@row),w
 14385  1D33  3EFF               	addlw	0FFh
 14386  1D34  00F4               	movwf	(??i1_position+0)+0
 14387  1D35  0874               	movf	(??i1_position+0)+0,w
 14388  1D36  00F6               	movwf	(i1position@post)
 14389                           	line	214
 14390                           	
 14391  1D37                     i1l7532:	
 14392                           ;lcdV2.h: 214: RC2 = 0;
 14393  1D37  1283               	bcf	status, 5	;RP0=0, select bank0
 14394  1D38  1303               	bcf	status, 6	;RP1=0, select bank0
 14395  1D39  1107               	bcf	(58/8),(58)&7
 14396                           	line	215
 14397                           	
 14398  1D3A                     i1l7534:	
 14399                           ;lcdV2.h: 215: _delay(20);
 14400                           	opt asmopt_off
 14401  1D3A  3006               movlw	6
 14402  1D3B  00F4               movwf	(??i1_position+0)+0,f
 14403  1D3C                     u1288_27:
 14404  1D3C  0BF4               decfsz	(??i1_position+0)+0,f
 14405  1D3D  2D3C               	goto	u1288_27
 14406  1D3E  0064               	clrwdt
 14407                           opt asmopt_on
 14408                           
 14409                           	line	216
 14410                           	
 14411  1D3F                     i1l7536:	
 14412                           ;lcdV2.h: 216: lcd_data = post ;
 14413  1D3F  0876               	movf	(i1position@post),w
 14414  1D40  00F4               	movwf	(??i1_position+0)+0
 14415  1D41  0874               	movf	(??i1_position+0)+0,w
 14416  1D42  1283               	bcf	status, 5	;RP0=0, select bank0
 14417  1D43  1303               	bcf	status, 6	;RP1=0, select bank0
 14418  1D44  00DC               	movwf	(_lcd_data)
 14419                           	line	217
 14420                           	
 14421  1D45                     i1l7538:	
 14422                           ;lcdV2.h: 217: lcd_add();
 14423  1D45  160A  118A  23EE   	fcall	i1_lcd_add
              160A  158A         
 14424                           	line	218
 14425                           	
 14426  1D4A                     i1l7540:	
 14427                           ;lcdV2.h: 218: _delay((unsigned long)((10)*(4000000/4000.0)));
 14428                           	opt asmopt_off
 14429  1D4A  300D               movlw	13
 14430  1D4B  00F5               movwf	((??i1_position+0)+0+1),f
 14431  1D4C  30FB               	movlw	251
 14432  1D4D  00F4               movwf	((??i1_position+0)+0),f
 14433  1D4E                     u1289_27:
 14434  1D4E  0BF4               	decfsz	((??i1_position+0)+0),f
 14435  1D4F  2D4E               	goto	u1289_27
 14436  1D50  0BF5               	decfsz	((??i1_position+0)+0+1),f
 14437  1D51  2D4E               	goto	u1289_27
 14438  1D52  2D53               	nop2
 14439                           opt asmopt_on
 14440                           
 14441                           	line	219
 14442                           	
 14443  1D53                     i1l7542:	
 14444                           ;lcdV2.h: 219: row = 0;
 14445  1D53  01F7               	clrf	(i1position@row)
 14446                           	line	220
 14447                           	
 14448  1D54                     i1l7544:	
 14449                           ;lcdV2.h: 220: collum = 0;
 14450  1D54  01F3               	clrf	(i1position@collum)
 14451                           	line	221
 14452                           	
 14453  1D55                     i1l838:	
 14454  1D55  0008               	return
 14455                           	opt stack 0
 14456                           GLOBAL	__end_ofi1_position
 14457  1D56                     	__end_ofi1_position:
 14458 ;; =============== function i1_position ends ============
 14459                           
 14460                           	signat	i1_position,88
 14461                           	global	i1_lcd_add
 14462                           psect	text1525,local,class=CODE,delta=2
 14463                           global __ptext1525
 14464  13EE                     __ptext1525:
 14465                           
 14466 ;; *************** function i1_lcd_add *****************
 14467 ;; Defined at:
 14468 ;;		line 225 in file "D:\ELECTRONIC\2016\1. Automated Solar Panel Orientation Setter\Firmware\ver4\lcdV2.h"
 14469 ;; Parameters:    Size  Location     Type
 14470 ;;		None
 14471 ;; Auto vars:     Size  Location     Type
 14472 ;;		None
 14473 ;; Return value:  Size  Location     Type
 14474 ;;		None               void
 14475 ;; Registers used:
 14476 ;;		wreg, status,2, status,0
 14477 ;; Tracked objects:
 14478 ;;		On entry : 0/0
 14479 ;;		On exit  : 0/0
 14480 ;;		Unchanged: 0/0
 14481 ;; Data sizes:     COMMON   BANK0   BANK1   BANK3   BANK2
 14482 ;;      Params:         0       0       0       0       0
 14483 ;;      Locals:         0       0       0       0       0
 14484 ;;      Temps:          2       0       0       0       0
 14485 ;;      Totals:         2       0       0       0       0
 14486 ;;Total ram usage:        2 bytes
 14487 ;; Hardware stack levels used:    1
 14488 ;; This function calls:
 14489 ;;		Nothing
 14490 ;; This function is called by:
 14491 ;;		i1_LCD_print_char
 14492 ;;		i1_position
 14493 ;; This function uses a non-reentrant model
 14494 ;;
 14495                           psect	text1525
 14496                           	file	"D:\ELECTRONIC\2016\1. Automated Solar Panel Orientation Setter\Firmware\ver4\lcdV
                                 2.h"
 14497                           	line	225
 14498                           	global	__size_ofi1_lcd_add
 14499  00FC                     	__size_ofi1_lcd_add	equ	__end_ofi1_lcd_add-i1_lcd_add
 14500                           	
 14501  13EE                     i1_lcd_add:	
 14502                           	opt	stack 1
 14503                           ; Regs used in i1_lcd_add: [wreg+status,2+status,0]
 14504                           	line	226
 14505                           	
 14506  13EE                     i1l7546:	
 14507                           ;lcdV2.h: 226: lcd_data_high = lcd_data >> 4;
 14508  13EE  1283               	bcf	status, 5	;RP0=0, select bank0
 14509  13EF  1303               	bcf	status, 6	;RP1=0, select bank0
 14510  13F0  085C               	movf	(_lcd_data),w
 14511  13F1  00F1               	movwf	(??i1_lcd_add+0)+0
 14512  13F2  3004               	movlw	04h
 14513  13F3                     u695_25:
 14514  13F3  1003               	clrc
 14515  13F4  0CF1               	rrf	(??i1_lcd_add+0)+0,f
 14516  13F5  3EFF               	addlw	-1
 14517  13F6  1D03               	skipz
 14518  13F7  2BF3               	goto	u695_25
 14519  13F8  0871               	movf	0+(??i1_lcd_add+0)+0,w
 14520  13F9  00F2               	movwf	(??i1_lcd_add+1)+0
 14521  13FA  0872               	movf	(??i1_lcd_add+1)+0,w
 14522  13FB  00DD               	movwf	(_lcd_data_high)
 14523                           	line	227
 14524                           ;lcdV2.h: 227: lcd_data_low = lcd_data << 4;
 14525  13FC  085C               	movf	(_lcd_data),w
 14526  13FD  00F1               	movwf	(??i1_lcd_add+0)+0
 14527  13FE  3003               	movlw	(04h)-1
 14528  13FF                     u696_25:
 14529  13FF  1003               	clrc
 14530  1400  0DF1               	rlf	(??i1_lcd_add+0)+0,f
 14531  1401  3EFF               	addlw	-1
 14532  1402  1D03               	skipz
 14533  1403  2BFF               	goto	u696_25
 14534  1404  1003               	clrc
 14535  1405  0D71               	rlf	(??i1_lcd_add+0)+0,w
 14536  1406  00F2               	movwf	(??i1_lcd_add+1)+0
 14537  1407  0872               	movf	(??i1_lcd_add+1)+0,w
 14538  1408  00DE               	movwf	(_lcd_data_low)
 14539                           	line	228
 14540                           ;lcdV2.h: 228: lcd_data_low = lcd_data_low >> 4;
 14541  1409  085E               	movf	(_lcd_data_low),w
 14542  140A  00F1               	movwf	(??i1_lcd_add+0)+0
 14543  140B  3004               	movlw	04h
 14544  140C                     u697_25:
 14545  140C  1003               	clrc
 14546  140D  0CF1               	rrf	(??i1_lcd_add+0)+0,f
 14547  140E  3EFF               	addlw	-1
 14548  140F  1D03               	skipz
 14549  1410  2C0C               	goto	u697_25
 14550  1411  0871               	movf	0+(??i1_lcd_add+0)+0,w
 14551  1412  00F2               	movwf	(??i1_lcd_add+1)+0
 14552  1413  0872               	movf	(??i1_lcd_add+1)+0,w
 14553  1414  00DE               	movwf	(_lcd_data_low)
 14554                           	line	230
 14555                           	
 14556  1415                     i1l7548:	
 14557                           ;lcdV2.h: 230: bit0 = lcd_data;
 14558  1415  1166               	bcf	(_bit0/8),(_bit0)&7
 14559  1416  1C5C               	btfss	(_lcd_data),0
 14560  1417  2C19               	goto	u698_25
 14561  1418  1566               	bsf	(_bit0/8),(_bit0)&7
 14562  1419                     u698_25:
 14563                           
 14564                           	line	231
 14565                           ;lcdV2.h: 231: bit1 = lcd_data>>1;
 14566  1419  1283               	bcf	status, 5	;RP0=0, select bank0
 14567  141A  1303               	bcf	status, 6	;RP1=0, select bank0
 14568  141B  085C               	movf	(_lcd_data),w
 14569  141C  00F1               	movwf	(??i1_lcd_add+0)+0
 14570  141D  3001               	movlw	01h
 14571  141E                     u699_25:
 14572  141E  1003               	clrc
 14573  141F  0CF1               	rrf	(??i1_lcd_add+0)+0,f
 14574  1420  3EFF               	addlw	-1
 14575  1421  1D03               	skipz
 14576  1422  2C1E               	goto	u699_25
 14577  1423  11E6               	bcf	(_bit1/8),(_bit1)&7
 14578  1424  1C71               	btfss	0+(??i1_lcd_add+0)+0,0
 14579  1425  2C27               	goto	u700_25
 14580  1426  15E6               	bsf	(_bit1/8),(_bit1)&7
 14581  1427                     u700_25:
 14582                           
 14583                           	line	232
 14584                           ;lcdV2.h: 232: bit2 = lcd_data>>2;
 14585  1427  1283               	bcf	status, 5	;RP0=0, select bank0
 14586  1428  1303               	bcf	status, 6	;RP1=0, select bank0
 14587  1429  085C               	movf	(_lcd_data),w
 14588  142A  00F1               	movwf	(??i1_lcd_add+0)+0
 14589  142B  3002               	movlw	02h
 14590  142C                     u701_25:
 14591  142C  1003               	clrc
 14592  142D  0CF1               	rrf	(??i1_lcd_add+0)+0,f
 14593  142E  3EFF               	addlw	-1
 14594  142F  1D03               	skipz
 14595  1430  2C2C               	goto	u701_25
 14596  1431  1266               	bcf	(_bit2/8),(_bit2)&7
 14597  1432  1C71               	btfss	0+(??i1_lcd_add+0)+0,0
 14598  1433  2C35               	goto	u702_25
 14599  1434  1666               	bsf	(_bit2/8),(_bit2)&7
 14600  1435                     u702_25:
 14601                           
 14602                           	line	233
 14603                           ;lcdV2.h: 233: bit3 = lcd_data>>3;
 14604  1435  1283               	bcf	status, 5	;RP0=0, select bank0
 14605  1436  1303               	bcf	status, 6	;RP1=0, select bank0
 14606  1437  085C               	movf	(_lcd_data),w
 14607  1438  00F1               	movwf	(??i1_lcd_add+0)+0
 14608  1439  3003               	movlw	03h
 14609  143A                     u703_25:
 14610  143A  1003               	clrc
 14611  143B  0CF1               	rrf	(??i1_lcd_add+0)+0,f
 14612  143C  3EFF               	addlw	-1
 14613  143D  1D03               	skipz
 14614  143E  2C3A               	goto	u703_25
 14615  143F  12E6               	bcf	(_bit3/8),(_bit3)&7
 14616  1440  1C71               	btfss	0+(??i1_lcd_add+0)+0,0
 14617  1441  2C43               	goto	u704_25
 14618  1442  16E6               	bsf	(_bit3/8),(_bit3)&7
 14619  1443                     u704_25:
 14620                           
 14621                           	line	234
 14622                           ;lcdV2.h: 234: bit4 = lcd_data>>4;
 14623  1443  1283               	bcf	status, 5	;RP0=0, select bank0
 14624  1444  1303               	bcf	status, 6	;RP1=0, select bank0
 14625  1445  085C               	movf	(_lcd_data),w
 14626  1446  00F1               	movwf	(??i1_lcd_add+0)+0
 14627  1447  3004               	movlw	04h
 14628  1448                     u705_25:
 14629  1448  1003               	clrc
 14630  1449  0CF1               	rrf	(??i1_lcd_add+0)+0,f
 14631  144A  3EFF               	addlw	-1
 14632  144B  1D03               	skipz
 14633  144C  2C48               	goto	u705_25
 14634  144D  1366               	bcf	(_bit4/8),(_bit4)&7
 14635  144E  1C71               	btfss	0+(??i1_lcd_add+0)+0,0
 14636  144F  2C51               	goto	u706_25
 14637  1450  1766               	bsf	(_bit4/8),(_bit4)&7
 14638  1451                     u706_25:
 14639                           
 14640                           	line	235
 14641                           ;lcdV2.h: 235: bit5 = lcd_data>>5;
 14642  1451  1283               	bcf	status, 5	;RP0=0, select bank0
 14643  1452  1303               	bcf	status, 6	;RP1=0, select bank0
 14644  1453  085C               	movf	(_lcd_data),w
 14645  1454  00F1               	movwf	(??i1_lcd_add+0)+0
 14646  1455  3005               	movlw	05h
 14647  1456                     u707_25:
 14648  1456  1003               	clrc
 14649  1457  0CF1               	rrf	(??i1_lcd_add+0)+0,f
 14650  1458  3EFF               	addlw	-1
 14651  1459  1D03               	skipz
 14652  145A  2C56               	goto	u707_25
 14653  145B  13E6               	bcf	(_bit5/8),(_bit5)&7
 14654  145C  1C71               	btfss	0+(??i1_lcd_add+0)+0,0
 14655  145D  2C5F               	goto	u708_25
 14656  145E  17E6               	bsf	(_bit5/8),(_bit5)&7
 14657  145F                     u708_25:
 14658                           
 14659                           	line	236
 14660                           ;lcdV2.h: 236: bit6 = lcd_data>>6;
 14661  145F  1283               	bcf	status, 5	;RP0=0, select bank0
 14662  1460  1303               	bcf	status, 6	;RP1=0, select bank0
 14663  1461  085C               	movf	(_lcd_data),w
 14664  1462  00F1               	movwf	(??i1_lcd_add+0)+0
 14665  1463  3006               	movlw	06h
 14666  1464                     u709_25:
 14667  1464  1003               	clrc
 14668  1465  0CF1               	rrf	(??i1_lcd_add+0)+0,f
 14669  1466  3EFF               	addlw	-1
 14670  1467  1D03               	skipz
 14671  1468  2C64               	goto	u709_25
 14672  1469  1067               	bcf	(_bit6/8),(_bit6)&7
 14673  146A  1C71               	btfss	0+(??i1_lcd_add+0)+0,0
 14674  146B  2C6D               	goto	u710_25
 14675  146C  1467               	bsf	(_bit6/8),(_bit6)&7
 14676  146D                     u710_25:
 14677                           
 14678                           	line	237
 14679                           ;lcdV2.h: 237: bit7 = lcd_data>>7;
 14680  146D  1283               	bcf	status, 5	;RP0=0, select bank0
 14681  146E  1303               	bcf	status, 6	;RP1=0, select bank0
 14682  146F  085C               	movf	(_lcd_data),w
 14683  1470  00F1               	movwf	(??i1_lcd_add+0)+0
 14684  1471  3007               	movlw	07h
 14685  1472                     u711_25:
 14686  1472  1003               	clrc
 14687  1473  0CF1               	rrf	(??i1_lcd_add+0)+0,f
 14688  1474  3EFF               	addlw	-1
 14689  1475  1D03               	skipz
 14690  1476  2C72               	goto	u711_25
 14691  1477  10E7               	bcf	(_bit7/8),(_bit7)&7
 14692  1478  1C71               	btfss	0+(??i1_lcd_add+0)+0,0
 14693  1479  2C7B               	goto	u712_25
 14694  147A  14E7               	bsf	(_bit7/8),(_bit7)&7
 14695  147B                     u712_25:
 14696                           
 14697                           	line	239
 14698                           	
 14699  147B                     i1l7550:	
 14700                           ;lcdV2.h: 239: RC3 = 0;
 14701  147B  1283               	bcf	status, 5	;RP0=0, select bank0
 14702  147C  1303               	bcf	status, 6	;RP1=0, select bank0
 14703  147D  1187               	bcf	(59/8),(59)&7
 14704                           	line	240
 14705                           	
 14706  147E                     i1l7552:	
 14707                           ;lcdV2.h: 240: _delay(1);
 14708                           		opt asmopt_off
 14709  147E  0064               	clrwdt
 14710                           	opt asmopt_on
 14711                           
 14712                           	line	241
 14713                           	
 14714  147F                     i1l7554:	
 14715                           ;lcdV2.h: 241: RC3 = 1;
 14716  147F  1283               	bcf	status, 5	;RP0=0, select bank0
 14717  1480  1303               	bcf	status, 6	;RP1=0, select bank0
 14718  1481  1587               	bsf	(59/8),(59)&7
 14719                           	line	242
 14720                           	
 14721  1482                     i1l7556:	
 14722                           ;lcdV2.h: 242: _delay(1);
 14723                           		opt asmopt_off
 14724  1482  0064               	clrwdt
 14725                           	opt asmopt_on
 14726                           
 14727                           	line	244
 14728                           	
 14729  1483                     i1l7558:	
 14730                           ;lcdV2.h: 244: RC1 = bit4;
 14731  1483  1283               	bcf	status, 5	;RP0=0, select bank0
 14732  1484  1303               	bcf	status, 6	;RP1=0, select bank0
 14733  1485  1B66               	btfsc	(_bit4/8),(_bit4)&7
 14734  1486  2C88               	goto	u713_21
 14735  1487  2C8C               	goto	u713_20
 14736                           	
 14737  1488                     u713_21:
 14738  1488  1283               	bcf	status, 5	;RP0=0, select bank0
 14739  1489  1303               	bcf	status, 6	;RP1=0, select bank0
 14740  148A  1487               	bsf	(57/8),(57)&7
 14741  148B  2C8F               	goto	u714_24
 14742  148C                     u713_20:
 14743  148C  1283               	bcf	status, 5	;RP0=0, select bank0
 14744  148D  1303               	bcf	status, 6	;RP1=0, select bank0
 14745  148E  1087               	bcf	(57/8),(57)&7
 14746  148F                     u714_24:
 14747                           	line	245
 14748                           	
 14749  148F                     i1l7560:	
 14750                           ;lcdV2.h: 245: RD0 = bit5;
 14751  148F  1BE6               	btfsc	(_bit5/8),(_bit5)&7
 14752  1490  2C92               	goto	u715_21
 14753  1491  2C96               	goto	u715_20
 14754                           	
 14755  1492                     u715_21:
 14756  1492  1283               	bcf	status, 5	;RP0=0, select bank0
 14757  1493  1303               	bcf	status, 6	;RP1=0, select bank0
 14758  1494  1408               	bsf	(64/8),(64)&7
 14759  1495  2C99               	goto	u716_24
 14760  1496                     u715_20:
 14761  1496  1283               	bcf	status, 5	;RP0=0, select bank0
 14762  1497  1303               	bcf	status, 6	;RP1=0, select bank0
 14763  1498  1008               	bcf	(64/8),(64)&7
 14764  1499                     u716_24:
 14765                           	line	246
 14766                           	
 14767  1499                     i1l7562:	
 14768                           ;lcdV2.h: 246: RC0 = bit6;
 14769  1499  1867               	btfsc	(_bit6/8),(_bit6)&7
 14770  149A  2C9C               	goto	u717_21
 14771  149B  2CA0               	goto	u717_20
 14772                           	
 14773  149C                     u717_21:
 14774  149C  1283               	bcf	status, 5	;RP0=0, select bank0
 14775  149D  1303               	bcf	status, 6	;RP1=0, select bank0
 14776  149E  1407               	bsf	(56/8),(56)&7
 14777  149F  2CA3               	goto	u718_24
 14778  14A0                     u717_20:
 14779  14A0  1283               	bcf	status, 5	;RP0=0, select bank0
 14780  14A1  1303               	bcf	status, 6	;RP1=0, select bank0
 14781  14A2  1007               	bcf	(56/8),(56)&7
 14782  14A3                     u718_24:
 14783                           	line	247
 14784                           	
 14785  14A3                     i1l7564:	
 14786                           ;lcdV2.h: 247: RD1 = bit7;
 14787  14A3  18E7               	btfsc	(_bit7/8),(_bit7)&7
 14788  14A4  2CA6               	goto	u719_21
 14789  14A5  2CAA               	goto	u719_20
 14790                           	
 14791  14A6                     u719_21:
 14792  14A6  1283               	bcf	status, 5	;RP0=0, select bank0
 14793  14A7  1303               	bcf	status, 6	;RP1=0, select bank0
 14794  14A8  1488               	bsf	(65/8),(65)&7
 14795  14A9  2CAD               	goto	u720_24
 14796  14AA                     u719_20:
 14797  14AA  1283               	bcf	status, 5	;RP0=0, select bank0
 14798  14AB  1303               	bcf	status, 6	;RP1=0, select bank0
 14799  14AC  1088               	bcf	(65/8),(65)&7
 14800  14AD                     u720_24:
 14801                           	line	249
 14802                           	
 14803  14AD                     i1l7566:	
 14804                           ;lcdV2.h: 249: _delay(1);
 14805                           		opt asmopt_off
 14806  14AD  0064               	clrwdt
 14807                           	opt asmopt_on
 14808                           
 14809                           	line	250
 14810                           	
 14811  14AE                     i1l7568:	
 14812                           ;lcdV2.h: 250: RC3 = 0;
 14813  14AE  1283               	bcf	status, 5	;RP0=0, select bank0
 14814  14AF  1303               	bcf	status, 6	;RP1=0, select bank0
 14815  14B0  1187               	bcf	(59/8),(59)&7
 14816                           	line	251
 14817                           	
 14818  14B1                     i1l7570:	
 14819                           ;lcdV2.h: 251: _delay(1);
 14820                           		opt asmopt_off
 14821  14B1  0064               	clrwdt
 14822                           	opt asmopt_on
 14823                           
 14824                           	line	255
 14825                           	
 14826  14B2                     i1l7572:	
 14827                           ;lcdV2.h: 255: RC3 = 0;
 14828  14B2  1283               	bcf	status, 5	;RP0=0, select bank0
 14829  14B3  1303               	bcf	status, 6	;RP1=0, select bank0
 14830  14B4  1187               	bcf	(59/8),(59)&7
 14831                           	line	256
 14832                           	
 14833  14B5                     i1l7574:	
 14834                           ;lcdV2.h: 256: _delay(1);
 14835                           		opt asmopt_off
 14836  14B5  0064               	clrwdt
 14837                           	opt asmopt_on
 14838                           
 14839                           	line	257
 14840                           	
 14841  14B6                     i1l7576:	
 14842                           ;lcdV2.h: 257: RC3 = 1;
 14843  14B6  1283               	bcf	status, 5	;RP0=0, select bank0
 14844  14B7  1303               	bcf	status, 6	;RP1=0, select bank0
 14845  14B8  1587               	bsf	(59/8),(59)&7
 14846                           	line	258
 14847                           	
 14848  14B9                     i1l7578:	
 14849                           ;lcdV2.h: 258: _delay(1);
 14850                           		opt asmopt_off
 14851  14B9  0064               	clrwdt
 14852                           	opt asmopt_on
 14853                           
 14854                           	line	260
 14855                           	
 14856  14BA                     i1l7580:	
 14857                           ;lcdV2.h: 260: RC1 = bit0;
 14858  14BA  1283               	bcf	status, 5	;RP0=0, select bank0
 14859  14BB  1303               	bcf	status, 6	;RP1=0, select bank0
 14860  14BC  1966               	btfsc	(_bit0/8),(_bit0)&7
 14861  14BD  2CBF               	goto	u721_21
 14862  14BE  2CC3               	goto	u721_20
 14863                           	
 14864  14BF                     u721_21:
 14865  14BF  1283               	bcf	status, 5	;RP0=0, select bank0
 14866  14C0  1303               	bcf	status, 6	;RP1=0, select bank0
 14867  14C1  1487               	bsf	(57/8),(57)&7
 14868  14C2  2CC6               	goto	u722_24
 14869  14C3                     u721_20:
 14870  14C3  1283               	bcf	status, 5	;RP0=0, select bank0
 14871  14C4  1303               	bcf	status, 6	;RP1=0, select bank0
 14872  14C5  1087               	bcf	(57/8),(57)&7
 14873  14C6                     u722_24:
 14874                           	line	261
 14875                           	
 14876  14C6                     i1l7582:	
 14877                           ;lcdV2.h: 261: RD0 = bit1;
 14878  14C6  19E6               	btfsc	(_bit1/8),(_bit1)&7
 14879  14C7  2CC9               	goto	u723_21
 14880  14C8  2CCD               	goto	u723_20
 14881                           	
 14882  14C9                     u723_21:
 14883  14C9  1283               	bcf	status, 5	;RP0=0, select bank0
 14884  14CA  1303               	bcf	status, 6	;RP1=0, select bank0
 14885  14CB  1408               	bsf	(64/8),(64)&7
 14886  14CC  2CD0               	goto	u724_24
 14887  14CD                     u723_20:
 14888  14CD  1283               	bcf	status, 5	;RP0=0, select bank0
 14889  14CE  1303               	bcf	status, 6	;RP1=0, select bank0
 14890  14CF  1008               	bcf	(64/8),(64)&7
 14891  14D0                     u724_24:
 14892                           	line	262
 14893                           	
 14894  14D0                     i1l7584:	
 14895                           ;lcdV2.h: 262: RC0 = bit2;
 14896  14D0  1A66               	btfsc	(_bit2/8),(_bit2)&7
 14897  14D1  2CD3               	goto	u725_21
 14898  14D2  2CD7               	goto	u725_20
 14899                           	
 14900  14D3                     u725_21:
 14901  14D3  1283               	bcf	status, 5	;RP0=0, select bank0
 14902  14D4  1303               	bcf	status, 6	;RP1=0, select bank0
 14903  14D5  1407               	bsf	(56/8),(56)&7
 14904  14D6  2CDA               	goto	u726_24
 14905  14D7                     u725_20:
 14906  14D7  1283               	bcf	status, 5	;RP0=0, select bank0
 14907  14D8  1303               	bcf	status, 6	;RP1=0, select bank0
 14908  14D9  1007               	bcf	(56/8),(56)&7
 14909  14DA                     u726_24:
 14910                           	line	263
 14911                           	
 14912  14DA                     i1l7586:	
 14913                           ;lcdV2.h: 263: RD1 = bit3;
 14914  14DA  1AE6               	btfsc	(_bit3/8),(_bit3)&7
 14915  14DB  2CDD               	goto	u727_21
 14916  14DC  2CE1               	goto	u727_20
 14917                           	
 14918  14DD                     u727_21:
 14919  14DD  1283               	bcf	status, 5	;RP0=0, select bank0
 14920  14DE  1303               	bcf	status, 6	;RP1=0, select bank0
 14921  14DF  1488               	bsf	(65/8),(65)&7
 14922  14E0  2CE4               	goto	u728_24
 14923  14E1                     u727_20:
 14924  14E1  1283               	bcf	status, 5	;RP0=0, select bank0
 14925  14E2  1303               	bcf	status, 6	;RP1=0, select bank0
 14926  14E3  1088               	bcf	(65/8),(65)&7
 14927  14E4                     u728_24:
 14928                           	line	265
 14929                           	
 14930  14E4                     i1l7588:	
 14931                           ;lcdV2.h: 265: _delay(1);
 14932                           		opt asmopt_off
 14933  14E4  0064               	clrwdt
 14934                           	opt asmopt_on
 14935                           
 14936                           	line	266
 14937                           	
 14938  14E5                     i1l7590:	
 14939                           ;lcdV2.h: 266: RC3 = 0;
 14940  14E5  1283               	bcf	status, 5	;RP0=0, select bank0
 14941  14E6  1303               	bcf	status, 6	;RP1=0, select bank0
 14942  14E7  1187               	bcf	(59/8),(59)&7
 14943                           	line	267
 14944                           	
 14945  14E8                     i1l7592:	
 14946                           ;lcdV2.h: 267: _delay(1);
 14947                           		opt asmopt_off
 14948  14E8  0064               	clrwdt
 14949                           	opt asmopt_on
 14950                           
 14951                           	line	268
 14952                           	
 14953  14E9                     i1l841:	
 14954  14E9  0008               	return
 14955                           	opt stack 0
 14956                           GLOBAL	__end_ofi1_lcd_add
 14957  14EA                     	__end_ofi1_lcd_add:
 14958 ;; =============== function i1_lcd_add ends ============
 14959                           
 14960                           	signat	i1_lcd_add,88
 14961                           	global	i1___lwmod
 14962                           psect	text1526,local,class=CODE,delta=2
 14963                           global __ptext1526
 14964  1DD0                     __ptext1526:
 14965                           
 14966 ;; *************** function i1___lwmod *****************
 14967 ;; Defined at:
 14968 ;;		line 5 in file "C:\Program Files (x86)\HI-TECH Software\PICC\9.83\sources\lwmod.c"
 14969 ;; Parameters:    Size  Location     Type
 14970 ;;  __lwmod         2    0[COMMON] unsigned int 
 14971 ;;  __lwmod         2    2[COMMON] unsigned int 
 14972 ;; Auto vars:     Size  Location     Type
 14973 ;;  __lwmod         1    5[COMMON] unsigned char 
 14974 ;; Return value:  Size  Location     Type
 14975 ;;                  2    0[COMMON] unsigned int 
 14976 ;; Registers used:
 14977 ;;		wreg, status,2, status,0
 14978 ;; Tracked objects:
 14979 ;;		On entry : 0/0
 14980 ;;		On exit  : 0/0
 14981 ;;		Unchanged: 0/0
 14982 ;; Data sizes:     COMMON   BANK0   BANK1   BANK3   BANK2
 14983 ;;      Params:         4       0       0       0       0
 14984 ;;      Locals:         1       0       0       0       0
 14985 ;;      Temps:          1       0       0       0       0
 14986 ;;      Totals:         6       0       0       0       0
 14987 ;;Total ram usage:        6 bytes
 14988 ;; Hardware stack levels used:    1
 14989 ;; This function calls:
 14990 ;;		Nothing
 14991 ;; This function is called by:
 14992 ;;		_isr
 14993 ;; This function uses a non-reentrant model
 14994 ;;
 14995                           psect	text1526
 14996                           	file	"C:\Program Files (x86)\HI-TECH Software\PICC\9.83\sources\lwmod.c"
 14997                           	line	5
 14998                           	global	__size_ofi1___lwmod
 14999  0044                     	__size_ofi1___lwmod	equ	__end_ofi1___lwmod-i1___lwmod
 15000                           	
 15001  1DD0                     i1___lwmod:	
 15002                           	opt	stack 2
 15003                           ; Regs used in i1___lwmod: [wreg+status,2+status,0]
 15004                           	line	8
 15005                           	
 15006  1DD0                     i1l7594:	
 15007  1DD0  0872               	movf	(i1___lwmod@divisor+1),w
 15008  1DD1  0471               	iorwf	(i1___lwmod@divisor),w
 15009  1DD2  1903               	skipnz
 15010  1DD3  2DD5               	goto	u729_21
 15011  1DD4  2DD6               	goto	u729_20
 15012  1DD5                     u729_21:
 15013  1DD5  2E0C               	goto	i1l7612
 15014  1DD6                     u729_20:
 15015                           	line	9
 15016                           	
 15017  1DD6                     i1l7596:	
 15018  1DD6  01F6               	clrf	(i1___lwmod@counter)
 15019  1DD7  1403               	bsf	status,0
 15020  1DD8  0DF6               	rlf	(i1___lwmod@counter),f
 15021                           	line	10
 15022  1DD9  2DE6               	goto	i1l7602
 15023                           	
 15024  1DDA                     i1l3288:	
 15025                           	line	11
 15026                           	
 15027  1DDA                     i1l7598:	
 15028  1DDA  3001               	movlw	01h
 15029                           	
 15030  1DDB                     u730_25:
 15031  1DDB  1003               	clrc
 15032  1DDC  0DF1               	rlf	(i1___lwmod@divisor),f
 15033  1DDD  0DF2               	rlf	(i1___lwmod@divisor+1),f
 15034  1DDE  3EFF               	addlw	-1
 15035  1DDF  1D03               	skipz
 15036  1DE0  2DDB               	goto	u730_25
 15037                           	line	12
 15038                           	
 15039  1DE1                     i1l7600:	
 15040  1DE1  3001               	movlw	(01h)
 15041  1DE2  00F5               	movwf	(??i1___lwmod+0)+0
 15042  1DE3  0875               	movf	(??i1___lwmod+0)+0,w
 15043  1DE4  07F6               	addwf	(i1___lwmod@counter),f
 15044  1DE5  2DE6               	goto	i1l7602
 15045                           	line	13
 15046                           	
 15047  1DE6                     i1l3287:	
 15048                           	line	10
 15049                           	
 15050  1DE6                     i1l7602:	
 15051  1DE6  1FF2               	btfss	(i1___lwmod@divisor+1),(15)&7
 15052  1DE7  2DE9               	goto	u731_21
 15053  1DE8  2DEA               	goto	u731_20
 15054  1DE9                     u731_21:
 15055  1DE9  2DDA               	goto	i1l7598
 15056  1DEA                     u731_20:
 15057  1DEA  2DEC               	goto	i1l7604
 15058                           	
 15059  1DEB                     i1l3289:	
 15060  1DEB  2DEC               	goto	i1l7604
 15061                           	line	14
 15062                           	
 15063  1DEC                     i1l3290:	
 15064                           	line	15
 15065                           	
 15066  1DEC                     i1l7604:	
 15067  1DEC  0872               	movf	(i1___lwmod@divisor+1),w
 15068  1DED  0274               	subwf	(i1___lwmod@dividend+1),w
 15069  1DEE  1D03               	skipz
 15070  1DEF  2DF2               	goto	u732_25
 15071  1DF0  0871               	movf	(i1___lwmod@divisor),w
 15072  1DF1  0273               	subwf	(i1___lwmod@dividend),w
 15073  1DF2                     u732_25:
 15074  1DF2  1C03               	skipc
 15075  1DF3  2DF5               	goto	u732_21
 15076  1DF4  2DF6               	goto	u732_20
 15077  1DF5                     u732_21:
 15078  1DF5  2DFD               	goto	i1l7608
 15079  1DF6                     u732_20:
 15080                           	line	16
 15081                           	
 15082  1DF6                     i1l7606:	
 15083  1DF6  0871               	movf	(i1___lwmod@divisor),w
 15084  1DF7  02F3               	subwf	(i1___lwmod@dividend),f
 15085  1DF8  0872               	movf	(i1___lwmod@divisor+1),w
 15086  1DF9  1C03               	skipc
 15087  1DFA  03F4               	decf	(i1___lwmod@dividend+1),f
 15088  1DFB  02F4               	subwf	(i1___lwmod@dividend+1),f
 15089  1DFC  2DFD               	goto	i1l7608
 15090                           	
 15091  1DFD                     i1l3291:	
 15092                           	line	17
 15093                           	
 15094  1DFD                     i1l7608:	
 15095  1DFD  3001               	movlw	01h
 15096                           	
 15097  1DFE                     u733_25:
 15098  1DFE  1003               	clrc
 15099  1DFF  0CF2               	rrf	(i1___lwmod@divisor+1),f
 15100  1E00  0CF1               	rrf	(i1___lwmod@divisor),f
 15101  1E01  3EFF               	addlw	-1
 15102  1E02  1D03               	skipz
 15103  1E03  2DFE               	goto	u733_25
 15104                           	line	18
 15105                           	
 15106  1E04                     i1l7610:	
 15107  1E04  3001               	movlw	low(01h)
 15108  1E05  02F6               	subwf	(i1___lwmod@counter),f
 15109  1E06  1D03               	btfss	status,2
 15110  1E07  2E09               	goto	u734_21
 15111  1E08  2E0A               	goto	u734_20
 15112  1E09                     u734_21:
 15113  1E09  2DEC               	goto	i1l7604
 15114  1E0A                     u734_20:
 15115  1E0A  2E0C               	goto	i1l7612
 15116                           	
 15117  1E0B                     i1l3292:	
 15118  1E0B  2E0C               	goto	i1l7612
 15119                           	line	19
 15120                           	
 15121  1E0C                     i1l3286:	
 15122                           	line	20
 15123                           	
 15124  1E0C                     i1l7612:	
 15125  1E0C  0874               	movf	(i1___lwmod@dividend+1),w
 15126  1E0D  01F2               	clrf	(?i1___lwmod+1)
 15127  1E0E  07F2               	addwf	(?i1___lwmod+1)
 15128  1E0F  0873               	movf	(i1___lwmod@dividend),w
 15129  1E10  01F1               	clrf	(?i1___lwmod)
 15130  1E11  07F1               	addwf	(?i1___lwmod)
 15131                           
 15132  1E12  2E13               	goto	i1l3293
 15133                           	
 15134  1E13                     i1l7614:	
 15135                           	line	21
 15136                           	
 15137  1E13                     i1l3293:	
 15138  1E13  0008               	return
 15139                           	opt stack 0
 15140                           GLOBAL	__end_ofi1___lwmod
 15141  1E14                     	__end_ofi1___lwmod:
 15142 ;; =============== function i1___lwmod ends ============
 15143                           
 15144                           	signat	i1___lwmod,90
 15145                           psect	text1527,local,class=CODE,delta=2
 15146                           global __ptext1527
 15147  0000                     __ptext1527:
 15148                           	global	btemp
 15149  007E                     	btemp set 07Eh
 15150                           
 15151                           	DABS	1,126,2	;btemp
 15152                           	global	wtemp0
 15153  007E                     	wtemp0 set btemp


HI-TECH Software PICC Macro Assembler V9.83 build 10920 
Symbol Table                                                                                   Sat Mar 05 21:13:10 2016

          ?_Serial_Print_Int 002E                            _i 0069                            _j 005A  
                          _v 0060                            _w 0061                            _x 0063  
                          _y 0064                            _z 0065                            pc 0002  
             ___bmul@product 0027                           _GO 00FA                           _RD 0C60  
                         _WR 0C61                 ___awdiv@sign 002B                           _rc 00B4  
                         fsr 0004           ??_Serial_Print_Int 0030          ___wmul@multiplicand 0027  
         _Serial_Println_Int 0D45                          l800 1C0A                          l810 12CE  
                        l811 12E8                          l803 1244                          l812 12F8  
                        l804 1253                          l900 0E16                          l813 12F8  
                        l805 126D                          l901 0E16                          l806 127C  
                        l910 0E9C                          l902 0E1B                          l822 0032  
                        l807 1296                          l903 0FD3                          l911 0ECE  
                        l808 12A5                          l920 0F4F                          l904 0F05  
                        l912 0ECE                          l809 12BF                          l841 15E5  
                        l921 0F54                          l913 0ED3                          l905 0E5E  
                        l825 1C55                          l850 1E7A                          l930 0FE3  
                        l914 0FD2                          l922 0FD1                          l906 0E5E  
                        l851 1E7A                          l931 0FE3                          l923 0FD0  
                        l915 0F86                          l907 0E65                          l852 1E7F  
                        l860 1C86                          l932 0FEA                          l924 0F97  
                        l916 0F16                          l908 0E97                          l836 1D9E  
                        l828 1B7E                          l853 1E9F                          l861 1C87  
                        l933 0FF1                          l925 0F97                          l917 0F16  
                        l909 0E97                          l837 1DA9                          l862 1C87  
                        l870 1BA9                          l934 0FF1                          l926 0F9E  
                        l918 0F1D                          l950 0AD0                          l838 1DCF  
                        l847 1AEA                          l863 1C8C                          l871 1BB3  
                        l935 0FF8                          l919 0F4F                          l927 0FD4  
                        l951 0AD0                          l856 1B5D                          l864 1CAD  
                        l872 1BB3                          l936 0FFF                          l928 0FD4  
                        l960 0B77                          l952 0AD7                          l865 1CAD  
                        l873 1BBA                          l929 0FDB                          l961 0B7C  
                        l953 0B09                          l945 0AC1                          l874 1BC3  
                        l890 0E4D                          l962 0D34                          l970 0C2F  
                        l954 0B09                          l946 0AAE                          l859 1CA0  
                        l891 0D6F                          l963 0C66                          l971 0C2F  
                        l955 0B0E                          l947 0AAE                          l868 1BA2  
                        l892 0D6F                          l980 0CB5                          l972 0C34  
                        l964 0BBF                          l956 0B40                          l948 0AB3  
                        l797 1AD9                          l869 1BA2                          l893 0D76  
                        l973 0D33                          l981 0D32                          l965 0BBF  
                        l949 0BAE                          l957 0B40                          l894 0DA8  
                        l886 0D60                          l982 0D31                          l974 0CE7  
                        l966 0BC6                          l958 0B45                          l895 0DA8  
                        l887 0D4D                          l983 0CF8                          l975 0C77  
                        l967 0BF8                          l959 0B77                          l992 1B0C  
                        l896 0DAD                          l888 0D4D                          l984 0CF8  
                        l976 0C77                          l968 0BF8                          l897 0DDF  
                        l889 0D52                          l985 0CFF                          l977 0C7E  
                        l969 0BFD                          l898 0DDF                          l978 0CB0  
                        l986 0D35                          l995 1AF9                          l899 0DE4  
                        l987 0D35                          l979 0CB0                          _GIE 005F  
                        l988 0D3C                          l989 0D44                          l998 0159  
                        l999 0210                          _RC0 0038                          _RB2 0032  
                        _RC1 0039                          _RB3 0033                          _RD0 0040  
                        _RC2 003A                          _RB4 0034                          _RD1 0041  
                        _RC3 003B                          _RB5 0035                          _RD2 0042  
                        _RC4 003C                          _RD3 0043                          _RC5 003D  
                        _RD4 0044                          _RD5 0045                          _RD6 0046  
                        _RD7 0047                          _RX9 00C6                          _TX9 04C6  
              _LCDTimeUpdate 1192                          _Nop 0331                          _isr 15E6  
                        _nop 1AD5                          fsr0 0004                          indf 0000  
               ___awmod@sign 002B          ?_Serial_Println_Int 002E                         l1000 015A  
                       l1001 0232                         l1010 0209                         l1002 015B  
                       l1011 0233                         l1003 0164                         l1100 17CE  
                       l1012 0234                         l1004 016D                         l1101 17DC  
                       l1013 0234                         l1005 0176                         l1110 1CCB  
                       l1102 17EA                         l1030 0959                         l1006 017F  
                       l1111 1CD8                         l1103 17F8                         l1031 0A62  
                       l1007 0201                         l1112 1CD4                         l1040 09B8  
                       l1032 096C                         l1016 13ED                         l1008 0202  
                       l1113 1CD7                         l1033 0A61                         l1041 0A5D  
                       l1025 0A64                         l1017 131C                         l1009 0208  
                       l1114 1CE1                         l1106 1CB9                         l1122 1EEB  
                       l1130 10AD                         l1050 0A17                         l1042 09CB  
                       l1034 097F                         l1026 0933                         l1018 13ED  
                       l1107 1CDA                         l1123 1EA7                         l1131 10B3  
                       l1027 0A64                         l1035 0A60                         l1043 0A5C  
                       l1051 0A58                         l1108 1CC2                         l1124 1EF9  
                       l1060 0A6D                         l1052 0A2A                         l1044 09DE  
                       l1036 0992                         l1028 0946                         l1300 061D  
                       l1220 025A                         l1109 1CD9                         l1125 1EFF  
                       l1061 0A72                         l1029 0A63                         l1037 0A5F  
                       l1045 0A5B                         l1053 0A57                         l1213 07E9  
                       l1301 0659                         l1221 0260                         l1134 1D1A  
                       l1062 0AA3                         l1070 0A8B                         l1054 0A3D  
                       l1046 09F1                         l1038 09A5                         l1310 0662  
                       l1302 0628                         l1230 02FF                         l1222 0266  
                       l1214 023F                         l1071 0A90                         l1063 0A82  
                       l1039 0A5E                         l1047 0A5A                         l1055 0A56  
                       l1311 0677                         l1303 0658                         l1231 0364  
                       l1223 0281                         l1215 024C                         l1128 109F  
                       l1080 1739                         l1072 0AA1                         l1064 0A7C  
                       l1056 0A50                         l1048 0A04                         l1240 07FF  
                       l1312 0703                         l1320 0702                         l1304 0657  
                       l1232 032F                         l1224 0283                         l1216 0253  
                       l1129 105B                         l1081 170E                         l1073 0AA0  
                       l1065 0A7C                         l1049 0A59                         l1057 0A55  
                       l1321 0701                         l1313 069A                         l1241 0368  
                       l1233 0363                         l1225 028C                         l1217 026D  
                       l1090 176A                         l1082 17FF                         l1074 0A9A  
                       l1066 0A81                         l1058 0A73                         l1330 0706  
                       l1314 0684                         l1306 064B                         l1242 0441  
                       l1250 039C                         l1234 0351                         l1226 02E0  
                       l1218 0254                         l1091 1778                         l1083 171C  
                       l1067 0AA2                         l1075 0A9A                         l1059 0A6D  
                       l1331 07AD                         l1323 06F5                         l1315 0699  
                       l1251 03BD                         l1243 036A                         l1235 0331  
                       l1227 02A1                         l1219 0282                         l1092 17FB  
                       l1084 172A                         l1076 0A9F                         l1068 0A91  
                       l1340 07D2                         l1332 073D                         l1316 06AD  
                       l1308 0650                         l1260 03E4                         l1252 03A9  
                       l1244 036B                         l1236 0362                         l1228 02DF  
                       l1093 17B9                         l1085 1738                         l1077 0AA5  
                       l1069 0A8B                         l1341 07E7                         l1325 06FA  
                       l1317 06B9                         l1309 0678                         l1261 03FE  
                       l1253 03A2                         l1245 036C                         l1237 0366  
                       l1229 0300                         l1086 17FC                         l1094 178E  
                       l1342 07FE                         l1326 07B4                         l1334 0746  
                       l1318 06B8                         l1270 0486                         l1238 041B  
                       l1262 0400                         l1254 03BC                         l1246 036D  
                       l1095 179C                         l1087 1779                         l1327 0704  
                       l1319 06D2                         l1271 0487                         l1263 040C  
                       l1255 03CE                         l1247 036F                         l1343 07FF  
                       l1239 0367                         l1096 17AA                         l1088 174E  
                       l1328 079C                         l1336 074B                         l1280 04EF  
                       l1272 0492                         l1264 0415                         l1256 03BE  
                       l1248 0388                         l1097 17B8                         l1089 175C  
                       l1337 0776                         l1329 0705                         l1281 04FA  
                       l1273 04BA                         l1265 0468                         l1257 03DE  
                       l1249 0399                         l1098 17FA                         l1338 07C0  
                       l1290 0594                         l1282 0522                         l1274 04AF  
                       l1266 0467                         l1258 03FF                         l1099 17F9  
                       l1339 07E8                         l1291 05B3                         l1275 0533  
                       l1283 0517                         l1267 0475                         l1259 03EB  
                       l1292 05B2                         l1284 0542                         l1276 04BB  
                       l1268 0485                         l1196 1226                         l1293 05E0  
                       l1285 0551                         l1269 0524                         l1277 04C6  
                       l1294 05DF                         l1286 0551                         l1278 04EE  
                       l1295 05D9                         l1287 056A                         l1279 04E3  
                       l1296 05DE                         l1288 0595                         l1297 0601  
                       l1289 058F                         l3410 112C                         l1298 0606  
                       l3411 113A                         l1299 0679                         l3260 1B21  
                       l3420 1191                         l3412 1180                         l3261 1B23  
                       l3413 1152                         l3270 1C5B                         l3414 1146  
                       l3271 1C65                         l3415 1157                         l3264 1B28  
                       l3272 1C7A                         l3280 1024                         l3416 1158  
                       l3265 1B31                         l3273 1C81                         l3281 103D  
                       l3417 1171                         l3266 1B3B                         l3282 104B  
                       l3290 1E32                         l3418 117F                         l3267 1B3D  
                       l3283 1053                         l3291 1E43                         l3419 118A  
                       l2580 1D8F                         l3276 104C                         l3292 1E51  
                       l2581 1D90                         l3277 101E                         l3293 1E59  
                       l2582 1D90                         l3278 1012                         l3286 1E52  
                       l2575 1D59                         l3279 1023                         l3287 1E2C  
                       l2576 1D5A                         l1960 1C2F                         l3288 1E20  
                       l3480 110A                         l2577 1D5A                         l3289 1E31  
                       l3481 10E4                         l2578 1D61                         l3482 10D8  
                       l2579 1D7D                         l3483 10E9                         l3484 10EA  
                       l3485 10FB                         l1958 1C0E                         l3486 1109  
                       l3478 10C4                         l1959 1C16                         l3487 1114  
                       l3479 10CE                         l3488 111B                         l9100 1E20  
                       l9110 1E43                         l9102 1E27                         _ADIE 0466  
                       l9040 1B21                         l9032 1B10                         l9112 1E4A  
                       l9104 1E2C                         l9120 1123                         l9200 157B  
                       l9042 1B23                         l9034 1B11                         l9050 1B33  
                       l9106 1E32                         l9114 1E52                         l9130 113C  
                       l9122 112C                         l9210 159F                         l9202 157E  
                       l9036 1B17                         l9052 1B35                         l9044 1B27  
                       l9060 1C5B                         l9116 1E59                         l9108 1E3C  
                       l9140 1158                         l9132 1142                         l9124 1130  
                       l9220 15B1                         l9212 15A9                         l9204 157F  
                       l9300 0D8E                         ?_isr 0071                         l9038 1B1D  
                       l9054 1B3B                         l9046 1B2C                         l9062 1C5F  
                       l9070 1004                         l9142 1169                         l9134 1146  
                       l9150 1180                         l9126 1135                         l9118 111C  
                       l9230 15CC                         l9222 15B2                         l9214 15AA  
                       l9206 158B                         l9310 0DF8                         l9302 0DAD  
                       l9056 1B3D                         l9048 1B31                         l9064 1C6C  
                       l9080 101E                         l9072 1008                         l9152 1184  
                       l9144 116F                         l9136 114D                         l9128 113A  
                       l9160 10BB                         l9232 15D6                         l9224 15B5  
                       l9216 15AD                         l9208 1595                         l9240 1E5D  
                       l9312 0DFC                         l9304 0DC1                         l9320 0E4D  
                       l9400 0B26                         l9066 1C7A                         l9058 1C56  
                       l9090 1044                         l9082 1024                         l9074 100E  
                       l9154 118A                         l9146 1171                         l9138 1152  
                       l9170 10D8                         l9162 10C4                         l9234 15E0  
                       l9226 15B6                         l9218 15AE                         l9250 1E76  
                       l9242 1E6A                         l9330 0E9C                         l9322 0E5D  
                       l9314 0E1B                         l9306 0DC5                         l9410 0B90  
                       l9402 0B45                         l9068 1C81                         l9084 1035  
                       l9076 1012                         l9092 104C                         l9156 1191  
                       l9148 1178                         l9180 10FB                         l9172 10DF  
                       l9164 10C8                         l9236 15E1                         l9228 15C2  
                       l9252 1E7F                         l9244 1E6D                         l9260 1B49  
                       l9340 0EEB                         l9332 0EB0                         l9324 0E65  
                       l9316 0E2F                         l9308 0DE4                         l9420 0BDA  
                       l9412 0B94                         l9404 0B59                         l9500 106A  
                       l9094 1053                         l9086 103B                         l9078 1019  
                       l9190 111B                         l9182 1102                         l9174 10E4  
                       l9166 10CE                         l9158 10B4                         l9238 15E4  
                       l9254 1E98                         l9246 1E70                         l9262 1B4B  
                       l9270 1C8C                         l9350 0F35                         l9334 0EB4  
                       l9326 0E79                         l9342 0F05                         l9318 0E33  
                       l9430 0C34                         l9422 0BDE                         l9406 0B5D  
                       l9414 0BAE                         l9510 107C                         l9502 106D  
                       ?_nop 0071                         l9088 103D                         l9096 1E14  
                       l9176 10EA                         l9168 10D4                         l9184 110A  
                       l9192 14EA                         l9256 1E9F                         l9248 1E71  
                       l9264 1B4C                         l9272 1C94                         l9280 1BA9  
                       l9360 0F96                         l9352 0F54                         l9344 0F15  
                       l9336 0ED3                         l9328 0E7D                         l9440 0C7E  
                       l9432 0C48                         l9424 0BFD                         l9416 0BBE  
                       l9408 0B7C                         l9520 108C                         l9512 107D  
                       l9504 106E                         l9600 17E9                         l8810 1BEB  
                       l9098 1E1C                         l9186 110E                         l9178 10F4  
                       l9194 1511                         l9266 1B4D                         l9258 1B3E  
                       l9274 1C98                         l9282 1BBA                         l9370 0FDE  
                       l9362 0F9E                         l9354 0F68                         l9346 0F1D  
                       l9338 0EE7                         l9290 0D58                         l9450 0CCD  
                       l9442 0C92                         l9434 0C4C                         l9426 0C11  
                       l9418 0BC6                         l9522 108D                         l9514 107E  
                       l9506 106F                         l9602 17F2                         l9530 1708  
                       l9610 001B                         l8820 1C03                         l8812 1BEE  
                       l8900 1AF6                         l9188 1114                         l9196 1577  
                       l9276 1CA0                         l9268 1C85                         l9372 0FEA  
                       l9364 0FB2                         l9356 0F6C                         l9348 0F31  
                       l9292 0D60                         l9284 0D45                         l9460 0D17  
                       l9444 0C96                         l9452 0CE7                         l9428 0C15  
                       l9436 0C66                         l9380 0AAD                         l9516 1088  
                       l9508 1079                         l9604 17F7                         l9540 1729  
                       l9532 170D                         l9524 16F3                         l9612 001C  
                       l9620 1D9A                         l9700 0973                         _ADON 00F8  
                       l8806 1AD5                         l8814 1BF5                         l8830 1244  
                       l8822 1227                         l8910 1D7C                         l8902 1D61  
                       l9198 157A                         l9278 1BA1                         l9374 0FF8  
                       l9366 0FB6                         l9358 0F86                         l9294 0D6E  
                       l9286 0D4C                         l9462 0D3C                         l9454 0CF7  
                       l9446 0CB5                         l9438 0C76                         l9390 0AD7  
                       l9382 0AB3                         l9470 1EAD                         l9518 108B  
                       l9550 1748                         l9542 1732                         l9606 17FC  
                       l9534 1716                         l9526 16F9                         l9614 0027  
                       l9630 1DB5                         l9622 1DA4                         l9710 0992  
                       l9702 097A                         l8816 1BF9                         l8808 1BE7  
                       l8840 1289                         l8832 1260                         l8824 1237  
                       l8920 1D8D                         l8912 1D81                         l8904 1D6D  
                       l9376 0FFF                         l9368 0FDB                         l9296 0D76  
                       l9288 0D52                         l9464 0D3F                         l9456 0CFF  
                       l9448 0CC9                         l9392 0AEB                         l9384 0AB9  
                       l9480 1EC5                         l9472 1EB6                         l9608 17FF  
                       l9560 1769                         l9552 174D                         l9544 1737  
                       l9536 171B                         l9528 1700                         l9616 002C  
                       l9632 1DBB                         l9624 1DA9                         l9640 1B5E  
                       l9720 09B3                         l9712 0999                         l9704 097F  
                       l9800 023A                         l8818 1C00                         l8850 12B4  
                       l8842 128B                         l8834 1262                         l8826 1239  
                       l8914 1D85                         l8906 1D75                         l8922 1C16  
                       l9298 0D8A                         l9466 0D44                         l9458 0D13  
                       l9394 0AEF                         l9386 0AC1                         l9378 0AA6  
                       l9490 1ED7                         l9482 1EC8                         l9474 1EB9  
                       l9570 1788                         l9562 1772                         l9554 1756  
                       l9538 1724                         l9546 1739                         l9634 1DC0  
                       l9626 1DAF                         l9618 1D94                         l9650 1B7B  
                       l9642 1B61                         l9730 09D2                         l9722 09B8  
                       l9714 09A0                         l9706 0986                         l9810 025B  
                       l9802 023F                         l8860 12E7                         l8852 12BE  
                       l8844 1295                         l8836 126C                         l8828 1243  
                       l8916 1D86                         l8908 1D78                         l8924 1C2F  
                       l8940 1CBD                         l9396 0B0E                         l9388 0ACF  
                       l9492 1ED8                         l9484 1EC9                         l9476 1EBA  
                       l9468 1EA0                         l9580 17A9                         l9572 178D  
                       l9564 1777                         l9556 175B                         l9548 1740  
                       l9636 1DCB                         l9628 1DB0                         l9644 1B66  
                       l9652 1CE2                         l9740 09F1                         l9732 09D9  
                       l9724 09BF                         l9716 09A5                         l9708 098D  
                       l9660 08F6                         l9900 0415                         l9820 0287  
                       l9812 0261                         l9804 0245                         l8862 12E8  
                       l8854 12BF                         l8846 1296                         l8838 126D  
                       l8918 1D87                         l8950 1CE1                         l8942 1CC6  
                       l9398 0B22                         l9494 1ED9                         l9486 1ECA  
                       l9478 1EBB                         l9590 17C8                         l9582 17B2  
                       l9574 1796                         l9558 1764                         l9566 1779  
                       l9638 1DCE                         l9646 1B6B                         l9750 0A12  
                       l9742 09F8                         l9734 09DE                         l9726 09C6  
                       l9718 09AC                         l9670 091E                         l9662 0903  
                       l9654 08EA                         l9910 0455                         l9902 041A  
                       l9830 02CE                         l9822 028C                         l9814 0267  
                       l9806 024C                         l8856 12DB                         l8848 12B2  
                       l8880 1AE2                         l8944 1CCF                         l8936 1CAE  
                       l9488 1ED4                         l9496 1054                         l9592 17CD  
                       l9584 17B7                         l9576 179B                         l9568 1780  
                       l9648 1B70                         l9760 0A31                         l9752 0A17  
                       l9744 09FF                         l9736 09E5                         l9728 09CB  
                       l9680 0933                         l9672 091F                         l9664 0909  
                       l9656 08F0                         l9920 0470                         l9912 0459  
                       l9904 041B                         l9840 0300                         l9824 029C  
                       l9832 02E0                         l9816 026C                         l9808 0255  
                       l8858 12DD                         l8946 1CD4                         l8938 1CB4  
                       l9498 1061                         l9594 17D6                         l9578 17A4  
                       l9586 17B9                         l9770 0A50                         l9762 0A38  
                       l9754 0A1E                         l9746 0A04                         l9738 09EC  
                       l9690 0954                         l9682 093A                         l9674 0920  
                       l9666 091C                         l9658 08F4                         l9930 048A  
                       l9914 045D                         l9922 0475                         l9906 0441  
                       l9850 0326                         l9842 030E                         l9834 02EE  
                       l9826 02A1                         l9818 026D                         _EEIE 046C  
                       l8948 1CDA                         l9596 17DB                         l9588 17C0  
                       l9780 0A8A                         l9772 0A6C                         l9764 0A3D  
                       l9756 0A25                         l9748 0A0B                         l9692 0959  
                       l9684 0941                         l9676 0927                         l9668 091D  
                       l9940 04B3                         l9932 0491                         l9924 047A  
                       l9916 0461                         l9908 044D                         l9860 036F  
                       l9852 032A                         l9844 030F                         l9836 02F6  
                       l9828 02CA                         l8894 1AFA                         l9598 17E4  
                       l9782 0A91                         l9774 0A73                         l9766 0A44  
                       l9758 0A2A                         l9694 0960                         l9686 0946  
                       l9678 092E                         l9790 1C30                         l9950 04E2  
                       l9942 04BB                         l9934 0492                         l9926 0480  
                       l9918 0468                         l9870 0399                         l9862 0373  
                       l9854 0331                         l9846 0313                         l9838 02FA  
                       STR_1 086E                         l8896 1AEB                         l9784 0A99  
                       l9776 0A7B                         l9768 0A4B                         l9696 0967  
                       l9688 094D                         l9792 1C3C                         l9960 04F9  
                       l9952 04E3                         l9944 04BE                         l9936 04AE  
                       l9928 0487                         l9880 03BE                         l9872 039C  
                       l9864 0382                         l9856 034C                         l9848 031F  
                       STR_2 085C                         STR_3 084A                         l8898 1AF2  
                       l9778 0A82                         l9786 0AA3                         l9698 096C  
                       l9794 1C3F                         l9970 0523                         l9962 04FA  
                       l9954 04E7                         l9946 04C5                         l9938 04AF  
                       l9890 03EB                         l9882 03C7                         l9874 03A1  
                       l9866 0388                         l9858 0351                         STR_4 0838  
                       STR_5 08A2                         l9788 0AA5                         l9796 1C44  
                       l9980 054C                         l9964 0516                         l9956 04EF  
                       l9948 04C6                         l9972 0524                         l9892 0400  
                       l9876 03A2                         l9884 03CE                         l9868 0392  
                       STR_6 08B3                         STR_7 08D5                         l9798 1C4F  
                       l9990 0581                         l9982 0557                         l9966 0517  
                       l9958 04F2                         l9974 0533                         l9894 0407  
                       l9886 03E3                         l9878 03A9                         STR_8 08C4  
                       STR_9 08E6                         l9992 058F                         l9984 0563  
                       l9976 053D                         l9968 051B                         l9896 040C  
                       l9888 03E4                         l9994 0595                         l9986 056A  
                       l9978 0542                         l9898 0410                         l9996 05A5  
                       l9988 056E                         l9998 05AB                         _BRGH 04C2  
                       _T0IE 005D                         _CREN 00C4                         _FERR 00C2  
                       _PEIE 005E                         _INTE 005C                         _RBIE 005B  
                       _RCIE 0465                         _RCIF 0065                         _OERR 00C1  
                       u9400 1253                         u9401 1252                         u9410 126B  
                       u9411 126A                         u9420 127C                         u9421 127B  
                       u9430 1294                         u9431 1293                         u9440 12A5  
                       u9600 1CC6                         u9441 12A4                         u9601 1CC5  
                       u9450 12BD                         u9530 1D60                         u9610 1CCF  
                       u9451 12BC                         u9531 1D5F                         u9611 1CCE  
                       u9460 12CE                         u9540 1D7C                         u9461 12CD  
                       u9541 1D7B                         u9470 12E6                         u9390 1242  
                       u9550 1D8D                         u9471 12E5                         u9391 1241  
                       u9551 1D8C                         u9480 12F7                         u9560 1C15  
                       u9481 12F6                         u9561 1C14                         u9580 1CB4  
                       u9900 1B17                         u9581 1CB3                         u9901 1B16  
                       u9590 1CBD                         u9910 1B1D                         u9591 1CBC  
                       u9911 1B1C                         u9920 1B2C                         u9921 1B2B  
                       u9930 1B3A                         u9931 1B39                         u9940 1C5F  
                       u9941 1C5E                         u9970 1C79                         u9971 1C78  
                       u9955 1C66                         u9980 100E                         u9965 1C6D  
                       u9981 100D                         _SPEN 00C7                         u9995 1013  
                       _TXIE 0464                         _WREN 0C62                         _TXEN 04C5  
                       _TXIF 0064                         _SYNC 04C4               ??_eeprom_write 0026  
                       _bit0 0332                         _bit1 0333                         _bit2 0334  
                       _bit3 0335                         _bit4 0336                         _bit5 0337  
                       _bit6 0338                         _bit7 0339                         _ldr1 0054  
                       _ldr2 0056                         _main 0033                         _hour 0052  
                       btemp 007E                         _wtmp 0062              _enableInterrupt 1AFA  
   __size_of_RotateMotorLeft 0060                         start 0012            ___bmul@multiplier 0028  
                 i1_position 1D1B         ??_Serial_Println_Int 0030                  _CheckKeyPad 08EA  
                      ??_isr 0020                        ??_nop 0025                        l10000 05B3  
                      l10010 05F3                        l10002 05C3                        l10020 0621  
                      l10012 0601                        l10004 05D0                        l10100 1309  
                      l10030 064B                        l10022 0628                        l10014 0606  
                      l10006 05D9                        l10110 1335                        l10102 1318  
                      l10032 0650                        l10024 063A                        l10016 060A  
                      l10040 0679                        l10008 05E0                        l10120 134C  
                      l10112 1338                        l10104 1320                        l10200 0077  
                      l10050 06A6                        l10042 067F                        l10026 0640  
                      l10034 0659                        l10018 0616                        l10130 1365  
                      l10122 1351                        l10114 133D                        l10106 1321  
                      l10210 00C2                        l10202 0091                        l10060 06E4  
                      l10052 06B1                        l10044 0684                        l10036 0662  
                      l10028 0646                        l10140 137E                        l10132 136A  
                      l10124 1356                        l10116 1342                        l10108 1327  
                      l10220 00F3                        l10212 00C8                        l10204 0097  
                      l10070 0706                        l10062 06EA                        l10054 06B9  
                      l10046 068A                        l10038 0668                        l10150 1397  
                      l10142 1383                        l10134 136F                        l10126 135B  
                      l10118 1347                        l10230 0132                        l10222 010C  
                      l10214 00D3                        l10206 00A8                        l10080 079B  
                      l10072 0741                        l10064 06F0                        l10056 06CB  
                      l10048 069A                        l10160 13B0                        l10152 139C  
                      l10144 1388                        l10136 1374                        l10128 1360  
                      l10240 0164                        l10232 0140                        l10224 011A  
                      l10216 00D9                        l10208 00B7                        l10090 07D2  
                      l10074 0746                        l10082 079C                        l10066 06F5  
                      l10058 06D2                        l10170 13C9                        l10162 13B5  
                      l10154 13A1                        l10146 138D                        l10138 1379  
                      l10250 0191                        l10242 016D                        l10234 014E  
                      l10226 011F                        l10218 00E8                        l10092 07D8  
                      l10076 074B                        l10084 07AD                        l10068 06FA  
                      l10180 13E2                        l10172 13CE                        l10164 13BA  
                      l10156 13A6                        l10148 1392                        l10260 01BD  
                      l10252 0197                        l10244 0176                        l10236 0153  
                      l10228 0127                        l10078 0776                        l10086 07B4  
                      l10094 07E9                        l10182 13E7                        l10174 13D3  
                      l10166 13BF                        l10158 13AB                        l10270 01EA  
                      l10262 01CA                        l10254 01A4                        l10246 017F  
                      l10238 015B                        l10190 0056                        l10088 07C4  
                      l10176 13D8                        l10168 13C4                        l10096 12F9  
                      l10184 1192                        l10272 01F5                        l10264 01D5  
                      l10256 01AA                        l10248 0184                        l10280 0210  
                      l10192 005B                        l10178 13DD                        l10098 1303  
                      l10274 0202                        l10266 01E0                        l10258 01B7  
                      l10194 0060                        l10186 0033                        l10276 0209  
                      l10268 01E5                        l10196 0066                        l10188 0051  
                      l10278 020F                        l10198 0071                        _ADDEN 00C3  
                      ?_main 0071                        _BCLIE 046B              __end_of___awdiv 1192  
                      _EEADR 010D                        STR_10 08E6                        STR_11 08E6  
                      STR_12 08E6                        STR_13 0824                        STR_14 0880  
                      STR_15 0891              __end_of___awmod 111C               ?_LCDTimeUpdate 0071  
                      _CARRY 0018                        u10000 1022                        u10001 1021  
                      u10020 1035                        u10100 1E50                        u10021 1034  
                      u10101 1E4F                        u10110 1123                        u10015 1025  
                      u10111 1122                        u10040 104A                        u10200 1184  
                      u10120 1130                        u11000 0C75                        u10041 1049  
                      u10025 1031                        u10121 112F                        u11001 0C74  
                      u10050 1E1C                        u10130 1142                        u10210 10BB  
                      u11010 0C7D                        u10035 103E                        u10051 1E1B  
                      u10131 1141                        u10211 10BA                        u11011 0C7C  
                      u10220 10C8                        u11020 0CB4                        u11100 1716  
                      u10221 10C7                        u11021 0CB3                        u11005 0C71  
                      u11101 1715                        u10070 1E30                        u10150 1156  
                      u10230 10D4                        u11030 0CF6                        u11110 1724  
                      u10071 1E2F                        u10151 1155                        u10231 10D3  
                      u11031 0CF5                        u11111 1723                        u10080 1E3C  
                      u11040 0CFE                        u11200 1796                        u11120 1732  
                      u12000 053D                        u10081 1E3B                        u10065 1E21  
                      u10145 1147                        u10305 14EF                        u11041 0CFD  
                      u11201 1795                        u11121 1731                        u12001 053C  
                      u10170 1169                        u10250 10E8                        u11050 0D3B  
                      u11210 17A4                        u11130 1740                        u12010 054C  
                      u10171 1168                        u10251 10E7                        u10315 14FB  
                      u11051 0D3A                        u11035 0CF2                        u11211 17A3  
                      u11131 173F                        u12011 054B                        u10260 10F4  
                      u10500 1592                        u11060 1EF9                        u11220 17B2  
                      u11140 1748                        u11300 0909                        u12100 05F3  
                      u12020 0557                        u10085 1E38                        u10165 1159  
                      u10261 10F3                        u10245 10D9                        u10501 158E  
                      u10405 1544                        u10325 1508                        u11061 1EF8  
                      u11221 17B1                        u11141 1747                        u11301 0908  
                      u12101 05F2                        u12021 0556                        u10190 117E  
                      u11070 10AD                        u11230 17C0                        u11150 1756  
                      u11310 0927                        u12110 060A                        u12030 0563  
                      u10095 1E44                        u10191 117D                        u10175 1165  
                      u10415 154D                        u10335 1515                        u11071 10AC  
                      u11231 17BF                        u11151 1755                        u11311 0926  
                      u12111 0609                        u12031 0562                        u10280 1108  
                      u10600 15D3                        u10520 159C                        u11240 17C8  
                      u11160 1764                        u11080 1700                        u11400 097A  
                      u11320 092E                        u12200 0698                        u12120 0616  
                      u12040 056E                        u10185 1172                        u10281 1107  
                      u10265 10F0                        u10601 15CF                        u10521 1598  
                      u10425 1552                        u10345 151A                        u11065 1EF5  
                      u11241 17C7                        u11161 1763                        u11081 16FF  
                      u11401 0979                        u11321 092D                        u12201 0697  
                      u12121 0615                        u12105 05EF                        u12041 056D  
                      u10290 110E                        u10514 1595                        u11250 17D6  
                      u11170 1772                        u11090 1708                        u11410 0986  
                      u11330 093A                        u12210 06A6                        u12130 0621  
                      u12050 0581                        u10275 10FC                        u10435 155B  
                      u10355 1523                        u11075 10A9                        u11251 17D5  
                      u11171 1771                        u11091 1707                        u11411 0985  
                      u11331 0939                        u12211 06A5                        u12131 0620  
                      u12051 0580                        u10620 15DD                        u10540 15A6  
                      u10700 0D4B                        u11260 17E4                        u11180 1780  
                      u11500 09D9                        u11420 098D                        u11340 0941  
                      u12300 07E6                        u12220 06B1                        u12140 063A  
                      u12060 05A5              ___awdiv@divisor 0025                        u10621 15D9  
                      u10541 15A2                        u10445 1560                        u10365 1528  
                      u10701 0D4A                        u11261 17E3                        u11181 177F  
                      u11501 09D8                        u11421 098C                        u11341 0940  
                      u12301 07E5                        u12221 06B0                        u12141 0639  
                      u12061 05A4                        u10614 15D6                        u10534 159F  
                      u10710 0D51                        u11270 17F2                        u11190 1788  
                      u11510 09E5                        u11430 0999                        u11350 094D  
                      u12310 07FD                        u12230 06CB                        u12150 0646  
                      u12070 05AB                        u10455 1569                        u10375 1531  
                      u10711 0D50                        u11271 17F1                        u11191 1787  
                      u11511 09E4                        u11431 0998                        u11351 094C  
                      u12311 07FC                        u12231 06CA                        u12151 0645  
                      u12071 05AA                        u12055 057D                        u10560 15BF  
                      u10480 1588                        u10800 0ED2                        u10720 0D6D  
                      u11280 1D9A                        u11600 0A38                        u11520 09EC  
                      u11440 09A0                        u11360 0954                        u12240 06E4  
                      u12160 0661                        u12080 05C3                        u12320 1309  
                      u10561 15BB                        u10481 1584                        u10465 156E  
                      u10385 1536                        u10801 0ED1                        u10721 0D6C  
                      u11281 1D99                        u11601 0A37                        u11521 09EB  
                      u11441 099F                        u11361 0953                        u12241 06E3  
                      u12161 0660                        u12145 0636                        u12081 05C2  
                      u12065 05A1                        u12321 1308                        u10634 15E0  
                      u10554 15A9                        u10650 1E7E                        u10810 0F14  
                      u10730 0D75                        u11290 1DA4                        u11610 0A44  
                      u11530 09F8                        u11450 09AC                        u11370 0960  
                      u12250 06F0                        u12170 0676                        u12090 05D0  
                      u12330 1318                        u10475 1577                        u10395 153F  
                      u10651 1E7D                        u10811 0F13                        u10731 0D74  
                      u11291 1DA3                        u11611 0A43                        u11531 09F7  
                      u11451 09AB                        u11371 095F                        u12251 06EF  
                      u12235 06C7                        u12171 0675                        u12091 05CF  
                      u12331 1317                        u10580 15C9                        u10660 1C8B  
                      u10820 0F1C                        u10740 0DAC                        u10900 0AB2  
                      u11700 0A9E                        u11620 0A4B                        u11540 09FF  
                      u11460 09B3                        u11380 0967                        u12260 0741  
                      u12180 067F                        u10581 15C5                        u10645 1E60  
                      u10661 1C8A                        u10821 0F1B                        u10741 0DAB  
                      u10725 0D69                        u10901 0AB1                        u11701 0A9D  
                      u11621 0A4A                        u11541 09FE                        u11461 09B2  
                      u11381 0966                        u12261 0740                        u12245 06E0  
                      u12181 067E                        u12085 05BF                        u10574 15C2  
                      u10494 158B                        u10670 1CAC                        u10830 0F53  
                      u10750 0DE3                        u10910 0ACE                        u11630 0A6B  
                      u11550 0A0B                        u11470 09BF                        u11390 0973  
                      u12270 07C0                        u12190 0683                        u11710 0245  
                      u10671 1CAB                        u10831 0F52                        u10815 0F10  
                      u10751 0DE2                        u10911 0ACD                        u11631 0A6A  
                      u11551 0A0A                        u11471 09BE                        u11391 0972  
                      u12407 1C53                        u12271 07BF                        u12191 0682  
                      u12095 05CC                        u11711 0244                        u10680 1BA8  
                      u10840 0F95                        u10760 0E1A                        u10920 0AD6  
                      u11640 0A71                        u11560 0A12                        u11480 09C6  
                      u12280 07C4                        u11800 0382                        u11720 0287  
                      u10681 1BA7                        u10841 0F94                        u10761 0E19  
                      u10921 0AD5                        u12417 1B63                        u11641 0A70  
                      u11561 0A11                        u11481 09C5                        u12281 07C3  
                      u11801 0381                        u11721 0286                        u10594 15CC  
                      u10690 1BB9                        u10850 0F9D                        u10770 0E5C  
                      u10930 0B0D                        u11650 0A7A                        u11570 0A1E  
                      u11490 09D2                        u12290 07D1                        u11810 0392  
                      u11730 029C                        u10691 1BB8                        u10851 0F9C  
                      u10771 0E5B                        u10931 0B0C                        u10915 0ACA  
                      u12507 1092                        u12427 1B76                        u11651 0A79  
                      u11571 0A1D                        u11491 09D1                        u12291 07D0  
                      u11811 0391                        u11731 029B                        u12347 007F  
                      u10860 0FDA                        u10780 0E64                        u10940 0B44  
                      u11660 0A80                        u11580 0A25                        u11900 0480  
                      u11820 03A0                        u11740 02DE                        u10861 0FD9  
                      u10845 0F91                        u10781 0E63                        u10941 0B43  
                      u12517 1EB1                        u12437 1DB2                        u11661 0A7F  
                      u11581 0A24                        u11901 047F                        u11821 039F  
                      u11805 037E                        u11741 02DD                        u12357 00B0  
                      u10870 0FE9                        u10790 0E9B                        u10950 0B7B  
                      u11670 0A89                        u11590 0A31                        u11910 0490  
                      u11830 03BB                        u11750 02EE                        u10871 0FE8  
                      u10791 0E9A                        u10775 0E58                        u12607 0BDC  
                      u10951 0B7A                        u12527 1EC0                        u12447 1DC6  
                      u11671 0A88                        u11591 0A30                        u12295 07CD  
                      u11911 048F                        u11831 03BA                        u11815 038E  
                      u11751 02ED                        u12367 00E1                        u10880 0FF7  
                      u10960 0BBD                        u11680 0A8F                        u11920 04AD  
                      u11840 03DE                        u11760 030E                        u10881 0FF6  
                      u12617 0C13                        u10961 0BBC                        u12537 1ECF  
                      u12457 001E                        u11681 0A8E                        u11921 04AC  
                      u11841 03DD                        u11761 030D                        u12377 012D  
                      u10970 0BC5                        u10890 0AAC                        u11690 0A98  
                      u11930 04B9                        u11850 03E2                        u11770 031F  
                      u12707 0DFA                        u12627 0C4A                        u10971 0BC4  
                      u10891 0AAB                        u12547 1EDE                        u12467 0030  
                      u11691 0A97                        u11931 04B8                        u11851 03E1  
                      u11835 03B7                        u11771 031E                        u12387 01DB  
                      u10980 0BFC                        u11940 04C4                        u11860 03FD  
                      u11780 0361                        u12717 0E31                        u12637 0C94  
                      u10981 0BFB                        u10965 0BB9                        u12557 0AB7  
                      u12477 1065                        u12397 1C41                        u11941 04C3  
                      u11925 04A9                        u11861 03FC                        u11845 03DA  
                      u11781 0360                        u10990 0C33                        u11950 04E1  
                      u11870 044D                        u11790 0373                        u12807 0FFC  
                      u12727 0E7B                        u12647 0CCB                        u10991 0C32  
                      u12567 0AED                        u12487 1074                        u11951 04E0  
                      u11871 044C                        u11960 04ED                        u11880 045D  
                      u12817 1BAD                        u12737 0EB2                        u12657 0D15  
                      u12577 0B24                        u12497 1083                        u11961 04EC  
                      u11881 045C                        u11865 03F9                        u11970 04F8  
                      u11890 047A                        u12827 1BBE                        u12747 0EE9  
                      u12667 0D41                        u12587 0B5B                        u11971 04F7  
                      u11955 04DD                        u11891 0479                        u11980 0515  
                      u12837 1C96                        u12757 0F33                        u12677 0D56  
                      u12597 0B92                        u11981 0514                        u11990 0521  
                      u12847 1B56                        u12767 0F6A                        u12687 0D8C  
                      u11991 0520                        u12857 1E73                        u12777 0FB4  
                      u12697 0DC3                        u11985 0511                        u12787 0FE0  
                      u12797 0FEE              __end_of___lwdiv 1054              __end_of___lwmod 1E5A  
                      i1l841 14E9                        i1l825 1BA0                        i1l836 1D26  
                      i1l837 1D31                        i1l838 1D55              ___awdiv@counter 002A  
                      _RCREG 001A                        _C_Bat 0048                        _TMR1H 000F  
                      _TMR1L 000E                        _SPBRG 0099                        _PORTA 0005  
                      _PORTB 0006                        _PORTC 0007                        _PORTD 0008  
                      _PORTE 0009                        _PSPIE 0467                i1position@row 0077  
                      _TRISA 0085                        _TRISB 0086                        _TRISC 0087  
                      _TRISD 0088                        _SSPIE 0463                        _TRISE 0089  
                      _TXREG 0019                        _V_Bat 004C              __end_of_lcd_add 15E6  
                      _RowNo 1CAE           i1___lwmod@dividend 0073              __end_of_isdigit 1B24  
                      _state 005F                        _putch 0018                 position@post 002A  
                      pclath 000A               _Serial_NewLine 1BA1                        status 0003  
                      wtemp0 007E           __size_ofi1___lwmod 0044             __end_of_a2d_read 1D1B  
         __size_ofi1_lcd_add 00FC             __end_of_ColomnNo 1800                 __end_of_main 0237  
         __size_of_CheckMode 00F5     __end_of_RotateMotorRight 10B4            ?i1_LCD_print_char 0078  
                     ??_main 00C8      __size_of_LCD_print_char 0026           ??i1_LCD_print_char 007D  
                     ?_RowNo 0025                       _ADCON0 001F                       _ADCON1 009F  
                     _CCP1IE 0462                       _CCP2IE 0468                       _ADRESH 001E  
                     _ADRESL 009E                       _EEDATA 010C                       _EECON1 018C  
                     _EECON2 018D       __end_of_Serial_NewLine 1BC4      __end_of_enableInterrupt 1B0D  
           ___awdiv@dividend 0027                       ?_putch 0071                       i1l1150 1697  
                     i1l1151 16D9                       i1l1143 16A0                       i1l1152 16CB  
                     i1l1144 1699                       i1l1153 16BE                       i1l1145 1617  
                     i1l1146 162B                       i1l1155 16BC                       i1l1147 1699  
                     i1l1156 16D7                       i1l1148 1686                       i1l1157 16E8  
                     i1l1149 1698                       i1l1158 16E8                       i1l3290 1DEC  
                     i1l3291 1DFD                       i1l3292 1E0B                       i1l3293 1E13  
                     i1l3286 1E0C                       i1l3287 1DE6                       i1l3288 1DDA  
                     i1l3289 1DEB                       i1l7200 1661                       i1l7210 168D  
                     i1l7202 1669                       i1l7220 16A4                       i1l7212 168F  
                     i1l7204 166D                       i1l7230 16C6                       i1l7222 16A8  
                     i1l7214 1696                       i1l7206 1685                       i1l7240 16DD  
                     i1l7232 16CD                       i1l7224 16AC                       i1l7216 169B  
                     i1l7208 1686                       i1l7242 16DE                       i1l7234 16D5  
                     i1l7226 16B6                       i1l7218 16A0                       i1l7244 16E6  
                     i1l7236 16D7                       i1l7228 16BE                       i1l7180 15EA  
                     i1l7238 16D9                       i1l7190 162B                       i1l7182 15F9  
                     i1l7600 1DE1                       i1l7520 1B91                       i1l7192 162F  
                     i1l7184 15FF                       i1l7610 1E04                       i1l7602 1DE6  
                     i1l7530 1D31                       i1l7522 1B9C                       i1l7514 1B7F  
                     i1l7194 1631                       i1l7186 1605                       i1l7178 15E6  
                     i1l7604 1DEC                       i1l7612 1E0C                       i1l7540 1D4A  
                     i1l7532 1D37                       i1l7524 1D1C                       i1l7516 1B89  
                     i1l7196 1635                       i1l7188 1617                       i1l7614 1E13  
                     i1l7606 1DF6                       i1l7550 147B                       i1l7542 1D53  
                     i1l7534 1D3A                       i1l7526 1D22                       i1l7518 1B8C  
                     i1l7198 163C                       i1l7608 1DFD                       i1l7560 148F  
                     i1l7552 147E                       i1l7544 1D54                       i1l7536 1D3F  
                     i1l7528 1D2C                       i1l7570 14B1                       i1l7562 1499  
                     i1l7554 147F                       i1l7546 13EE                       i1l7538 1D45  
                     i1l7580 14BA                       i1l7572 14B2                       i1l7564 14A3  
                     i1l7556 1482                       i1l7548 1415                       i1l7590 14E5  
                     i1l7582 14C6                       i1l7574 14B5                       i1l7566 14AD  
                     i1l7558 1483                       i1l7592 14E8                       i1l7584 14D0  
                     i1l7576 14B6                       i1l7568 14AE                       i1l7594 1DD0  
                     i1l7586 14DA                       i1l7578 14B9                       i1l7596 1DD6  
                     i1l7588 14E4                       i1l7598 1DDA                       u610_20 163C  
                     u610_21 163B                       u611_20 168D                       u611_21 168C  
                     u612_20 16A4                       u612_21 16A3                       u700_25 1427  
                     u613_20 16A8                       u613_21 16A7                       u701_25 142C  
                     u614_20 16AC                       u614_21 16AB                       u710_25 146D  
                     u702_25 1435                       u615_20 16B6                       u607_20 15EA  
                     u615_21 16B5                       u607_21 15E9                       u711_25 1472  
                     u703_25 143A                       u616_20 16BC                       u608_20 15F9  
                     u616_21 16BB                       u608_21 15F8                       u720_24 14AD  
                     u712_25 147B                       u704_25 1443                       u721_20 14C3  
                     u713_20 148C                       u617_20 16DD                       u609_20 1605  
                     u721_21 14BF                       u713_21 1488                       u617_21 16DC  
                     u609_21 1604                       u705_25 1448                       u722_24 14C6  
                     u714_24 148F                       u730_25 1DDB                       u706_25 1451  
                     u731_20 1DEA                       u723_20 14CD                       u715_20 1496  
                     u731_21 1DE9                       u723_21 14C9                       u715_21 1492  
                     u707_25 1456                       u732_20 1DF6                       u732_21 1DF5  
                     u724_24 14D0                       u716_24 1499                       u732_25 1DF2  
                     u708_25 145F                       u725_20 14D7                       u717_20 14A0  
                     u725_21 14D3                       u717_21 149C                       u733_25 1DFE  
                     u709_25 1464                       u734_20 1E0A                       u734_21 1E09  
                     u726_24 14DA                       u718_24 14A3                       u727_20 14E1  
                     u719_20 14AA                       u727_21 14DD                       u719_21 14A6  
                     u728_24 14E4                       u729_20 1DD6                       u729_21 1DD5  
                     u693_20 1D22                       u693_21 1D21                       _TMR1IE 0460  
                     _TMR1IF 0060                       _TMR1CS 0081                       _TMR2IE 0461  
                     u694_20 1D2C                       u694_21 1D2B                       u695_25 13F3  
                     _TMR1ON 0080                       u696_25 13FF                       u697_25 140C  
                     u698_25 1419                       u699_25 141E         __size_of_clr_display 0021  
             i1position@post 0076                ??_Serial_Init 0025                ??_Timer1_Init 0025  
                ?i1_position 0073         __size_of_eeprom_read 0025             __end_of_lcd_init 12F9  
                     ___bmul 1B24                       _bed_nu 0068                       ___wmul 1C56  
                  ??___awdiv 0029                    ??___awmod 0029            ??_RotateMotorLeft 0027  
                  ??___lwdiv 0029                    ??___lwmod 0031                       _buffer 00A0  
            ??_LCDTimeUpdate 0039             ___awdiv@quotient 002C                       _minute 0058  
                     _second 00C6              ___awmod@divisor 0025         __end_of_eeprom_write 1D91  
            ___awmod@counter 002A                       _printf 0237                    ??_lcd_add 0025  
                     clrloop 1ADB    LCD_print_char@print_value 0037            __end_ofi1___lwmod 1E14  
                  ??_isdigit 0025                       saved_w 007E             __end_of_position 1DD0  
          __end_ofi1_lcd_add 14EA            __end_of_CheckMode 13EE        __end_of_Setup_IOports 1C0B  
            ?_Serial_NewLine 0071              eeprom_read@addr 0026          ___bmul@multiplicand 0025  
             __pcstackCOMMON 0071                __end_of_RowNo 1CE2          __end_of_Serial_Init 1B5E  
               __pidataBANK0 0016                __end_of_putch 0033        RotateMotorRight@value 0025  
        __end_of_Timer1_Init 1AFA               _HeartRateCount 00C0          i1LCD_print_char@row 0078  
                  ?_a2d_read 0071            eeprom_write@value 0025                      ??_RowNo 0027  
         __size_of_atod_init 0009    __size_of_Serial_Print_Int 029F          __size_ofi1_position 003B  
                  ?_ColomnNo 0025                      ??_putch 0027             ?_enableInterrupt 0071  
                 __pbssBANK0 0048                   __pbssBANK1 00A0                ?_Serial_Print 0071  
        Serial_Print_Int@val 002E      __size_of_read_a2d_value 0046  i1LCD_print_char@print_value 007C  
                 __pmaintext 0033                      ?___bmul 0025                      ?___wmul 0025  
               ?_CheckKeyPad 0071                   __pintentry 0004                   __ptext1500 0D45  
                 __ptext1501 1BA1                   __ptext1510 1C56                   __ptext1502 1C82  
                 __ptext1511 1B24                   __ptext1503 1B3E                   __ptext1520 1BE7  
                 __ptext1512 1B0D                   __ptext1504 1E5A                   __ptext1521 1AD5  
                 __ptext1513 1CAE                   __ptext1505 14EA                   __ptext1522 15E6  
                 __ptext1514 1C0B                   __ptext1506 10B4                   __ptext1523 1B7F  
                 __ptext1515 1D56                   __ptext1507 111C                   __ptext1524 1D1B  
                 __ptext1516 1AEB                   __ptext1508 1E14                   __ptext1525 13EE  
                 __ptext1517 1AFA                   __ptext1509 1004                   __ptext1526 1DD0  
                 __ptext1518 1AE2                   __ptext1527 0000                   __ptext1519 1227  
                 __ptext1490 1C30                   __ptext1491 08EA                   __ptext1492 1CE2  
                 __ptext1493 1B5E                   __ptext1494 1D91                   __ptext1495 0018  
                 __ptext1487 1192                   __ptext1496 16F3                   __ptext1488 12F9  
                 __ptext1497 1054                   __ptext1489 0237                   __ptext1498 1EA0  
                 __ptext1499 0AA6               _LCD_print_char 1C30                      ?_printf 0033  
                    _T1CKPS0 0084                      _T1CKPS1 0085                      _T1OSCEN 0083  
                    u1286_27 1B8E                      u1287_27 1B9E                      u1288_27 1D3C  
                    u1289_27 1D4E                   ??_a2d_read 002C                    ?_lcd_init 0071  
                 ??_ColomnNo 0027               ??_Serial_Print 0025       i1LCD_print_char@column 007A  
                _Serial_Init 1B3E                Serial_Print@a 0026                  _Timer1_Init 1AEB  
      __size_of_eeprom_write 003B            __end_of_atod_init 1AEB  __size_of_Serial_Println_Int 02BB  
            __size_of___bmul 001A                      ___awdiv 111C                      ___awmod 10B4  
                  ?_position 0027              __size_of___wmul 002C       __end_of_LCD_print_char 1C56  
                    ___lwdiv 1004                      ___lwmod 1E14            ?_RotateMotorRight 0025  
                    _lcd_add 14EA                      _lcd_bus 005B              __size_of_printf 05C9  
         ??_RotateMotorRight 0027                      _dpowers 0812                      _isdigit 1B0D  
               __size_of_isr 010D                 __size_of_nop 0005             ___awmod@dividend 0027  
                    _msecond 00C4                      main@abc 00CB               position@collum 0027  
                 ??_lcd_init 0025                 _lcd_data_low 005E         end_of_initialization 1BE3  
  __size_ofi1_LCD_print_char 0022         LCD_print_char@column 0035                 _eeprom_write 1D56  
            _RotateMotorLeft 1EA0          CheckMode@pressedKey 0033                 ??i1_position 0074  
                    printf@c 0045                      printf@f 003E                   ??_position 0028  
            ?_LCD_print_char 0033        Serial_Println_Int@val 002E             ??_Serial_NewLine 0025  
           _Serial_Print_Int 0AA6                    i1___lwmod 1DD0                ??_clr_display 0027  
         __end_ofi1_position 1D56          CheckKeyPad@colomnNo 002B                    i1_lcd_add 13EE  
           putch@print_value 0028               _read_a2d_value 1E5A                    _CheckMode 12F9  
              ??_eeprom_read 0025                  printf@width 0040                    _HeartRate 004A  
             __end_of___bmul 1B3E         __end_of_Serial_Print 1CAE               __end_of___wmul 1C82  
       __size_of_CheckKeyPad 01BC            i1___lwmod@divisor 0071                __pbitbssBANK0 0330  
      __end_of_LCDTimeUpdate 1227            i1___lwmod@counter 0076                  position@row 002B  
             __end_of_printf 0800          start_initialization 1BC4         RotateMotorLeft@value 0025  
                __end_of_isr 16F3                  __end_of_nop 1ADA      __end_of_RotateMotorLeft 1F00  
                 ?i1___lwmod 0071            __size_of_a2d_read 0039       __end_of_read_a2d_value 1EA0  
                 ?i1_lcd_add 0071            __size_of_ColomnNo 010D                   ?_CheckMode 0071  
              _analogReadVal 004E          __end_of_clr_display 1B7F                     ??___bmul 0026  
                   ??___wmul 0029          __end_of_eeprom_read 1C30                  __pdataBANK0 0068  
     __size_of_Setup_IOports 0024                     ??_printf 0035                __pcstackBANK0 0020  
              __pcstackBANK1 00C8                 _isdigit$2439 0025              ?_read_a2d_value 0025  
           i1_LCD_print_char 1B7F             eeprom_write@addr 0027            __size_of_lcd_init 00D2  
               ?_Serial_Init 0071     __size_of_enableInterrupt 0013                 ?_Timer1_Init 0071  
           ___lwdiv@dividend 0027      read_a2d_value@a2d_value 002A                     ?___awdiv 0025  
                   ?___awmod 0025                    _heartRate 00C2                     ?___lwdiv 0025  
                   ?___lwmod 002D                    _atod_init 1AE2            __size_of_position 003F  
                  __pstrings 0800                     ?_lcd_add 0071                     ?_isdigit 0071  
      read_a2d_value@channel 0029               __size_of_RowNo 0034                    _hexpowers 081C  
           ___lwdiv@quotient 002B             ?_RotateMotorLeft 0025                  ??i1___lwmod 0075  
  __size_of_RotateMotorRight 0060                  _clr_display 1B5E               __size_of_putch 001B  
              _Setup_IOports 1BE7                  ??i1_lcd_add 0071            interrupt_function 0004  
                ??_CheckMode 0031               ___wmul@product 0029                    _octpowers 0806  
                _eeprom_read 1C0B             ??_LCD_print_char 0038   __end_of_Serial_Println_Int 1000  
      __size_of_Serial_Print 002C             i1position@collum 0073     __end_of_Serial_Print_Int 0D45  
                 ?_atod_init 0071                  __stringbase 0805            ___wmul@multiplier 0025  
                 printf@_val 0042                   printf@flag 0046                   printf@prec 003F  
                   _BlinkDet 0330                     _a2d_read 1CE2               ?_Setup_IOports 0071  
                   _ColomnNo 16F3                 _Serial_Print 1C82                     RowNo@row 0027  
           lcd_init@DelayLCD 0025             __size_of___awdiv 0076             __size_of___awmod 0068  
          ??_enableInterrupt 0025             __size_of___lwdiv 0050             __size_of___lwmod 0046  
           __size_of_lcd_add 00FC                  _currentMode 0050             __size_of_isdigit 0017  
            ___lwdiv@divisor 0025              ___lwdiv@counter 002A                     _lcd_data 005C  
                   _lcd_init 1227                __size_of_main 0204                     clear_ram 1ADA  
       __size_of_Serial_Init 0020                ??_CheckKeyPad 0029         __size_of_Timer1_Init 000F  
                   _position 1D91     __end_ofi1_LCD_print_char 1BA1                _lcd_data_high 005D  
                ??_atod_init 0025                ColomnNo@rowNo 0025             ??_read_a2d_value 0027  
            ??_Setup_IOports 0025                     isdigit@c 0026             _RotateMotorRight 1054  
                   intlevel1 0000      __size_of_Serial_NewLine 0023             ___lwmod@dividend 002F  
     __size_of_LCDTimeUpdate 0095                    stringcode 0800            LCD_print_char@row 0033  
                   printf@ap 003D             CheckKeyPad@rowNo 002D                  _printf$1463 0038  
                _printf$1464 003A                  _printf$1467 003C            RotateMotorRight@i 0029  
                _temperature 00BD          __end_of_CheckKeyPad 0AA6              ___lwmod@divisor 002D  
            ___lwmod@counter 0032                     stringdir 0800                     stringtab 0800  
           RotateMotorLeft@i 0029                 ?_clr_display 0071                ?_eeprom_write 0025  
               ?_eeprom_read 0071         CheckKeyPad@charactor 002A  
