

HI-TECH Software PIC LITE Macro Assembler V9.83 build 10920 
                                                                                               Wed Feb 24 00:11:07 2016

HI-TECH Software Omniscient Code Generator (Lite mode) build 10920
     1  0000                     opt subtitle "HI-TECH Software Omniscient Code Generator (Lite mode) build 10920"
     2                           
     3                           opt pagewidth 120
     4                           
     5                           	opt lm
     6                           
     7                           	processor	16F877A
     8                           clrc	macro
     9                           	bcf	3,0
    10  0000                     	endm
    11                           clrz	macro
    12                           	bcf	3,2
    13  0000                     	endm
    14                           setc	macro
    15                           	bsf	3,0
    16  0000                     	endm
    17                           setz	macro
    18                           	bsf	3,2
    19  0000                     	endm
    20                           skipc	macro
    21                           	btfss	3,0
    22  0000                     	endm
    23                           skipz	macro
    24                           	btfss	3,2
    25  0000                     	endm
    26                           skipnc	macro
    27                           	btfsc	3,0
    28  0000                     	endm
    29                           skipnz	macro
    30                           	btfsc	3,2
    31  0000                     	endm
    32  0000                     indf	equ	0
    33  0000                     indf0	equ	0
    34  0002                     pc	equ	2
    35  0002                     pcl	equ	2
    36  0003                     status	equ	3
    37  0004                     fsr	equ	4
    38  0004                     fsr0	equ	4
    39  0001                     c	equ	1
    40  0000                     z	equ	0
    41  000A                     pclath	equ	10
    42                           	FNCALL	_main,_Setup_IOports
    43                           	FNCALL	_main,_atod_init
    44                           	FNCALL	_main,_lcd_init
    45                           	FNCALL	_main,_clr_display
    46                           	FNCALL	_main,_Serial_Init
    47                           	FNCALL	_main,_Timer1_Init
    48                           	FNCALL	_main,_enableInterrupt
    49                           	FNCALL	_main,_printf
    50                           	FNCALL	_main,_position
    51                           	FNCALL	_main,_CheckKeyPad
    52                           	FNCALL	_printf,_putch
    53                           	FNCALL	_printf,_isdigit
    54                           	FNCALL	_printf,___wmul
    55                           	FNCALL	_printf,___bmul
    56                           	FNCALL	_printf,___lwdiv
    57                           	FNCALL	_printf,___lwmod
    58                           	FNCALL	_CheckKeyPad,_RowNo
    59                           	FNCALL	_CheckKeyPad,_ColomnNo
    60                           	FNCALL	_position,_lcd_add
    61                           	FNCALL	_clr_display,_lcd_add
    62                           	FNCALL	_putch,_lcd_add
    63                           	FNROOT	_main
    64                           	FNCALL	_isr,i1_lcd_init
    65                           	FNCALL	_isr,i1_clr_display
    66                           	FNCALL	_isr,i1___lwmod
    67                           	FNCALL	i1_clr_display,i1_lcd_add
    68                           	FNCALL	intlevel1,_isr
    69                           	global	intlevel1
    70                           	FNROOT	intlevel1
    71                           	global	_bed_nu
    72                           	global	_i
    73                           psect	idataBANK0,class=CODE,space=0,delta=2
    74                           global __pidataBANK0
    75  0016                     __pidataBANK0:
    76                           	file	"D:\ELECTRONIC\2016\1. Automated Solar Panel Orientation Setter\Firmware\ver2\Auto
                                 mated Solar Panel Orientation Setter.c"
    77                           	line	29
    78                           
    79                           ;initializer for _bed_nu
    80  0016  3401               	retlw	01h
    81                           	line	30
    82                           
    83                           ;initializer for _i
    84  0017  3401               	retlw	01h
    85                           	global	_octpowers
    86                           psect	strings,class=STRING,delta=2
    87                           global __pstrings
    88  0800                     __pstrings:
    89                           ;	global	stringdir,stringtab,__stringbase
    90  0800                     stringtab:
    91                           ;	String table - string pointers are 1 byte each
    92  0800                     stringcode:stringdir:
      + 0800                     stringdir:	
    93  0800  3008               movlw high(stringdir)
    94  0801  008A               movwf pclath
    95  0802  0804               movf fsr,w
    96  0803  0A84               incf fsr
    97  0804  0782               	addwf pc
    98  0805                     __stringbase:
    99  0805  3400               	retlw	0
   100                           psect	strings
   101                           	file	"C:\Program Files (x86)\HI-TECH Software\PICC\9.83\lib\doprnt.c"
   102                           	line	365
   103  0806                     _octpowers:
   104  0806  3401               	retlw	01h
   105  0807  3400               	retlw	0
   106                           
   107  0808  3408               	retlw	08h
   108  0809  3400               	retlw	0
   109                           
   110  080A  3440               	retlw	040h
   111  080B  3400               	retlw	0
   112                           
   113  080C  3400               	retlw	0
   114  080D  3402               	retlw	02h
   115                           
   116  080E  3400               	retlw	0
   117  080F  3410               	retlw	010h
   118                           
   119  0810  3400               	retlw	0
   120  0811  3480               	retlw	080h
   121                           
   122                           	global	_dpowers
   123                           psect	strings
   124                           	file	"C:\Program Files (x86)\HI-TECH Software\PICC\9.83\lib\doprnt.c"
   125                           	line	350
   126  0812                     _dpowers:
   127  0812  3401               	retlw	01h
   128  0813  3400               	retlw	0
   129                           
   130  0814  340A               	retlw	0Ah
   131  0815  3400               	retlw	0
   132                           
   133  0816  3464               	retlw	064h
   134  0817  3400               	retlw	0
   135                           
   136  0818  34E8               	retlw	0E8h
   137  0819  3403               	retlw	03h
   138                           
   139  081A  3410               	retlw	010h
   140  081B  3427               	retlw	027h
   141                           
   142                           	global	_hexpowers
   143                           psect	strings
   144                           	file	"C:\Program Files (x86)\HI-TECH Software\PICC\9.83\lib\doprnt.c"
   145                           	line	358
   146  081C                     _hexpowers:
   147  081C  3401               	retlw	01h
   148  081D  3400               	retlw	0
   149                           
   150  081E  3410               	retlw	010h
   151  081F  3400               	retlw	0
   152                           
   153  0820  3400               	retlw	0
   154  0821  3401               	retlw	01h
   155                           
   156  0822  3400               	retlw	0
   157  0823  3410               	retlw	010h
   158                           
   159                           	global	_octpowers
   160                           	global	_dpowers
   161                           	global	_hexpowers
   162                           	global	_temperature
   163                           	global	_HeartRate
   164                           	global	_HeartRateCount
   165                           	global	_analogReadVal
   166                           	global	_heartRate
   167                           	global	_hour
   168                           	global	_ldr1
   169                           	global	_ldr2
   170                           	global	_minute
   171                           	global	_msecond
   172                           	global	_second
   173                           	global	_j
   174                           	global	_lcd_bus
   175                           	global	_lcd_data
   176                           	global	_lcd_data_high
   177                           	global	_lcd_data_low
   178                           	global	_state
   179                           	global	_v
   180                           	global	_w
   181                           	global	_wtmp
   182                           	global	_x
   183                           	global	_y
   184                           	global	_z
   185                           	global	_nop
   186                           	global	_bit0
   187                           	global	_bit1
   188                           	global	_bit2
   189                           	global	_bit3
   190                           	global	_bit4
   191                           	global	_bit5
   192                           	global	_bit6
   193                           	global	_bit7
   194                           	global	_buffer
   195                           	global	_rc
   196                           	global	_ADCON0
   197  001F                     _ADCON0	set	31
   198                           	global	_ADRESH
   199  001E                     _ADRESH	set	30
   200                           	global	_PORTA
   201  0005                     _PORTA	set	5
   202                           	global	_PORTB
   203  0006                     _PORTB	set	6
   204                           	global	_PORTC
   205  0007                     _PORTC	set	7
   206                           	global	_PORTD
   207  0008                     _PORTD	set	8
   208                           	global	_PORTE
   209  0009                     _PORTE	set	9
   210                           	global	_RCREG
   211  001A                     _RCREG	set	26
   212                           	global	_TMR1H
   213  000F                     _TMR1H	set	15
   214                           	global	_TMR1L
   215  000E                     _TMR1L	set	14
   216                           	global	_TXREG
   217  0019                     _TXREG	set	25
   218                           	global	_ADDEN
   219  00C3                     _ADDEN	set	195
   220                           	global	_ADON
   221  00F8                     _ADON	set	248
   222                           	global	_CARRY
   223  0018                     _CARRY	set	24
   224                           	global	_CREN
   225  00C4                     _CREN	set	196
   226                           	global	_FERR
   227  00C2                     _FERR	set	194
   228                           	global	_GIE
   229  005F                     _GIE	set	95
   230                           	global	_GO
   231  00FA                     _GO	set	250
   232                           	global	_INTE
   233  005C                     _INTE	set	92
   234                           	global	_OERR
   235  00C1                     _OERR	set	193
   236                           	global	_PEIE
   237  005E                     _PEIE	set	94
   238                           	global	_RBIE
   239  005B                     _RBIE	set	91
   240                           	global	_RC0
   241  0038                     _RC0	set	56
   242                           	global	_RC1
   243  0039                     _RC1	set	57
   244                           	global	_RC2
   245  003A                     _RC2	set	58
   246                           	global	_RC3
   247  003B                     _RC3	set	59
   248                           	global	_RC4
   249  003C                     _RC4	set	60
   250                           	global	_RC5
   251  003D                     _RC5	set	61
   252                           	global	_RCIF
   253  0065                     _RCIF	set	101
   254                           	global	_RD0
   255  0040                     _RD0	set	64
   256                           	global	_RD1
   257  0041                     _RD1	set	65
   258                           	global	_RD2
   259  0042                     _RD2	set	66
   260                           	global	_RD3
   261  0043                     _RD3	set	67
   262                           	global	_RD4
   263  0044                     _RD4	set	68
   264                           	global	_RD5
   265  0045                     _RD5	set	69
   266                           	global	_RD6
   267  0046                     _RD6	set	70
   268                           	global	_RD7
   269  0047                     _RD7	set	71
   270                           	global	_RX9
   271  00C6                     _RX9	set	198
   272                           	global	_SPEN
   273  00C7                     _SPEN	set	199
   274                           	global	_T0IE
   275  005D                     _T0IE	set	93
   276                           	global	_T1CKPS0
   277  0084                     _T1CKPS0	set	132
   278                           	global	_T1CKPS1
   279  0085                     _T1CKPS1	set	133
   280                           	global	_T1OSCEN
   281  0083                     _T1OSCEN	set	131
   282                           	global	_TMR1CS
   283  0081                     _TMR1CS	set	129
   284                           	global	_TMR1IF
   285  0060                     _TMR1IF	set	96
   286                           	global	_TMR1ON
   287  0080                     _TMR1ON	set	128
   288                           	global	_TXIF
   289  0064                     _TXIF	set	100
   290                           	global	_ADCON1
   291  009F                     _ADCON1	set	159
   292                           	global	_ADRESL
   293  009E                     _ADRESL	set	158
   294                           	global	_SPBRG
   295  0099                     _SPBRG	set	153
   296                           	global	_TRISA
   297  0085                     _TRISA	set	133
   298                           	global	_TRISB
   299  0086                     _TRISB	set	134
   300                           	global	_TRISC
   301  0087                     _TRISC	set	135
   302                           	global	_TRISD
   303  0088                     _TRISD	set	136
   304                           	global	_TRISE
   305  0089                     _TRISE	set	137
   306                           	global	_ADIE
   307  0466                     _ADIE	set	1126
   308                           	global	_BCLIE
   309  046B                     _BCLIE	set	1131
   310                           	global	_BRGH
   311  04C2                     _BRGH	set	1218
   312                           	global	_CCP1IE
   313  0462                     _CCP1IE	set	1122
   314                           	global	_CCP2IE
   315  0468                     _CCP2IE	set	1128
   316                           	global	_EEIE
   317  046C                     _EEIE	set	1132
   318                           	global	_PSPIE
   319  0467                     _PSPIE	set	1127
   320                           	global	_RCIE
   321  0465                     _RCIE	set	1125
   322                           	global	_SSPIE
   323  0463                     _SSPIE	set	1123
   324                           	global	_SYNC
   325  04C4                     _SYNC	set	1220
   326                           	global	_TMR1IE
   327  0460                     _TMR1IE	set	1120
   328                           	global	_TMR2IE
   329  0461                     _TMR2IE	set	1121
   330                           	global	_TX9
   331  04C6                     _TX9	set	1222
   332                           	global	_TXEN
   333  04C5                     _TXEN	set	1221
   334                           	global	_TXIE
   335  0464                     _TXIE	set	1124
   336                           	global	_EEADR
   337  010D                     _EEADR	set	269
   338                           	global	_EEDATA
   339  010C                     _EEDATA	set	268
   340                           	global	_EECON1
   341  018C                     _EECON1	set	396
   342                           	global	_EECON2
   343  018D                     _EECON2	set	397
   344                           	global	_RD
   345  0C60                     _RD	set	3168
   346                           	global	_WR
   347  0C61                     _WR	set	3169
   348                           	global	_WREN
   349  0C62                     _WREN	set	3170
   350                           	
   351  0824                     STR_4:	
   352  0824  3420               	retlw	32	;' '
   353  0825  3420               	retlw	32	;' '
   354  0826  3420               	retlw	32	;' '
   355  0827  3420               	retlw	32	;' '
   356  0828  3420               	retlw	32	;' '
   357  0829  3420               	retlw	32	;' '
   358  082A  3453               	retlw	83	;'S'
   359  082B  3479               	retlw	121	;'y'
   360  082C  3473               	retlw	115	;'s'
   361  082D  3474               	retlw	116	;'t'
   362  082E  3465               	retlw	101	;'e'
   363  082F  346D               	retlw	109	;'m'
   364  0830  3420               	retlw	32	;' '
   365  0831  3420               	retlw	32	;' '
   366  0832  3420               	retlw	32	;' '
   367  0833  3420               	retlw	32	;' '
   368  0834  3420               	retlw	32	;' '
   369  0835  3400               	retlw	0
   370                           psect	strings
   371                           	
   372  0836                     STR_3:	
   373  0836  3420               	retlw	32	;' '
   374  0837  3420               	retlw	32	;' '
   375  0838  3420               	retlw	32	;' '
   376  0839  3420               	retlw	32	;' '
   377  083A  344D               	retlw	77	;'M'
   378  083B  346F               	retlw	111	;'o'
   379  083C  346E               	retlw	110	;'n'
   380  083D  3469               	retlw	105	;'i'
   381  083E  3474               	retlw	116	;'t'
   382  083F  346F               	retlw	111	;'o'
   383  0840  3472               	retlw	114	;'r'
   384  0841  3469               	retlw	105	;'i'
   385  0842  346E               	retlw	110	;'n'
   386  0843  3467               	retlw	103	;'g'
   387  0844  3420               	retlw	32	;' '
   388  0845  3420               	retlw	32	;' '
   389  0846  3420               	retlw	32	;' '
   390  0847  3400               	retlw	0
   391                           psect	strings
   392                           	
   393  0848                     STR_2:	
   394  0848  3420               	retlw	32	;' '
   395  0849  3461               	retlw	97	;'a'
   396  084A  346E               	retlw	110	;'n'
   397  084B  3464               	retlw	100	;'d'
   398  084C  3420               	retlw	32	;' '
   399  084D  3448               	retlw	72	;'H'
   400  084E  3465               	retlw	101	;'e'
   401  084F  3461               	retlw	97	;'a'
   402  0850  3472               	retlw	114	;'r'
   403  0851  3474               	retlw	116	;'t'
   404  0852  3420               	retlw	32	;' '
   405  0853  3452               	retlw	82	;'R'
   406  0854  3461               	retlw	97	;'a'
   407  0855  3474               	retlw	116	;'t'
   408  0856  3465               	retlw	101	;'e'
   409  0857  3420               	retlw	32	;' '
   410  0858  3420               	retlw	32	;' '
   411  0859  3400               	retlw	0
   412                           psect	strings
   413                           	
   414  085A                     STR_1:	
   415  085A  3442               	retlw	66	;'B'
   416  085B  346F               	retlw	111	;'o'
   417  085C  3464               	retlw	100	;'d'
   418  085D  3479               	retlw	121	;'y'
   419  085E  3420               	retlw	32	;' '
   420  085F  3454               	retlw	84	;'T'
   421  0860  3465               	retlw	101	;'e'
   422  0861  346D               	retlw	109	;'m'
   423  0862  3470               	retlw	112	;'p'
   424  0863  3465               	retlw	101	;'e'
   425  0864  3472               	retlw	114	;'r'
   426  0865  3461               	retlw	97	;'a'
   427  0866  3474               	retlw	116	;'t'
   428  0867  3475               	retlw	117	;'u'
   429  0868  3472               	retlw	114	;'r'
   430  0869  3465               	retlw	101	;'e'
   431  086A  3420               	retlw	32	;' '
   432  086B  3400               	retlw	0
   433                           psect	strings
   434                           	
   435  086C                     STR_9:	
   436  086C  3430               	retlw	48	;'0'
   437  086D  3431               	retlw	49	;'1'
   438  086E  3432               	retlw	50	;'2'
   439  086F  3433               	retlw	51	;'3'
   440  0870  3434               	retlw	52	;'4'
   441  0871  3435               	retlw	53	;'5'
   442  0872  3436               	retlw	54	;'6'
   443  0873  3437               	retlw	55	;'7'
   444  0874  3438               	retlw	56	;'8'
   445  0875  3439               	retlw	57	;'9'
   446  0876  3441               	retlw	65	;'A'
   447  0877  3442               	retlw	66	;'B'
   448  0878  3443               	retlw	67	;'C'
   449  0879  3444               	retlw	68	;'D'
   450  087A  3445               	retlw	69	;'E'
   451  087B  3446               	retlw	70	;'F'
   452  087C  3400               	retlw	0
   453                           psect	strings
   454                           	
   455  087D                     STR_10:	
   456  087D  3430               	retlw	48	;'0'
   457  087E  3431               	retlw	49	;'1'
   458  087F  3432               	retlw	50	;'2'
   459  0880  3433               	retlw	51	;'3'
   460  0881  3434               	retlw	52	;'4'
   461  0882  3435               	retlw	53	;'5'
   462  0883  3436               	retlw	54	;'6'
   463  0884  3437               	retlw	55	;'7'
   464  0885  3438               	retlw	56	;'8'
   465  0886  3439               	retlw	57	;'9'
   466  0887  3461               	retlw	97	;'a'
   467  0888  3462               	retlw	98	;'b'
   468  0889  3463               	retlw	99	;'c'
   469  088A  3464               	retlw	100	;'d'
   470  088B  3465               	retlw	101	;'e'
   471  088C  3466               	retlw	102	;'f'
   472  088D  3400               	retlw	0
   473                           psect	strings
   474                           	
   475  088E                     STR_5:	
   476  088E  3420               	retlw	32	;' '
   477  088F  3420               	retlw	32	;' '
   478  0890  3420               	retlw	32	;' '
   479  0891  3420               	retlw	32	;' '
   480  0892  3420               	retlw	32	;' '
   481  0893  3420               	retlw	32	;' '
   482  0894  3420               	retlw	32	;' '
   483  0895  3466               	retlw	102	;'f'
   484  0896  346F               	retlw	111	;'o'
   485  0897  3472               	retlw	114	;'r'
   486  0898  3420               	retlw	32	;' '
   487  0899  3420               	retlw	32	;' '
   488  089A  3420               	retlw	32	;' '
   489  089B  3420               	retlw	32	;' '
   490  089C  3420               	retlw	32	;' '
   491  089D  3420               	retlw	32	;' '
   492  089E  3400               	retlw	0
   493                           psect	strings
   494                           	
   495  089F                     STR_6:	
   496  089F  3420               	retlw	32	;' '
   497  08A0  3420               	retlw	32	;' '
   498  08A1  3420               	retlw	32	;' '
   499  08A2  3420               	retlw	32	;' '
   500  08A3  3450               	retlw	80	;'P'
   501  08A4  3461               	retlw	97	;'a'
   502  08A5  3474               	retlw	116	;'t'
   503  08A6  3469               	retlw	105	;'i'
   504  08A7  3465               	retlw	101	;'e'
   505  08A8  346E               	retlw	110	;'n'
   506  08A9  3474               	retlw	116	;'t'
   507  08AA  3473               	retlw	115	;'s'
   508  08AB  3420               	retlw	32	;' '
   509  08AC  3420               	retlw	32	;' '
   510  08AD  3420               	retlw	32	;' '
   511  08AE  3420               	retlw	32	;' '
   512  08AF  3400               	retlw	0
   513                           psect	strings
   514                           	
   515  08B0                     STR_8:	
   516  08B0  3454               	retlw	84	;'T'
   517  08B1  343A               	retlw	58	;':'
   518  08B2  3420               	retlw	32	;' '
   519  08B3  3420               	retlw	32	;' '
   520  08B4  3438               	retlw	56	;'8'
   521  08B5  3434               	retlw	52	;'4'
   522  08B6  3446               	retlw	70	;'F'
   523  08B7  3420               	retlw	32	;' '
   524  08B8  3420               	retlw	32	;' '
   525  08B9  3420               	retlw	32	;' '
   526  08BA  344C               	retlw	76	;'L'
   527  08BB  346F               	retlw	111	;'o'
   528  08BC  3477               	retlw	119	;'w'
   529  08BD  3420               	retlw	32	;' '
   530  08BE  3420               	retlw	32	;' '
   531  08BF  3420               	retlw	32	;' '
   532  08C0  3400               	retlw	0
   533                           psect	strings
   534                           	
   535  08C1                     STR_7:	
   536  08C1  3448               	retlw	72	;'H'
   537  08C2  343A               	retlw	58	;':'
   538  08C3  3420               	retlw	32	;' '
   539  08C4  3420               	retlw	32	;' '
   540  08C5  3436               	retlw	54	;'6'
   541  08C6  3432               	retlw	50	;'2'
   542  08C7  3450               	retlw	80	;'P'
   543  08C8  3450               	retlw	80	;'P'
   544  08C9  344D               	retlw	77	;'M'
   545  08CA  3420               	retlw	32	;' '
   546  08CB  344C               	retlw	76	;'L'
   547  08CC  346F               	retlw	111	;'o'
   548  08CD  3477               	retlw	119	;'w'
   549  08CE  3420               	retlw	32	;' '
   550  08CF  3420               	retlw	32	;' '
   551  08D0  3420               	retlw	32	;' '
   552  08D1  3400               	retlw	0
   553                           psect	strings
   554                           	file	"ver1.as"
   555                           	line	#
   556                           psect cinit,class=CODE,delta=2
   557                           global start_initialization
   558  171A                     start_initialization:
   559                           
   560                           psect	bitbssCOMMON,class=COMMON,bit,space=1
   561                           global __pbitbssCOMMON
   562  03E0                     __pbitbssCOMMON:
   563  03E0                     _bit0:
   564  03E0                            ds      1
   565                           
   566  03E1                     _bit1:
   567  03E1                            ds      1
   568                           
   569  03E2                     _bit2:
   570  03E2                            ds      1
   571                           
   572  03E3                     _bit3:
   573  03E3                            ds      1
   574                           
   575  03E4                     _bit4:
   576  03E4                            ds      1
   577                           
   578  03E5                     _bit5:
   579  03E5                            ds      1
   580                           
   581  03E6                     _bit6:
   582  03E6                            ds      1
   583                           
   584  03E7                     _bit7:
   585  03E7                            ds      1
   586                           
   587                           psect	bitbssBANK0,class=BANK0,bit,space=1
   588                           global __pbitbssBANK0
   589  0360                     __pbitbssBANK0:
   590  0360                     _nop:
   591  0360                            ds      1
   592                           
   593                           psect	bssBANK0,class=BANK0,space=1
   594                           global __pbssBANK0
   595  0047                     __pbssBANK0:
   596  0047                     _temperature:
   597  0047                            ds      3
   598                           
   599  004A                     _HeartRate:
   600  004A                            ds      2
   601                           
   602  004C                     _HeartRateCount:
   603  004C                            ds      2
   604                           
   605  004E                     _analogReadVal:
   606  004E                            ds      2
   607                           
   608  0050                     _heartRate:
   609  0050                            ds      2
   610                           
   611  0052                     _hour:
   612  0052                            ds      2
   613                           
   614  0054                     _ldr1:
   615  0054                            ds      2
   616                           
   617  0056                     _ldr2:
   618  0056                            ds      2
   619                           
   620  0058                     _minute:
   621  0058                            ds      2
   622                           
   623  005A                     _msecond:
   624  005A                            ds      2
   625                           
   626  005C                     _second:
   627  005C                            ds      2
   628                           
   629  005E                     _j:
   630  005E                            ds      1
   631                           
   632  005F                     _lcd_bus:
   633  005F                            ds      1
   634                           
   635  0060                     _lcd_data:
   636  0060                            ds      1
   637                           
   638  0061                     _lcd_data_high:
   639  0061                            ds      1
   640                           
   641  0062                     _lcd_data_low:
   642  0062                            ds      1
   643                           
   644  0063                     _state:
   645  0063                            ds      1
   646                           
   647  0064                     _v:
   648  0064                            ds      1
   649                           
   650  0065                     _w:
   651  0065                            ds      1
   652                           
   653  0066                     _wtmp:
   654  0066                            ds      1
   655                           
   656  0067                     _x:
   657  0067                            ds      1
   658                           
   659  0068                     _y:
   660  0068                            ds      1
   661                           
   662  0069                     _z:
   663  0069                            ds      1
   664                           
   665                           psect	dataBANK0,class=BANK0,space=1
   666                           global __pdataBANK0
   667  006A                     __pdataBANK0:
   668                           	file	"D:\ELECTRONIC\2016\1. Automated Solar Panel Orientation Setter\Firmware\ver2\Auto
                                 mated Solar Panel Orientation Setter.c"
   669                           	line	29
   670  006A                     _bed_nu:
   671  006A                            ds      1
   672                           
   673                           psect	dataBANK0
   674                           	file	"D:\ELECTRONIC\2016\1. Automated Solar Panel Orientation Setter\Firmware\ver2\Auto
                                 mated Solar Panel Orientation Setter.c"
   675                           	line	30
   676  006B                     _i:
   677  006B                            ds      1
   678                           
   679                           psect	bssBANK1,class=BANK1,space=1
   680                           global __pbssBANK1
   681  00A0                     __pbssBANK1:
   682  00A0                     _buffer:
   683  00A0                            ds      20
   684                           
   685  00B4                     _rc:
   686  00B4                            ds      9
   687                           
   688                           psect clrtext,class=CODE,delta=2
   689                           global clear_ram
   690                           ;	Called with FSR containing the base address, and
   691                           ;	W with the last address+1
   692  164E                     clear_ram:
   693  164E  0064               	clrwdt			;clear the watchdog before getting into this loop
   694  164F                     clrloop:
   695  164F  0180               	clrf	indf		;clear RAM location pointed to by FSR
   696  1650  0A84               	incf	fsr,f		;increment pointer
   697  1651  0604               	xorwf	fsr,w		;XOR with final address
   698  1652  1903               	btfsc	status,2	;have we reached the end yet?
   699  1653  3400               	retlw	0		;all done for this memory range, return
   700  1654  0604               	xorwf	fsr,w		;XOR again to restore value
   701  1655  2E4F               	goto	clrloop		;do the next byte
   702                           
   703                           ; Clear objects allocated to BITCOMMON
   704                           psect cinit,class=CODE,delta=2
   705  171A  01FC               	clrf	((__pbitbssCOMMON/8)+0)&07Fh
   706                           ; Clear objects allocated to BITBANK0
   707                           psect cinit,class=CODE,delta=2
   708  171B  01EC               	clrf	((__pbitbssBANK0/8)+0)&07Fh
   709                           ; Clear objects allocated to BANK0
   710                           psect cinit,class=CODE,delta=2
   711  171C  1383               	bcf	status, 7	;select IRP bank0
   712  171D  3047               	movlw	low(__pbssBANK0)
   713  171E  0084               	movwf	fsr
   714  171F  306A               	movlw	low((__pbssBANK0)+023h)
   715  1720  160A  118A  264E   	fcall	clear_ram
              160A  118A         
   716                           ; Clear objects allocated to BANK1
   717                           psect cinit,class=CODE,delta=2
   718  1725  30A0               	movlw	low(__pbssBANK1)
   719  1726  0084               	movwf	fsr
   720  1727  30BD               	movlw	low((__pbssBANK1)+01Dh)
   721  1728  160A  118A  264E   	fcall	clear_ram
              160A  118A         
   722                           ; Initialize objects allocated to BANK0
   723                           	global __pidataBANK0
   724                           psect cinit,class=CODE,delta=2
   725  172D  120A  118A  2016   	fcall	__pidataBANK0+0		;fetch initializer
              160A  118A         
   726  1732  00EA               	movwf	__pdataBANK0+0&07fh		
   727  1733  120A  118A  2017   	fcall	__pidataBANK0+1		;fetch initializer
              160A  118A         
   728  1738  00EB               	movwf	__pdataBANK0+1&07fh		
   729                           psect cinit,class=CODE,delta=2
   730                           global end_of_initialization
   731                           
   732                           ;End of C runtime variable initialization code
   733                           
   734  1739                     end_of_initialization:
   735  1739  0183               clrf status
   736  173A  120A  158A  2EC4   ljmp _main	;jump to C main() function
   737                           psect	cstackCOMMON,class=COMMON,space=1
   738                           global __pcstackCOMMON
   739  0071                     __pcstackCOMMON:
   740                           	global	?_lcd_add
   741  0071                     ?_lcd_add:	; 0 bytes @ 0x0
   742                           	global	?_isdigit
   743  0071                     ?_isdigit:	; 1 bit 
   744                           	global	?_Setup_IOports
   745  0071                     ?_Setup_IOports:	; 0 bytes @ 0x0
   746                           	global	?_lcd_init
   747  0071                     ?_lcd_init:	; 0 bytes @ 0x0
   748                           	global	?_putch
   749  0071                     ?_putch:	; 0 bytes @ 0x0
   750                           	global	?_clr_display
   751  0071                     ?_clr_display:	; 0 bytes @ 0x0
   752                           	global	?_atod_init
   753  0071                     ?_atod_init:	; 0 bytes @ 0x0
   754                           	global	?_Serial_Init
   755  0071                     ?_Serial_Init:	; 0 bytes @ 0x0
   756                           	global	?_enableInterrupt
   757  0071                     ?_enableInterrupt:	; 0 bytes @ 0x0
   758                           	global	?_Timer1_Init
   759  0071                     ?_Timer1_Init:	; 0 bytes @ 0x0
   760                           	global	?_main
   761  0071                     ?_main:	; 0 bytes @ 0x0
   762                           	global	?_isr
   763  0071                     ?_isr:	; 0 bytes @ 0x0
   764                           	global	?i1_lcd_init
   765  0071                     ?i1_lcd_init:	; 0 bytes @ 0x0
   766                           	global	??i1_lcd_init
   767  0071                     ??i1_lcd_init:	; 0 bytes @ 0x0
   768                           	global	?i1_clr_display
   769  0071                     ?i1_clr_display:	; 0 bytes @ 0x0
   770                           	global	?i1_lcd_add
   771  0071                     ?i1_lcd_add:	; 0 bytes @ 0x0
   772                           	global	??i1_lcd_add
   773  0071                     ??i1_lcd_add:	; 0 bytes @ 0x0
   774                           	global	?_CheckKeyPad
   775  0071                     ?_CheckKeyPad:	; 1 bytes @ 0x0
   776                           	global	?i1___lwmod
   777  0071                     ?i1___lwmod:	; 2 bytes @ 0x0
   778                           	global	i1lcd_init@DelayLCD
   779  0071                     i1lcd_init@DelayLCD:	; 2 bytes @ 0x0
   780                           	global	i1___lwmod@divisor
   781  0071                     i1___lwmod@divisor:	; 2 bytes @ 0x0
   782  0071                     	ds	2
   783                           	global	??i1_clr_display
   784  0073                     ??i1_clr_display:	; 0 bytes @ 0x2
   785                           	global	i1___lwmod@dividend
   786  0073                     i1___lwmod@dividend:	; 2 bytes @ 0x2
   787  0073                     	ds	2
   788                           	global	??i1___lwmod
   789  0075                     ??i1___lwmod:	; 0 bytes @ 0x4
   790  0075                     	ds	1
   791                           	global	i1___lwmod@counter
   792  0076                     i1___lwmod@counter:	; 1 bytes @ 0x5
   793  0076                     	ds	1
   794                           	global	??_isr
   795  0077                     ??_isr:	; 0 bytes @ 0x6
   796  0077                     	ds	5
   797                           psect	cstackBANK0,class=BANK0,space=1
   798                           global __pcstackBANK0
   799  0020                     __pcstackBANK0:
   800                           	global	??_lcd_add
   801  0020                     ??_lcd_add:	; 0 bytes @ 0x0
   802                           	global	??_isdigit
   803  0020                     ??_isdigit:	; 0 bytes @ 0x0
   804                           	global	??_Setup_IOports
   805  0020                     ??_Setup_IOports:	; 0 bytes @ 0x0
   806                           	global	??_lcd_init
   807  0020                     ??_lcd_init:	; 0 bytes @ 0x0
   808                           	global	??_atod_init
   809  0020                     ??_atod_init:	; 0 bytes @ 0x0
   810                           	global	??_Serial_Init
   811  0020                     ??_Serial_Init:	; 0 bytes @ 0x0
   812                           	global	??_enableInterrupt
   813  0020                     ??_enableInterrupt:	; 0 bytes @ 0x0
   814                           	global	??_Timer1_Init
   815  0020                     ??_Timer1_Init:	; 0 bytes @ 0x0
   816                           	global	?___bmul
   817  0020                     ?___bmul:	; 1 bytes @ 0x0
   818                           	global	?_RowNo
   819  0020                     ?_RowNo:	; 2 bytes @ 0x0
   820                           	global	?_ColomnNo
   821  0020                     ?_ColomnNo:	; 2 bytes @ 0x0
   822                           	global	?___wmul
   823  0020                     ?___wmul:	; 2 bytes @ 0x0
   824                           	global	?___lwdiv
   825  0020                     ?___lwdiv:	; 2 bytes @ 0x0
   826                           	global	_isdigit$1773
   827  0020                     _isdigit$1773:	; 1 bytes @ 0x0
   828                           	global	___bmul@multiplicand
   829  0020                     ___bmul@multiplicand:	; 1 bytes @ 0x0
   830                           	global	lcd_init@DelayLCD
   831  0020                     lcd_init@DelayLCD:	; 2 bytes @ 0x0
   832                           	global	ColomnNo@rowNo
   833  0020                     ColomnNo@rowNo:	; 2 bytes @ 0x0
   834                           	global	___wmul@multiplier
   835  0020                     ___wmul@multiplier:	; 2 bytes @ 0x0
   836                           	global	___lwdiv@divisor
   837  0020                     ___lwdiv@divisor:	; 2 bytes @ 0x0
   838  0020                     	ds	1
   839                           	global	??___bmul
   840  0021                     ??___bmul:	; 0 bytes @ 0x1
   841                           	global	isdigit@c
   842  0021                     isdigit@c:	; 1 bytes @ 0x1
   843  0021                     	ds	1
   844                           	global	??_RowNo
   845  0022                     ??_RowNo:	; 0 bytes @ 0x2
   846                           	global	??_ColomnNo
   847  0022                     ??_ColomnNo:	; 0 bytes @ 0x2
   848                           	global	??_putch
   849  0022                     ??_putch:	; 0 bytes @ 0x2
   850                           	global	??_clr_display
   851  0022                     ??_clr_display:	; 0 bytes @ 0x2
   852                           	global	?_position
   853  0022                     ?_position:	; 0 bytes @ 0x2
   854                           	global	position@collum
   855  0022                     position@collum:	; 1 bytes @ 0x2
   856                           	global	___bmul@product
   857  0022                     ___bmul@product:	; 1 bytes @ 0x2
   858                           	global	RowNo@row
   859  0022                     RowNo@row:	; 2 bytes @ 0x2
   860                           	global	___wmul@multiplicand
   861  0022                     ___wmul@multiplicand:	; 2 bytes @ 0x2
   862                           	global	___lwdiv@dividend
   863  0022                     ___lwdiv@dividend:	; 2 bytes @ 0x2
   864  0022                     	ds	1
   865                           	global	??_position
   866  0023                     ??_position:	; 0 bytes @ 0x3
   867                           	global	putch@print_value
   868  0023                     putch@print_value:	; 1 bytes @ 0x3
   869                           	global	___bmul@multiplier
   870  0023                     ___bmul@multiplier:	; 1 bytes @ 0x3
   871  0023                     	ds	1
   872                           	global	??_CheckKeyPad
   873  0024                     ??_CheckKeyPad:	; 0 bytes @ 0x4
   874                           	global	??___wmul
   875  0024                     ??___wmul:	; 0 bytes @ 0x4
   876                           	global	??___lwdiv
   877  0024                     ??___lwdiv:	; 0 bytes @ 0x4
   878                           	global	___wmul@product
   879  0024                     ___wmul@product:	; 2 bytes @ 0x4
   880  0024                     	ds	1
   881                           	global	position@post
   882  0025                     position@post:	; 1 bytes @ 0x5
   883                           	global	CheckKeyPad@charactor
   884  0025                     CheckKeyPad@charactor:	; 1 bytes @ 0x5
   885                           	global	___lwdiv@quotient
   886  0025                     ___lwdiv@quotient:	; 2 bytes @ 0x5
   887  0025                     	ds	1
   888                           	global	position@row
   889  0026                     position@row:	; 1 bytes @ 0x6
   890                           	global	CheckKeyPad@colomnNo
   891  0026                     CheckKeyPad@colomnNo:	; 2 bytes @ 0x6
   892  0026                     	ds	1
   893                           	global	___lwdiv@counter
   894  0027                     ___lwdiv@counter:	; 1 bytes @ 0x7
   895  0027                     	ds	1
   896                           	global	?___lwmod
   897  0028                     ?___lwmod:	; 2 bytes @ 0x8
   898                           	global	CheckKeyPad@rowNo
   899  0028                     CheckKeyPad@rowNo:	; 2 bytes @ 0x8
   900                           	global	___lwmod@divisor
   901  0028                     ___lwmod@divisor:	; 2 bytes @ 0x8
   902  0028                     	ds	2
   903                           	global	___lwmod@dividend
   904  002A                     ___lwmod@dividend:	; 2 bytes @ 0xA
   905  002A                     	ds	2
   906                           	global	??___lwmod
   907  002C                     ??___lwmod:	; 0 bytes @ 0xC
   908  002C                     	ds	1
   909                           	global	___lwmod@counter
   910  002D                     ___lwmod@counter:	; 1 bytes @ 0xD
   911  002D                     	ds	1
   912                           	global	?_printf
   913  002E                     ?_printf:	; 2 bytes @ 0xE
   914  002E                     	ds	2
   915                           	global	??_printf
   916  0030                     ??_printf:	; 0 bytes @ 0x10
   917  0030                     	ds	3
   918                           	global	_printf$1414
   919  0033                     _printf$1414:	; 2 bytes @ 0x13
   920  0033                     	ds	2
   921                           	global	_printf$1415
   922  0035                     _printf$1415:	; 2 bytes @ 0x15
   923  0035                     	ds	2
   924                           	global	_printf$1418
   925  0037                     _printf$1418:	; 1 bytes @ 0x17
   926  0037                     	ds	1
   927                           	global	printf@ap
   928  0038                     printf@ap:	; 1 bytes @ 0x18
   929  0038                     	ds	1
   930                           	global	printf@f
   931  0039                     printf@f:	; 1 bytes @ 0x19
   932  0039                     	ds	1
   933                           	global	printf@prec
   934  003A                     printf@prec:	; 1 bytes @ 0x1A
   935  003A                     	ds	1
   936                           	global	printf@width
   937  003B                     printf@width:	; 2 bytes @ 0x1B
   938  003B                     	ds	2
   939                           	global	printf@_val
   940  003D                     printf@_val:	; 3 bytes @ 0x1D
   941  003D                     	ds	3
   942                           	global	printf@c
   943  0040                     printf@c:	; 1 bytes @ 0x20
   944  0040                     	ds	1
   945                           	global	printf@flag
   946  0041                     printf@flag:	; 2 bytes @ 0x21
   947  0041                     	ds	2
   948                           	global	??_main
   949  0043                     ??_main:	; 0 bytes @ 0x23
   950  0043                     	ds	3
   951                           	global	main@pressedKey
   952  0046                     main@pressedKey:	; 1 bytes @ 0x26
   953  0046                     	ds	1
   954 ;;Data sizes: Strings 174, constant 30, data 2, bss 64, persistent 0 stack 0
   955 ;;Auto spaces:   Size  Autos    Used
   956 ;; COMMON          13     11      12
   957 ;; BANK0           80     39      77
   958 ;; BANK1           80      0      29
   959 ;; BANK3           85      0       0
   960 ;; BANK2           96      0       0
   961                           
   962 ;;
   963 ;; Pointer list with targets:
   964                           
   965 ;; ?i1___lwmod	unsigned int  size(1) Largest target is 0
   966 ;;
   967 ;; ?___wmul	unsigned int  size(1) Largest target is 0
   968 ;;
   969 ;; ?_RowNo	int  size(1) Largest target is 0
   970 ;;
   971 ;; ?___lwmod	unsigned int  size(1) Largest target is 0
   972 ;;
   973 ;; ?___lwdiv	unsigned int  size(1) Largest target is 0
   974 ;;
   975 ;; printf$1418	PTR const unsigned char  size(1) Largest target is 17
   976 ;;		 -> STR_10(CODE[17]), STR_9(CODE[17]), 
   977 ;;
   978 ;; printf@_val._cp	PTR const unsigned char  size(1) Largest target is 1
   979 ;;		 -> printf@c(BANK0[1]), 
   980 ;;
   981 ;; printf@f	PTR const unsigned char  size(1) Largest target is 18
   982 ;;		 -> STR_8(CODE[17]), STR_7(CODE[17]), STR_6(CODE[17]), STR_5(CODE[17]), 
   983 ;;		 -> STR_4(CODE[18]), STR_3(CODE[18]), STR_2(CODE[18]), STR_1(CODE[18]), 
   984 ;;
   985 ;; ?_printf	int  size(1) Largest target is 0
   986 ;;
   987 ;; printf@ap	PTR void [1] size(1) Largest target is 2
   988 ;;		 -> ?_printf(BANK0[2]), 
   989 ;;
   990 ;; S1401$_cp	PTR const unsigned char  size(1) Largest target is 1
   991 ;;		 -> printf@c(BANK0[1]), 
   992 ;;
   993 ;; _val._str._cp	PTR const unsigned char  size(1) Largest target is 1
   994 ;;		 -> printf@c(BANK0[1]), 
   995 ;;
   996                           
   997                           
   998 ;;
   999 ;; Critical Paths under _main in COMMON
  1000 ;;
  1001 ;;   None.
  1002 ;;
  1003 ;; Critical Paths under _isr in COMMON
  1004 ;;
  1005 ;;   _isr->i1___lwmod
  1006 ;;   i1_clr_display->i1_lcd_add
  1007 ;;
  1008 ;; Critical Paths under _main in BANK0
  1009 ;;
  1010 ;;   _main->_printf
  1011 ;;   _printf->___lwmod
  1012 ;;   _CheckKeyPad->_RowNo
  1013 ;;   _position->_lcd_add
  1014 ;;   _clr_display->_lcd_add
  1015 ;;   _putch->_lcd_add
  1016 ;;   ___lwmod->___lwdiv
  1017 ;;
  1018 ;; Critical Paths under _isr in BANK0
  1019 ;;
  1020 ;;   None.
  1021 ;;
  1022 ;; Critical Paths under _main in BANK1
  1023 ;;
  1024 ;;   None.
  1025 ;;
  1026 ;; Critical Paths under _isr in BANK1
  1027 ;;
  1028 ;;   None.
  1029 ;;
  1030 ;; Critical Paths under _main in BANK3
  1031 ;;
  1032 ;;   None.
  1033 ;;
  1034 ;; Critical Paths under _isr in BANK3
  1035 ;;
  1036 ;;   None.
  1037 ;;
  1038 ;; Critical Paths under _main in BANK2
  1039 ;;
  1040 ;;   None.
  1041 ;;
  1042 ;; Critical Paths under _isr in BANK2
  1043 ;;
  1044 ;;   None.
  1045                           
  1046 ;;
  1047 ;;Main: autosize = 0, tempsize = 3, incstack = 0, save=0
  1048 ;;
  1049                           
  1050 ;;
  1051 ;;Call Graph Tables:
  1052 ;;
  1053 ;; ---------------------------------------------------------------------------------
  1054 ;; (Depth) Function   	        Calls       Base Space   Used Autos Params    Refs
  1055 ;; ---------------------------------------------------------------------------------
  1056 ;; (0) _main                                                 4     4      0    4370
  1057 ;;                                             35 BANK0      4     4      0
  1058 ;;                      _Setup_IOports
  1059 ;;                          _atod_init
  1060 ;;                           _lcd_init
  1061 ;;                        _clr_display
  1062 ;;                        _Serial_Init
  1063 ;;                        _Timer1_Init
  1064 ;;                    _enableInterrupt
  1065 ;;                             _printf
  1066 ;;                           _position
  1067 ;;                        _CheckKeyPad
  1068 ;; ---------------------------------------------------------------------------------
  1069 ;; (1) _printf                                              21    19      2    2986
  1070 ;;                                             14 BANK0     21    19      2
  1071 ;;                              _putch
  1072 ;;                            _isdigit
  1073 ;;                             ___wmul
  1074 ;;                             ___bmul
  1075 ;;                            ___lwdiv
  1076 ;;                            ___lwmod
  1077 ;; ---------------------------------------------------------------------------------
  1078 ;; (1) _CheckKeyPad                                          6     6      0     994
  1079 ;;                                              4 BANK0      6     6      0
  1080 ;;                              _RowNo
  1081 ;;                           _ColomnNo
  1082 ;; ---------------------------------------------------------------------------------
  1083 ;; (1) _position                                             5     4      1     115
  1084 ;;                                              2 BANK0      5     4      1
  1085 ;;                            _lcd_add
  1086 ;; ---------------------------------------------------------------------------------
  1087 ;; (1) _clr_display                                          2     2      0       0
  1088 ;;                                              2 BANK0      2     2      0
  1089 ;;                            _lcd_add
  1090 ;; ---------------------------------------------------------------------------------
  1091 ;; (2) _putch                                                2     2      0      22
  1092 ;;                                              2 BANK0      2     2      0
  1093 ;;                            _lcd_add
  1094 ;; ---------------------------------------------------------------------------------
  1095 ;; (2) _ColomnNo                                             2     0      2      88
  1096 ;;                                              0 BANK0      2     0      2
  1097 ;; ---------------------------------------------------------------------------------
  1098 ;; (1) _Serial_Init                                          3     3      0       0
  1099 ;;                                              0 BANK0      3     3      0
  1100 ;; ---------------------------------------------------------------------------------
  1101 ;; (2) _lcd_add                                              2     2      0       0
  1102 ;;                                              0 BANK0      2     2      0
  1103 ;; ---------------------------------------------------------------------------------
  1104 ;; (2) ___lwmod                                              6     2      4     159
  1105 ;;                                              8 BANK0      6     2      4
  1106 ;;                            ___lwdiv (ARG)
  1107 ;; ---------------------------------------------------------------------------------
  1108 ;; (2) ___lwdiv                                              8     4      4     162
  1109 ;;                                              0 BANK0      8     4      4
  1110 ;; ---------------------------------------------------------------------------------
  1111 ;; (2) ___wmul                                               6     2      4      92
  1112 ;;                                              0 BANK0      6     2      4
  1113 ;; ---------------------------------------------------------------------------------
  1114 ;; (2) ___bmul                                               4     3      1      92
  1115 ;;                                              0 BANK0      4     3      1
  1116 ;; ---------------------------------------------------------------------------------
  1117 ;; (2) _isdigit                                              2     2      0      68
  1118 ;;                                              0 BANK0      2     2      0
  1119 ;; ---------------------------------------------------------------------------------
  1120 ;; (2) _RowNo                                                4     2      2      27
  1121 ;;                                              0 BANK0      4     2      2
  1122 ;; ---------------------------------------------------------------------------------
  1123 ;; (1) _Timer1_Init                                          0     0      0       0
  1124 ;; ---------------------------------------------------------------------------------
  1125 ;; (1) _enableInterrupt                                      0     0      0       0
  1126 ;; ---------------------------------------------------------------------------------
  1127 ;; (1) _atod_init                                            0     0      0       0
  1128 ;; ---------------------------------------------------------------------------------
  1129 ;; (1) _lcd_init                                             2     2      0     230
  1130 ;;                                              0 BANK0      2     2      0
  1131 ;; ---------------------------------------------------------------------------------
  1132 ;; (1) _Setup_IOports                                        0     0      0       0
  1133 ;; ---------------------------------------------------------------------------------
  1134 ;; Estimated maximum stack depth 2
  1135 ;; ---------------------------------------------------------------------------------
  1136 ;; (Depth) Function   	        Calls       Base Space   Used Autos Params    Refs
  1137 ;; ---------------------------------------------------------------------------------
  1138 ;; (4) _isr                                                  5     5      0    1271
  1139 ;;                                              6 COMMON     5     5      0
  1140 ;;                         i1_lcd_init
  1141 ;;                      i1_clr_display
  1142 ;;                          i1___lwmod
  1143 ;; ---------------------------------------------------------------------------------
  1144 ;; (5) i1_clr_display                                        2     2      0       0
  1145 ;;                                              2 COMMON     2     2      0
  1146 ;;                          i1_lcd_add
  1147 ;; ---------------------------------------------------------------------------------
  1148 ;; (6) i1_lcd_add                                            2     2      0       0
  1149 ;;                                              0 COMMON     2     2      0
  1150 ;; ---------------------------------------------------------------------------------
  1151 ;; (5) i1___lwmod                                            6     2      4     521
  1152 ;;                                              0 COMMON     6     2      4
  1153 ;; ---------------------------------------------------------------------------------
  1154 ;; (5) i1_lcd_init                                           2     2      0     750
  1155 ;;                                              0 COMMON     2     2      0
  1156 ;; ---------------------------------------------------------------------------------
  1157 ;; Estimated maximum stack depth 6
  1158 ;; ---------------------------------------------------------------------------------
  1159                           
  1160 ;; Call Graph Graphs:
  1161                           
  1162 ;; _main (ROOT)
  1163 ;;   _Setup_IOports
  1164 ;;   _atod_init
  1165 ;;   _lcd_init
  1166 ;;   _clr_display
  1167 ;;     _lcd_add
  1168 ;;   _Serial_Init
  1169 ;;   _Timer1_Init
  1170 ;;   _enableInterrupt
  1171 ;;   _printf
  1172 ;;     _putch
  1173 ;;       _lcd_add
  1174 ;;     _isdigit
  1175 ;;     ___wmul
  1176 ;;     ___bmul
  1177 ;;     ___lwdiv
  1178 ;;     ___lwmod
  1179 ;;       ___lwdiv (ARG)
  1180 ;;   _position
  1181 ;;     _lcd_add
  1182 ;;   _CheckKeyPad
  1183 ;;     _RowNo
  1184 ;;     _ColomnNo
  1185 ;;
  1186 ;; _isr (ROOT)
  1187 ;;   i1_lcd_init
  1188 ;;   i1_clr_display
  1189 ;;     i1_lcd_add
  1190 ;;   i1___lwmod
  1191 ;;
  1192                           
  1193 ;; Address spaces:
  1194                           
  1195 ;;Name               Size   Autos  Total    Cost      Usage
  1196 ;;BANK3               55      0       0       9        0.0%
  1197 ;;BITBANK3            55      0       0       8        0.0%
  1198 ;;SFR3                 0      0       0       4        0.0%
  1199 ;;BITSFR3              0      0       0       4        0.0%
  1200 ;;BANK2               60      0       0      11        0.0%
  1201 ;;BITBANK2            60      0       0      10        0.0%
  1202 ;;SFR2                 0      0       0       5        0.0%
  1203 ;;BITSFR2              0      0       0       5        0.0%
  1204 ;;SFR1                 0      0       0       2        0.0%
  1205 ;;BITSFR1              0      0       0       2        0.0%
  1206 ;;BANK1               50      0      1D       7       36.3%
  1207 ;;BITBANK1            50      0       0       6        0.0%
  1208 ;;CODE                 0      0       0       0        0.0%
  1209 ;;DATA                 0      0      7F      12        0.0%
  1210 ;;ABS                  0      0      76       3        0.0%
  1211 ;;NULL                 0      0       0       0        0.0%
  1212 ;;STACK                0      0       9       2        0.0%
  1213 ;;BANK0               50     27      4D       5       96.3%
  1214 ;;BITBANK0            50      0       1       4        1.3%
  1215 ;;SFR0                 0      0       0       1        0.0%
  1216 ;;BITSFR0              0      0       0       1        0.0%
  1217 ;;COMMON               D      B       C       1       92.3%
  1218 ;;BITCOMMON            D      0       1       0        7.7%
  1219 ;;EEDATA             100      0       0       0        0.0%
  1220                           
  1221                           	global	_main
  1222                           psect	maintext,global,class=CODE,delta=2
  1223                           global __pmaintext
  1224  0EC4                     __pmaintext:
  1225                           
  1226 ;; *************** function _main *****************
  1227 ;; Defined at:
  1228 ;;		line 75 in file "D:\ELECTRONIC\2016\1. Automated Solar Panel Orientation Setter\Firmware\ver2\Automated Solar Panel 
       Orientation Setter.c"
  1229 ;; Parameters:    Size  Location     Type
  1230 ;;		None
  1231 ;; Auto vars:     Size  Location     Type
  1232 ;;  pressedKey      1   38[BANK0 ] unsigned char 
  1233 ;; Return value:  Size  Location     Type
  1234 ;;		None               void
  1235 ;; Registers used:
  1236 ;;		wreg, fsr0l, fsr0h, status,2, status,0, btemp+1, pclath, cstack
  1237 ;; Tracked objects:
  1238 ;;		On entry : 17F/0
  1239 ;;		On exit  : 0/0
  1240 ;;		Unchanged: 0/0
  1241 ;; Data sizes:     COMMON   BANK0   BANK1   BANK3   BANK2
  1242 ;;      Params:         0       0       0       0       0
  1243 ;;      Locals:         0       1       0       0       0
  1244 ;;      Temps:          0       3       0       0       0
  1245 ;;      Totals:         0       4       0       0       0
  1246 ;;Total ram usage:        4 bytes
  1247 ;; Hardware stack levels required when called:    6
  1248 ;; This function calls:
  1249 ;;		_Setup_IOports
  1250 ;;		_atod_init
  1251 ;;		_lcd_init
  1252 ;;		_clr_display
  1253 ;;		_Serial_Init
  1254 ;;		_Timer1_Init
  1255 ;;		_enableInterrupt
  1256 ;;		_printf
  1257 ;;		_position
  1258 ;;		_CheckKeyPad
  1259 ;; This function is called by:
  1260 ;;		Startup code after reset
  1261 ;; This function uses a non-reentrant model
  1262 ;;
  1263                           psect	maintext
  1264                           	file	"D:\ELECTRONIC\2016\1. Automated Solar Panel Orientation Setter\Firmware\ver2\Auto
                                 mated Solar Panel Orientation Setter.c"
  1265                           	line	75
  1266                           	global	__size_of_main
  1267  013C                     	__size_of_main	equ	__end_of_main-_main
  1268                           	
  1269  0EC4                     _main:	
  1270                           	opt	stack 2
  1271                           ; Regs used in _main: [wreg-fsr0h+status,2+status,0+btemp+1+pclath+cstack]
  1272                           	line	79
  1273                           	
  1274  0EC4                     l5866:	
  1275                           ;Automated Solar Panel Orientation Setter.c: 77: char pressedKey;
  1276                           ;Automated Solar Panel Orientation Setter.c: 79: Setup_IOports();
  1277  0EC4  160A  118A  273D   	fcall	_Setup_IOports
              120A  158A         
  1278                           	line	82
  1279                           ;Automated Solar Panel Orientation Setter.c: 82: atod_init();
  1280  0EC9  160A  118A  2656   	fcall	_atod_init
              120A  158A         
  1281                           	line	86
  1282                           ;Automated Solar Panel Orientation Setter.c: 86: lcd_init();
  1283  0ECE  120A  158A  221E   	fcall	_lcd_init
              120A  158A         
  1284                           	line	87
  1285                           ;Automated Solar Panel Orientation Setter.c: 87: clr_display();
  1286  0ED3  160A  118A  26F9   	fcall	_clr_display
              120A  158A         
  1287                           	line	89
  1288                           ;Automated Solar Panel Orientation Setter.c: 89: Serial_Init();
  1289  0ED8  160A  118A  26D9   	fcall	_Serial_Init
              120A  158A         
  1290                           	line	90
  1291                           ;Automated Solar Panel Orientation Setter.c: 90: Timer1_Init();
  1292  0EDD  160A  118A  265F   	fcall	_Timer1_Init
              120A  158A         
  1293                           	line	91
  1294                           	
  1295  0EE2                     l5868:	
  1296                           ;Automated Solar Panel Orientation Setter.c: 91: enableInterrupt();
  1297  0EE2  120A  118A  2018   	fcall	_enableInterrupt
              120A  158A         
  1298                           	line	95
  1299                           	
  1300  0EE7                     l5870:	
  1301                           ;Automated Solar Panel Orientation Setter.c: 95: lcd_init();
  1302  0EE7  120A  158A  221E   	fcall	_lcd_init
              120A  158A         
  1303                           	line	96
  1304                           	
  1305  0EEC                     l5872:	
  1306                           ;Automated Solar Panel Orientation Setter.c: 96: clr_display();
  1307  0EEC  160A  118A  26F9   	fcall	_clr_display
              120A  158A         
  1308                           	line	98
  1309                           	
  1310  0EF1                     l5874:	
  1311                           ;Automated Solar Panel Orientation Setter.c: 98: printf("Body Temperature ");
  1312  0EF1  3055               	movlw	((STR_1-__stringbase))&0ffh
  1313  0EF2  120A  118A  2237   	fcall	_printf
              120A  158A         
  1314                           	line	99
  1315                           	
  1316  0EF7                     l5876:	
  1317                           ;Automated Solar Panel Orientation Setter.c: 99: position(2,1);
  1318  0EF7  1283               	bcf	status, 5	;RP0=0, select bank0
  1319  0EF8  1303               	bcf	status, 6	;RP1=0, select bank0
  1320  0EF9  01A2               	clrf	(?_position)
  1321  0EFA  1403               	bsf	status,0
  1322  0EFB  0DA2               	rlf	(?_position),f
  1323  0EFC  3002               	movlw	(02h)
  1324  0EFD  160A  118A  27C1   	fcall	_position
              120A  158A         
  1325                           	line	100
  1326                           	
  1327  0F02                     l5878:	
  1328                           ;Automated Solar Panel Orientation Setter.c: 100: printf(" and Heart Rate  ");
  1329  0F02  3043               	movlw	((STR_2-__stringbase))&0ffh
  1330  0F03  120A  118A  2237   	fcall	_printf
              120A  158A         
  1331                           	line	101
  1332                           	
  1333  0F08                     l5880:	
  1334                           ;Automated Solar Panel Orientation Setter.c: 101: _delay((unsigned long)((1000)*(4000000
                                 /4000.0)));
  1335                           	opt asmopt_off
  1336  0F08  3006               movlw  6
  1337  0F09  1283               	bcf	status, 5	;RP0=0, select bank0
  1338  0F0A  1303               	bcf	status, 6	;RP1=0, select bank0
  1339  0F0B  00C5               movwf	((??_main+0)+0+2),f
  1340  0F0C  3013               movlw	19
  1341  0F0D  00C4               movwf	((??_main+0)+0+1),f
  1342  0F0E  30B1               	movlw	177
  1343  0F0F  00C3               movwf	((??_main+0)+0),f
  1344  0F10                     u8907:
  1345  0F10  0BC3               	decfsz	((??_main+0)+0),f
  1346  0F11  2F10               	goto	u8907
  1347  0F12  0BC4               	decfsz	((??_main+0)+0+1),f
  1348  0F13  2F10               	goto	u8907
  1349  0F14  0BC5               	decfsz	((??_main+0)+0+2),f
  1350  0F15  2F10               	goto	u8907
  1351  0F16  2F17               	nop2
  1352                           opt asmopt_on
  1353                           
  1354                           	line	102
  1355                           ;Automated Solar Panel Orientation Setter.c: 102: position(1,1);
  1356  0F17  1283               	bcf	status, 5	;RP0=0, select bank0
  1357  0F18  1303               	bcf	status, 6	;RP1=0, select bank0
  1358  0F19  01A2               	clrf	(?_position)
  1359  0F1A  1403               	bsf	status,0
  1360  0F1B  0DA2               	rlf	(?_position),f
  1361  0F1C  3001               	movlw	(01h)
  1362  0F1D  160A  118A  27C1   	fcall	_position
              120A  158A         
  1363                           	line	103
  1364                           	
  1365  0F22                     l5882:	
  1366                           ;Automated Solar Panel Orientation Setter.c: 103: printf("    Monitoring   ");
  1367  0F22  3031               	movlw	((STR_3-__stringbase))&0ffh
  1368  0F23  120A  118A  2237   	fcall	_printf
              120A  158A         
  1369                           	line	104
  1370                           	
  1371  0F28                     l5884:	
  1372                           ;Automated Solar Panel Orientation Setter.c: 104: position(2,1);
  1373  0F28  1283               	bcf	status, 5	;RP0=0, select bank0
  1374  0F29  1303               	bcf	status, 6	;RP1=0, select bank0
  1375  0F2A  01A2               	clrf	(?_position)
  1376  0F2B  1403               	bsf	status,0
  1377  0F2C  0DA2               	rlf	(?_position),f
  1378  0F2D  3002               	movlw	(02h)
  1379  0F2E  160A  118A  27C1   	fcall	_position
              120A  158A         
  1380                           	line	105
  1381                           ;Automated Solar Panel Orientation Setter.c: 105: printf("      System     ");
  1382  0F33  301F               	movlw	((STR_4-__stringbase))&0ffh
  1383  0F34  120A  118A  2237   	fcall	_printf
              120A  158A         
  1384                           	line	106
  1385                           	
  1386  0F39                     l5886:	
  1387                           ;Automated Solar Panel Orientation Setter.c: 106: _delay((unsigned long)((1000)*(4000000
                                 /4000.0)));
  1388                           	opt asmopt_off
  1389  0F39  3006               movlw  6
  1390  0F3A  1283               	bcf	status, 5	;RP0=0, select bank0
  1391  0F3B  1303               	bcf	status, 6	;RP1=0, select bank0
  1392  0F3C  00C5               movwf	((??_main+0)+0+2),f
  1393  0F3D  3013               movlw	19
  1394  0F3E  00C4               movwf	((??_main+0)+0+1),f
  1395  0F3F  30B1               	movlw	177
  1396  0F40  00C3               movwf	((??_main+0)+0),f
  1397  0F41                     u8917:
  1398  0F41  0BC3               	decfsz	((??_main+0)+0),f
  1399  0F42  2F41               	goto	u8917
  1400  0F43  0BC4               	decfsz	((??_main+0)+0+1),f
  1401  0F44  2F41               	goto	u8917
  1402  0F45  0BC5               	decfsz	((??_main+0)+0+2),f
  1403  0F46  2F41               	goto	u8917
  1404  0F47  2F48               	nop2
  1405                           opt asmopt_on
  1406                           
  1407                           	line	107
  1408                           	
  1409  0F48                     l5888:	
  1410                           ;Automated Solar Panel Orientation Setter.c: 107: position(1,1);
  1411  0F48  1283               	bcf	status, 5	;RP0=0, select bank0
  1412  0F49  1303               	bcf	status, 6	;RP1=0, select bank0
  1413  0F4A  01A2               	clrf	(?_position)
  1414  0F4B  1403               	bsf	status,0
  1415  0F4C  0DA2               	rlf	(?_position),f
  1416  0F4D  3001               	movlw	(01h)
  1417  0F4E  160A  118A  27C1   	fcall	_position
              120A  158A         
  1418                           	line	108
  1419                           	
  1420  0F53                     l5890:	
  1421                           ;Automated Solar Panel Orientation Setter.c: 108: printf("       for      ");
  1422  0F53  3089               	movlw	((STR_5-__stringbase))&0ffh
  1423  0F54  120A  118A  2237   	fcall	_printf
              120A  158A         
  1424                           	line	109
  1425                           	
  1426  0F59                     l5892:	
  1427                           ;Automated Solar Panel Orientation Setter.c: 109: position(2,1);
  1428  0F59  1283               	bcf	status, 5	;RP0=0, select bank0
  1429  0F5A  1303               	bcf	status, 6	;RP1=0, select bank0
  1430  0F5B  01A2               	clrf	(?_position)
  1431  0F5C  1403               	bsf	status,0
  1432  0F5D  0DA2               	rlf	(?_position),f
  1433  0F5E  3002               	movlw	(02h)
  1434  0F5F  160A  118A  27C1   	fcall	_position
              120A  158A         
  1435                           	line	110
  1436                           	
  1437  0F64                     l5894:	
  1438                           ;Automated Solar Panel Orientation Setter.c: 110: printf("    Patients    ");
  1439  0F64  309A               	movlw	((STR_6-__stringbase))&0ffh
  1440  0F65  120A  118A  2237   	fcall	_printf
              120A  158A         
  1441                           	line	111
  1442                           	
  1443  0F6A                     l5896:	
  1444                           ;Automated Solar Panel Orientation Setter.c: 111: _delay((unsigned long)((1000)*(4000000
                                 /4000.0)));
  1445                           	opt asmopt_off
  1446  0F6A  3006               movlw  6
  1447  0F6B  1283               	bcf	status, 5	;RP0=0, select bank0
  1448  0F6C  1303               	bcf	status, 6	;RP1=0, select bank0
  1449  0F6D  00C5               movwf	((??_main+0)+0+2),f
  1450  0F6E  3013               movlw	19
  1451  0F6F  00C4               movwf	((??_main+0)+0+1),f
  1452  0F70  30B1               	movlw	177
  1453  0F71  00C3               movwf	((??_main+0)+0),f
  1454  0F72                     u8927:
  1455  0F72  0BC3               	decfsz	((??_main+0)+0),f
  1456  0F73  2F72               	goto	u8927
  1457  0F74  0BC4               	decfsz	((??_main+0)+0+1),f
  1458  0F75  2F72               	goto	u8927
  1459  0F76  0BC5               	decfsz	((??_main+0)+0+2),f
  1460  0F77  2F72               	goto	u8927
  1461  0F78  2F79               	nop2
  1462                           opt asmopt_on
  1463                           
  1464                           	line	112
  1465                           	
  1466  0F79                     l5898:	
  1467                           ;Automated Solar Panel Orientation Setter.c: 112: position(1,1);
  1468  0F79  1283               	bcf	status, 5	;RP0=0, select bank0
  1469  0F7A  1303               	bcf	status, 6	;RP1=0, select bank0
  1470  0F7B  01A2               	clrf	(?_position)
  1471  0F7C  1403               	bsf	status,0
  1472  0F7D  0DA2               	rlf	(?_position),f
  1473  0F7E  3001               	movlw	(01h)
  1474  0F7F  160A  118A  27C1   	fcall	_position
              120A  158A         
  1475                           	line	113
  1476                           	
  1477  0F84                     l5900:	
  1478                           ;Automated Solar Panel Orientation Setter.c: 113: printf("H:  62PPM Low   ",HeartRate);
  1479  0F84  1283               	bcf	status, 5	;RP0=0, select bank0
  1480  0F85  1303               	bcf	status, 6	;RP1=0, select bank0
  1481  0F86  084B               	movf	(_HeartRate+1),w
  1482  0F87  01AF               	clrf	(?_printf+1)
  1483  0F88  07AF               	addwf	(?_printf+1)
  1484  0F89  084A               	movf	(_HeartRate),w
  1485  0F8A  01AE               	clrf	(?_printf)
  1486  0F8B  07AE               	addwf	(?_printf)
  1487                           
  1488  0F8C  30BC               	movlw	((STR_7-__stringbase))&0ffh
  1489  0F8D  120A  118A  2237   	fcall	_printf
              120A  158A         
  1490                           	line	114
  1491                           ;Automated Solar Panel Orientation Setter.c: 114: position(2,1);
  1492  0F92  1283               	bcf	status, 5	;RP0=0, select bank0
  1493  0F93  1303               	bcf	status, 6	;RP1=0, select bank0
  1494  0F94  01A2               	clrf	(?_position)
  1495  0F95  1403               	bsf	status,0
  1496  0F96  0DA2               	rlf	(?_position),f
  1497  0F97  3002               	movlw	(02h)
  1498  0F98  160A  118A  27C1   	fcall	_position
              120A  158A         
  1499                           	line	115
  1500                           	
  1501  0F9D                     l5902:	
  1502                           ;Automated Solar Panel Orientation Setter.c: 115: printf("T:  84F   Low   ",analogReadVa
                                 l);
  1503  0F9D  1283               	bcf	status, 5	;RP0=0, select bank0
  1504  0F9E  1303               	bcf	status, 6	;RP1=0, select bank0
  1505  0F9F  084F               	movf	(_analogReadVal+1),w
  1506  0FA0  01AF               	clrf	(?_printf+1)
  1507  0FA1  07AF               	addwf	(?_printf+1)
  1508  0FA2  084E               	movf	(_analogReadVal),w
  1509  0FA3  01AE               	clrf	(?_printf)
  1510  0FA4  07AE               	addwf	(?_printf)
  1511                           
  1512  0FA5  30AB               	movlw	((STR_8-__stringbase))&0ffh
  1513  0FA6  120A  118A  2237   	fcall	_printf
              120A  158A         
  1514                           	line	119
  1515                           	
  1516  0FAB                     l5904:	
  1517                           ;Automated Solar Panel Orientation Setter.c: 119: clr_display();
  1518  0FAB  160A  118A  26F9   	fcall	_clr_display
              120A  158A         
  1519                           	line	120
  1520                           	
  1521  0FB0                     l5906:	
  1522                           ;Automated Solar Panel Orientation Setter.c: 120: state = 1;
  1523  0FB0  1283               	bcf	status, 5	;RP0=0, select bank0
  1524  0FB1  1303               	bcf	status, 6	;RP1=0, select bank0
  1525  0FB2  01E3               	clrf	(_state)
  1526  0FB3  1403               	bsf	status,0
  1527  0FB4  0DE3               	rlf	(_state),f
  1528  0FB5  2FE7               	goto	l5922
  1529                           	line	121
  1530                           ;Automated Solar Panel Orientation Setter.c: 121: while(1){
  1531                           	
  1532  0FB6                     l889:	
  1533                           	line	122
  1534                           ;Automated Solar Panel Orientation Setter.c: 122: switch (state){
  1535  0FB6  2FE7               	goto	l5922
  1536                           	line	127
  1537                           ;Automated Solar Panel Orientation Setter.c: 127: case 1:
  1538                           	
  1539  0FB7                     l891:	
  1540                           	line	132
  1541                           	
  1542  0FB7                     l5908:	
  1543                           ;Automated Solar Panel Orientation Setter.c: 132: state = 10;
  1544  0FB7  300A               	movlw	(0Ah)
  1545  0FB8  00C3               	movwf	(??_main+0)+0
  1546  0FB9  0843               	movf	(??_main+0)+0,w
  1547  0FBA  00E3               	movwf	(_state)
  1548                           	line	133
  1549                           ;Automated Solar Panel Orientation Setter.c: 133: break;
  1550  0FBB  2FE7               	goto	l5922
  1551                           	line	134
  1552                           ;Automated Solar Panel Orientation Setter.c: 134: case 10 :
  1553                           	
  1554  0FBC                     l893:	
  1555                           	line	135
  1556                           ;Automated Solar Panel Orientation Setter.c: 135: RC1 = 1;
  1557  0FBC  1487               	bsf	(57/8),(57)&7
  1558                           	line	138
  1559                           	
  1560  0FBD                     l5910:	
  1561                           ;Automated Solar Panel Orientation Setter.c: 138: pressedKey = CheckKeyPad();
  1562  0FBD  120A  118A  207B   	fcall	_CheckKeyPad
              120A  158A         
  1563  0FC2  1283               	bcf	status, 5	;RP0=0, select bank0
  1564  0FC3  1303               	bcf	status, 6	;RP1=0, select bank0
  1565  0FC4  00C3               	movwf	(??_main+0)+0
  1566  0FC5  0843               	movf	(??_main+0)+0,w
  1567  0FC6  00C6               	movwf	(main@pressedKey)
  1568                           	line	139
  1569                           	
  1570  0FC7                     l5912:	
  1571                           ;Automated Solar Panel Orientation Setter.c: 139: if( pressedKey!='$'){
  1572  0FC7  0846               	movf	(main@pressedKey),w
  1573  0FC8  3A24               	xorlw	024h
  1574  0FC9  1903               	skipnz
  1575  0FCA  2FCC               	goto	u8591
  1576  0FCB  2FCD               	goto	u8590
  1577  0FCC                     u8591:
  1578  0FCC  2FDE               	goto	l5918
  1579  0FCD                     u8590:
  1580  0FCD  2FCF               	goto	l895
  1581                           	line	140
  1582                           	
  1583  0FCE                     l5914:	
  1584                           ;Automated Solar Panel Orientation Setter.c: 140: while(!TXIF);
  1585  0FCE  2FCF               	goto	l895
  1586                           	
  1587  0FCF                     l896:	
  1588                           	
  1589  0FCF                     l895:	
  1590  0FCF  1E0C               	btfss	(100/8),(100)&7
  1591  0FD0  2FD2               	goto	u8601
  1592  0FD1  2FD3               	goto	u8600
  1593  0FD2                     u8601:
  1594  0FD2  2FCF               	goto	l895
  1595  0FD3                     u8600:
  1596  0FD3  2FD4               	goto	l5916
  1597                           	
  1598  0FD4                     l897:	
  1599                           	line	141
  1600                           	
  1601  0FD4                     l5916:	
  1602                           ;Automated Solar Panel Orientation Setter.c: 141: TXREG = pressedKey;
  1603  0FD4  0846               	movf	(main@pressedKey),w
  1604  0FD5  0099               	movwf	(25)	;volatile
  1605                           	line	142
  1606                           ;Automated Solar Panel Orientation Setter.c: 142: _delay((unsigned long)((1)*(4000000/40
                                 00.0)));
  1607                           	opt asmopt_off
  1608  0FD6  30F9               movlw	249
  1609  0FD7  00C3               movwf	(??_main+0)+0,f
  1610  0FD8                     u8937:
  1611  0FD8  0064               	clrwdt
  1612  0FD9  0BC3               decfsz	(??_main+0)+0,f
  1613  0FDA  2FD8               	goto	u8937
  1614  0FDB  2FDC               	nop2	;nop
  1615  0FDC  0064               	clrwdt
  1616                           opt asmopt_on
  1617                           
  1618  0FDD  2FDE               	goto	l5918
  1619                           	line	143
  1620                           	
  1621  0FDE                     l894:	
  1622                           	line	144
  1623                           	
  1624  0FDE                     l5918:	
  1625                           ;Automated Solar Panel Orientation Setter.c: 143: }
  1626                           ;Automated Solar Panel Orientation Setter.c: 144: RC1 = 0;
  1627  0FDE  1283               	bcf	status, 5	;RP0=0, select bank0
  1628  0FDF  1303               	bcf	status, 6	;RP1=0, select bank0
  1629  0FE0  1087               	bcf	(57/8),(57)&7
  1630                           	line	146
  1631                           ;Automated Solar Panel Orientation Setter.c: 146: break;
  1632  0FE1  2FE7               	goto	l5922
  1633                           	line	149
  1634                           ;Automated Solar Panel Orientation Setter.c: 149: case 2 :
  1635                           	
  1636  0FE2                     l898:	
  1637                           	line	151
  1638                           ;Automated Solar Panel Orientation Setter.c: 151: break;
  1639  0FE2  2FE7               	goto	l5922
  1640                           	line	152
  1641                           ;Automated Solar Panel Orientation Setter.c: 152: case 20 :
  1642                           	
  1643  0FE3                     l899:	
  1644                           	line	154
  1645                           ;Automated Solar Panel Orientation Setter.c: 154: break;
  1646  0FE3  2FE7               	goto	l5922
  1647                           	line	155
  1648                           ;Automated Solar Panel Orientation Setter.c: 155: case 3 :
  1649                           	
  1650  0FE4                     l900:	
  1651  0FE4  2FE7               	goto	l5922
  1652                           	line	157
  1653                           	
  1654  0FE5                     l901:	
  1655                           	line	159
  1656                           ;Automated Solar Panel Orientation Setter.c: 157: case 30 :
  1657                           ;Automated Solar Panel Orientation Setter.c: 159: break;
  1658  0FE5  2FE7               	goto	l5922
  1659                           	line	163
  1660                           	
  1661  0FE6                     l5920:	
  1662                           ;Automated Solar Panel Orientation Setter.c: 163: }
  1663  0FE6  2FE7               	goto	l5922
  1664                           	line	122
  1665                           	
  1666  0FE7                     l890:	
  1667                           	
  1668  0FE7                     l5922:	
  1669  0FE7  0863               	movf	(_state),w
  1670                           	; Switch size 1, requested type "space"
  1671                           ; Number of cases is 6, Range of values is 1 to 30
  1672                           ; switch strategies available:
  1673                           ; Name         Instructions Cycles
  1674                           ; simple_byte           19    10 (average)
  1675                           ; direct_byte          101    11 (fixed)
  1676                           ; jumptable            263     9 (fixed)
  1677                           ;	Chosen strategy is simple_byte
  1678                           
  1679                           	opt asmopt_off
  1680  0FE8  3A01               	xorlw	1^0	; case 1
  1681  0FE9  1903               	skipnz
  1682  0FEA  2FB7               	goto	l5908
  1683  0FEB  3A03               	xorlw	2^1	; case 2
  1684  0FEC  1903               	skipnz
  1685  0FED  2FE7               	goto	l5922
  1686  0FEE  3A01               	xorlw	3^2	; case 3
  1687  0FEF  1903               	skipnz
  1688  0FF0  2FE7               	goto	l5922
  1689  0FF1  3A09               	xorlw	10^3	; case 10
  1690  0FF2  1903               	skipnz
  1691  0FF3  2FBC               	goto	l893
  1692  0FF4  3A1E               	xorlw	20^10	; case 20
  1693  0FF5  1903               	skipnz
  1694  0FF6  2FE7               	goto	l5922
  1695  0FF7  3A0A               	xorlw	30^20	; case 30
  1696  0FF8  1903               	skipnz
  1697  0FF9  2FE7               	goto	l5922
  1698  0FFA  2FE7               	goto	l5922
  1699                           	opt asmopt_on
  1700                           
  1701                           	line	163
  1702                           	
  1703  0FFB                     l892:	
  1704  0FFB  2FE7               	goto	l5922
  1705                           	line	164
  1706                           	
  1707  0FFC                     l902:	
  1708                           	line	121
  1709  0FFC  2FE7               	goto	l5922
  1710                           	
  1711  0FFD                     l903:	
  1712                           	line	165
  1713                           	
  1714  0FFD                     l904:	
  1715                           	global	start
  1716  0FFD  120A  118A  2812   	ljmp	start
  1717                           	opt stack 0
  1718                           GLOBAL	__end_of_main
  1719  1000                     	__end_of_main:
  1720 ;; =============== function _main ends ============
  1721                           
  1722                           	signat	_main,88
  1723                           	global	_printf
  1724                           psect	text902,local,class=CODE,delta=2
  1725                           global __ptext902
  1726  0237                     __ptext902:
  1727                           
  1728 ;; *************** function _printf *****************
  1729 ;; Defined at:
  1730 ;;		line 461 in file "C:\Program Files (x86)\HI-TECH Software\PICC\9.83\lib\doprnt.c"
  1731 ;; Parameters:    Size  Location     Type
  1732 ;;  f               1    wreg     PTR const unsigned char 
  1733 ;;		 -> STR_8(17), STR_7(17), STR_6(17), STR_5(17), 
  1734 ;;		 -> STR_4(18), STR_3(18), STR_2(18), STR_1(18), 
  1735 ;; Auto vars:     Size  Location     Type
  1736 ;;  f               1   25[BANK0 ] PTR const unsigned char 
  1737 ;;		 -> STR_8(17), STR_7(17), STR_6(17), STR_5(17), 
  1738 ;;		 -> STR_4(18), STR_3(18), STR_2(18), STR_1(18), 
  1739 ;;  _val            3   29[BANK0 ] struct .
  1740 ;;  flag            2   33[BANK0 ] unsigned short 
  1741 ;;  width           2   27[BANK0 ] int 
  1742 ;;  c               1   32[BANK0 ] char 
  1743 ;;  prec            1   26[BANK0 ] char 
  1744 ;;  ap              1   24[BANK0 ] PTR void [1]
  1745 ;;		 -> ?_printf(2), 
  1746 ;; Return value:  Size  Location     Type
  1747 ;;                  2   14[BANK0 ] int 
  1748 ;; Registers used:
  1749 ;;		wreg, fsr0l, fsr0h, status,2, status,0, btemp+1, pclath, cstack
  1750 ;; Tracked objects:
  1751 ;;		On entry : 0/0
  1752 ;;		On exit  : 0/0
  1753 ;;		Unchanged: 0/0
  1754 ;; Data sizes:     COMMON   BANK0   BANK1   BANK3   BANK2
  1755 ;;      Params:         0       2       0       0       0
  1756 ;;      Locals:         0      16       0       0       0
  1757 ;;      Temps:          0       3       0       0       0
  1758 ;;      Totals:         0      21       0       0       0
  1759 ;;Total ram usage:       21 bytes
  1760 ;; Hardware stack levels used:    1
  1761 ;; Hardware stack levels required when called:    5
  1762 ;; This function calls:
  1763 ;;		_putch
  1764 ;;		_isdigit
  1765 ;;		___wmul
  1766 ;;		___bmul
  1767 ;;		___lwdiv
  1768 ;;		___lwmod
  1769 ;; This function is called by:
  1770 ;;		_main
  1771 ;; This function uses a non-reentrant model
  1772 ;;
  1773                           psect	text902
  1774                           	file	"C:\Program Files (x86)\HI-TECH Software\PICC\9.83\sources\doprnt.c"
  1775                           	line	461
  1776                           	global	__size_of_printf
  1777  05C9                     	__size_of_printf	equ	__end_of_printf-_printf
  1778                           	
  1779  0237                     _printf:	
  1780                           	opt	stack 2
  1781                           ; Regs used in _printf: [wreg-fsr0h+status,2+status,0+btemp+1+pclath+cstack]
  1782                           ;printf@f stored from wreg
  1783                           	line	537
  1784  0237  1283               	bcf	status, 5	;RP0=0, select bank0
  1785  0238  1303               	bcf	status, 6	;RP1=0, select bank0
  1786  0239  00B9               	movwf	(printf@f)
  1787                           	
  1788  023A                     l5570:	
  1789  023A  302E               	movlw	(?_printf)&0ffh
  1790  023B  00B0               	movwf	(??_printf+0)+0
  1791  023C  0830               	movf	(??_printf+0)+0,w
  1792  023D  00B8               	movwf	(printf@ap)
  1793                           	line	540
  1794  023E  2FE9               	goto	l5864
  1795                           	
  1796  023F                     l1091:	
  1797                           	line	542
  1798                           	
  1799  023F                     l5572:	
  1800  023F  0840               	movf	(printf@c),w
  1801  0240  3A25               	xorlw	025h
  1802  0241  1903               	skipnz
  1803  0242  2A44               	goto	u7981
  1804  0243  2A45               	goto	u7980
  1805  0244                     u7981:
  1806  0244  2A4C               	goto	l5576
  1807  0245                     u7980:
  1808                           	line	545
  1809                           	
  1810  0245                     l5574:	
  1811  0245  0840               	movf	(printf@c),w
  1812  0246  160A  118A  269F   	fcall	_putch
              120A  118A         
  1813                           	line	546
  1814  024B  2FE9               	goto	l5864
  1815                           	line	547
  1816                           	
  1817  024C                     l1092:	
  1818                           	line	550
  1819                           	
  1820  024C                     l5576:	
  1821  024C  1283               	bcf	status, 5	;RP0=0, select bank0
  1822  024D  1303               	bcf	status, 6	;RP1=0, select bank0
  1823  024E  01BB               	clrf	(printf@width)
  1824  024F  01BC               	clrf	(printf@width+1)
  1825                           	line	552
  1826  0250  01C1               	clrf	(printf@flag)
  1827  0251  01C2               	clrf	(printf@flag+1)
  1828  0252  2A6D               	goto	l5588
  1829                           	line	554
  1830                           	
  1831  0253                     l1093:	
  1832                           	line	555
  1833  0253  2A6D               	goto	l5588
  1834                           	line	557
  1835                           	
  1836  0254                     l1095:	
  1837                           	line	558
  1838  0254  15C1               	bsf	(printf@flag)+(3/8),(3)&7
  1839                           	line	559
  1840                           	
  1841  0255                     l5578:	
  1842  0255  3001               	movlw	(01h)
  1843  0256  00B0               	movwf	(??_printf+0)+0
  1844  0257  0830               	movf	(??_printf+0)+0,w
  1845  0258  07B9               	addwf	(printf@f),f
  1846                           	line	560
  1847  0259  2A6D               	goto	l5588
  1848                           	line	564
  1849                           	
  1850  025A                     l1097:	
  1851                           	line	565
  1852  025A  1441               	bsf	(printf@flag)+(0/8),(0)&7
  1853                           	line	566
  1854                           	
  1855  025B                     l5580:	
  1856  025B  3001               	movlw	(01h)
  1857  025C  00B0               	movwf	(??_printf+0)+0
  1858  025D  0830               	movf	(??_printf+0)+0,w
  1859  025E  07B9               	addwf	(printf@f),f
  1860                           	line	567
  1861  025F  2A6D               	goto	l5588
  1862                           	line	577
  1863                           	
  1864  0260                     l1098:	
  1865                           	line	578
  1866  0260  15C2               	bsf	(printf@flag)+(11/8),(11)&7
  1867                           	line	579
  1868                           	
  1869  0261                     l5582:	
  1870  0261  3001               	movlw	(01h)
  1871  0262  00B0               	movwf	(??_printf+0)+0
  1872  0263  0830               	movf	(??_printf+0)+0,w
  1873  0264  07B9               	addwf	(printf@f),f
  1874                           	line	580
  1875  0265  2A6D               	goto	l5588
  1876                           	line	583
  1877                           	
  1878  0266                     l1099:	
  1879                           	line	584
  1880  0266  1541               	bsf	(printf@flag)+(2/8),(2)&7
  1881                           	line	585
  1882                           	
  1883  0267                     l5584:	
  1884  0267  3001               	movlw	(01h)
  1885  0268  00B0               	movwf	(??_printf+0)+0
  1886  0269  0830               	movf	(??_printf+0)+0,w
  1887  026A  07B9               	addwf	(printf@f),f
  1888                           	line	586
  1889  026B  2A6D               	goto	l5588
  1890                           	line	588
  1891                           	
  1892  026C                     l5586:	
  1893  026C  2A83               	goto	l1101
  1894                           	line	555
  1895                           	
  1896  026D                     l1094:	
  1897                           	
  1898  026D                     l5588:	
  1899  026D  0839               	movf	(printf@f),w
  1900  026E  0084               	movwf	fsr0
  1901  026F  120A  158A  2000   	fcall	stringdir
              120A  118A         
  1902                           	; Switch size 1, requested type "space"
  1903                           ; Number of cases is 4, Range of values is 32 to 48
  1904                           ; switch strategies available:
  1905                           ; Name         Instructions Cycles
  1906                           ; simple_byte           13     7 (average)
  1907                           ; direct_byte           62    11 (fixed)
  1908                           ; jumptable            263     9 (fixed)
  1909                           ;	Chosen strategy is simple_byte
  1910                           
  1911                           	opt asmopt_off
  1912  0274  3A20               	xorlw	32^0	; case 32
  1913  0275  1903               	skipnz
  1914  0276  2A5A               	goto	l1097
  1915  0277  3A03               	xorlw	35^32	; case 35
  1916  0278  1903               	skipnz
  1917  0279  2A60               	goto	l1098
  1918  027A  3A0E               	xorlw	45^35	; case 45
  1919  027B  1903               	skipnz
  1920  027C  2A54               	goto	l1095
  1921  027D  3A1D               	xorlw	48^45	; case 48
  1922  027E  1903               	skipnz
  1923  027F  2A66               	goto	l1099
  1924  0280  2A83               	goto	l1101
  1925                           	opt asmopt_on
  1926                           
  1927                           	line	588
  1928                           	
  1929  0281                     l1100:	
  1930                           	line	589
  1931  0281  2A83               	goto	l1101
  1932                           	line	590
  1933                           	
  1934  0282                     l1096:	
  1935  0282  2A6D               	goto	l5588
  1936                           	
  1937  0283                     l1101:	
  1938                           	line	597
  1939  0283  1DC1               	btfss	(printf@flag),(3)&7
  1940  0284  2A86               	goto	u7991
  1941  0285  2A87               	goto	u7990
  1942  0286                     u7991:
  1943  0286  2A8C               	goto	l5592
  1944  0287                     u7990:
  1945                           	line	598
  1946                           	
  1947  0287                     l5590:	
  1948  0287  30FB               	movlw	low(0FFFBh)
  1949  0288  05C1               	andwf	(printf@flag),f
  1950  0289  30FF               	movlw	high(0FFFBh)
  1951  028A  05C2               	andwf	(printf@flag+1),f
  1952  028B  2A8C               	goto	l5592
  1953                           	
  1954  028C                     l1102:	
  1955                           	line	601
  1956                           	
  1957  028C                     l5592:	
  1958  028C  0839               	movf	(printf@f),w
  1959  028D  0084               	movwf	fsr0
  1960  028E  120A  158A  2000   	fcall	stringdir
              120A  118A         
  1961  0293  160A  118A  266E   	fcall	_isdigit
              120A  118A         
  1962  0298  1C03               	btfss	status,0
  1963  0299  2A9B               	goto	u8001
  1964  029A  2A9C               	goto	u8000
  1965  029B                     u8001:
  1966  029B  2AE0               	goto	l5602
  1967  029C                     u8000:
  1968                           	line	602
  1969                           	
  1970  029C                     l5594:	
  1971  029C  1283               	bcf	status, 5	;RP0=0, select bank0
  1972  029D  1303               	bcf	status, 6	;RP1=0, select bank0
  1973  029E  01BB               	clrf	(printf@width)
  1974  029F  01BC               	clrf	(printf@width+1)
  1975  02A0  2AA1               	goto	l5596
  1976                           	line	603
  1977                           	
  1978  02A1                     l1104:	
  1979                           	line	604
  1980                           	
  1981  02A1                     l5596:	
  1982  02A1  1283               	bcf	status, 5	;RP0=0, select bank0
  1983  02A2  1303               	bcf	status, 6	;RP1=0, select bank0
  1984  02A3  083C               	movf	(printf@width+1),w
  1985  02A4  01A1               	clrf	(?___wmul+1)
  1986  02A5  07A1               	addwf	(?___wmul+1)
  1987  02A6  083B               	movf	(printf@width),w
  1988  02A7  01A0               	clrf	(?___wmul)
  1989  02A8  07A0               	addwf	(?___wmul)
  1990                           
  1991  02A9  300A               	movlw	low(0Ah)
  1992  02AA  00A2               	movwf	0+(?___wmul)+02h
  1993  02AB  3000               	movlw	high(0Ah)
  1994  02AC  00A3               	movwf	(0+(?___wmul)+02h)+1
  1995  02AD  160A  118A  2761   	fcall	___wmul
              120A  118A         
  1996  02B2  1283               	bcf	status, 5	;RP0=0, select bank0
  1997  02B3  1303               	bcf	status, 6	;RP1=0, select bank0
  1998  02B4  0839               	movf	(printf@f),w
  1999  02B5  0084               	movwf	fsr0
  2000  02B6  120A  158A  2000   	fcall	stringdir
              120A  118A         
  2001  02BB  0720               	addwf	(0+(?___wmul)),w
  2002  02BC  00B0               	movwf	(??_printf+0)+0
  2003  02BD  3000               	movlw	0
  2004  02BE  1803               	skipnc
  2005  02BF  3001               	movlw	1
  2006  02C0  0721               	addwf	(1+(?___wmul)),w
  2007  02C1  00B1               	movwf	1+(??_printf+0)+0
  2008  02C2  0830               	movf	0+(??_printf+0)+0,w
  2009  02C3  3ED0               	addlw	low(0FFD0h)
  2010  02C4  00BB               	movwf	(printf@width)
  2011  02C5  0831               	movf	1+(??_printf+0)+0,w
  2012  02C6  1803               	skipnc
  2013  02C7  3E01               	addlw	1
  2014  02C8  3EFF               	addlw	high(0FFD0h)
  2015  02C9  00BC               	movwf	1+(printf@width)
  2016                           	
  2017  02CA                     l5598:	
  2018  02CA  3001               	movlw	(01h)
  2019  02CB  00B0               	movwf	(??_printf+0)+0
  2020  02CC  0830               	movf	(??_printf+0)+0,w
  2021  02CD  07B9               	addwf	(printf@f),f
  2022                           	line	605
  2023                           	
  2024  02CE                     l5600:	
  2025  02CE  0839               	movf	(printf@f),w
  2026  02CF  0084               	movwf	fsr0
  2027  02D0  120A  158A  2000   	fcall	stringdir
              120A  118A         
  2028  02D5  160A  118A  266E   	fcall	_isdigit
              120A  118A         
  2029  02DA  1803               	btfsc	status,0
  2030  02DB  2ADD               	goto	u8011
  2031  02DC  2ADE               	goto	u8010
  2032  02DD                     u8011:
  2033  02DD  2AA1               	goto	l5596
  2034  02DE                     u8010:
  2035  02DE  2B00               	goto	l5610
  2036                           	
  2037  02DF                     l1105:	
  2038                           	line	607
  2039  02DF  2B00               	goto	l5610
  2040                           	
  2041  02E0                     l1103:	
  2042                           	
  2043  02E0                     l5602:	
  2044  02E0  1283               	bcf	status, 5	;RP0=0, select bank0
  2045  02E1  1303               	bcf	status, 6	;RP1=0, select bank0
  2046  02E2  0839               	movf	(printf@f),w
  2047  02E3  0084               	movwf	fsr0
  2048  02E4  120A  158A  2000   	fcall	stringdir
              120A  118A         
  2049  02E9  3A2A               	xorlw	02Ah
  2050  02EA  1D03               	skipz
  2051  02EB  2AED               	goto	u8021
  2052  02EC  2AEE               	goto	u8020
  2053  02ED                     u8021:
  2054  02ED  2B00               	goto	l5610
  2055  02EE                     u8020:
  2056                           	line	608
  2057                           	
  2058  02EE                     l5604:	
  2059  02EE  0838               	movf	(printf@ap),w
  2060  02EF  0084               	movwf	fsr0
  2061  02F0  1383               	bcf	status, 7	;select IRP bank0
  2062  02F1  0800               	movf	indf,w
  2063  02F2  00BB               	movwf	(printf@width)
  2064  02F3  0A84               	incf	fsr0,f
  2065  02F4  0800               	movf	indf,w
  2066  02F5  00BC               	movwf	(printf@width+1)
  2067                           	
  2068  02F6                     l5606:	
  2069  02F6  3002               	movlw	(02h)
  2070  02F7  00B0               	movwf	(??_printf+0)+0
  2071  02F8  0830               	movf	(??_printf+0)+0,w
  2072  02F9  07B8               	addwf	(printf@ap),f
  2073                           	line	609
  2074                           	
  2075  02FA                     l5608:	
  2076  02FA  3001               	movlw	(01h)
  2077  02FB  00B0               	movwf	(??_printf+0)+0
  2078  02FC  0830               	movf	(??_printf+0)+0,w
  2079  02FD  07B9               	addwf	(printf@f),f
  2080  02FE  2B00               	goto	l5610
  2081                           	line	611
  2082                           	
  2083  02FF                     l1107:	
  2084  02FF  2B00               	goto	l5610
  2085                           	line	614
  2086                           	
  2087  0300                     l1106:	
  2088                           	
  2089  0300                     l5610:	
  2090  0300  1283               	bcf	status, 5	;RP0=0, select bank0
  2091  0301  1303               	bcf	status, 6	;RP1=0, select bank0
  2092  0302  0839               	movf	(printf@f),w
  2093  0303  0084               	movwf	fsr0
  2094  0304  120A  158A  2000   	fcall	stringdir
              120A  118A         
  2095  0309  3A2E               	xorlw	02Eh
  2096  030A  1D03               	skipz
  2097  030B  2B0D               	goto	u8031
  2098  030C  2B0E               	goto	u8030
  2099  030D                     u8031:
  2100  030D  2B64               	goto	l1108
  2101  030E                     u8030:
  2102                           	line	615
  2103                           	
  2104  030E                     l5612:	
  2105  030E  1742               	bsf	(printf@flag)+(14/8),(14)&7
  2106                           	line	616
  2107                           	
  2108  030F                     l5614:	
  2109  030F  3001               	movlw	(01h)
  2110  0310  00B0               	movwf	(??_printf+0)+0
  2111  0311  0830               	movf	(??_printf+0)+0,w
  2112  0312  07B9               	addwf	(printf@f),f
  2113                           	line	618
  2114                           	
  2115  0313                     l5616:	
  2116  0313  0839               	movf	(printf@f),w
  2117  0314  0084               	movwf	fsr0
  2118  0315  120A  158A  2000   	fcall	stringdir
              120A  118A         
  2119  031A  3A2A               	xorlw	02Ah
  2120  031B  1D03               	skipz
  2121  031C  2B1E               	goto	u8041
  2122  031D  2B1F               	goto	u8040
  2123  031E                     u8041:
  2124  031E  2B2F               	goto	l1109
  2125  031F                     u8040:
  2126                           	line	619
  2127                           	
  2128  031F                     l5618:	
  2129  031F  0838               	movf	(printf@ap),w
  2130  0320  0084               	movwf	fsr0
  2131  0321  1383               	bcf	status, 7	;select IRP bank0
  2132  0322  0800               	movf	indf,w
  2133  0323  00B0               	movwf	(??_printf+0)+0
  2134  0324  0830               	movf	(??_printf+0)+0,w
  2135  0325  00BA               	movwf	(printf@prec)
  2136                           	
  2137  0326                     l5620:	
  2138  0326  3002               	movlw	(02h)
  2139  0327  00B0               	movwf	(??_printf+0)+0
  2140  0328  0830               	movf	(??_printf+0)+0,w
  2141  0329  07B8               	addwf	(printf@ap),f
  2142                           	line	620
  2143                           	
  2144  032A                     l5622:	
  2145  032A  3001               	movlw	(01h)
  2146  032B  00B0               	movwf	(??_printf+0)+0
  2147  032C  0830               	movf	(??_printf+0)+0,w
  2148  032D  07B9               	addwf	(printf@f),f
  2149                           	line	621
  2150  032E  2C1B               	goto	l5674
  2151                           	
  2152  032F                     l1109:	
  2153                           	line	624
  2154  032F  01BA               	clrf	(printf@prec)
  2155                           	line	625
  2156  0330  2B51               	goto	l5628
  2157                           	
  2158  0331                     l1112:	
  2159                           	line	626
  2160                           	
  2161  0331                     l5624:	
  2162  0331  300A               	movlw	(0Ah)
  2163  0332  1283               	bcf	status, 5	;RP0=0, select bank0
  2164  0333  1303               	bcf	status, 6	;RP1=0, select bank0
  2165  0334  00B0               	movwf	(??_printf+0)+0
  2166  0335  0830               	movf	(??_printf+0)+0,w
  2167  0336  00A0               	movwf	(?___bmul)
  2168  0337  083A               	movf	(printf@prec),w
  2169  0338  160A  118A  2685   	fcall	___bmul
              120A  118A         
  2170  033D  1283               	bcf	status, 5	;RP0=0, select bank0
  2171  033E  1303               	bcf	status, 6	;RP1=0, select bank0
  2172  033F  00B1               	movwf	(??_printf+1)+0
  2173  0340  0839               	movf	(printf@f),w
  2174  0341  0084               	movwf	fsr0
  2175  0342  120A  158A  2000   	fcall	stringdir
              120A  118A         
  2176  0347  0731               	addwf	0+(??_printf+1)+0,w
  2177  0348  3ED0               	addlw	-48
  2178  0349  00B2               	movwf	(??_printf+2)+0
  2179  034A  0832               	movf	(??_printf+2)+0,w
  2180  034B  00BA               	movwf	(printf@prec)
  2181                           	
  2182  034C                     l5626:	
  2183  034C  3001               	movlw	(01h)
  2184  034D  00B0               	movwf	(??_printf+0)+0
  2185  034E  0830               	movf	(??_printf+0)+0,w
  2186  034F  07B9               	addwf	(printf@f),f
  2187  0350  2B51               	goto	l5628
  2188                           	
  2189  0351                     l1111:	
  2190                           	line	625
  2191                           	
  2192  0351                     l5628:	
  2193  0351  0839               	movf	(printf@f),w
  2194  0352  0084               	movwf	fsr0
  2195  0353  120A  158A  2000   	fcall	stringdir
              120A  118A         
  2196  0358  160A  118A  266E   	fcall	_isdigit
              120A  118A         
  2197  035D  1803               	btfsc	status,0
  2198  035E  2B60               	goto	u8051
  2199  035F  2B61               	goto	u8050
  2200  0360                     u8051:
  2201  0360  2B31               	goto	l5624
  2202  0361                     u8050:
  2203  0361  2C1B               	goto	l5674
  2204                           	
  2205  0362                     l1113:	
  2206  0362  2C1B               	goto	l5674
  2207                           	line	627
  2208                           	
  2209  0363                     l1110:	
  2210                           	line	628
  2211  0363  2C1B               	goto	l5674
  2212                           	
  2213  0364                     l1108:	
  2214                           	line	629
  2215  0364  01BA               	clrf	(printf@prec)
  2216  0365  2C1B               	goto	l5674
  2217                           	line	633
  2218                           	
  2219  0366                     l1114:	
  2220                           	line	638
  2221  0366  2C1B               	goto	l5674
  2222                           	line	640
  2223                           	
  2224  0367                     l1116:	
  2225                           	line	641
  2226  0367  2FFF               	goto	l1220
  2227                           	line	692
  2228                           	
  2229  0368                     l1118:	
  2230                           	line	694
  2231  0368  1741               	bsf	(printf@flag)+(6/8),(6)&7
  2232                           	line	696
  2233  0369  2C41               	goto	l5676
  2234                           	line	700
  2235                           	
  2236  036A                     l1120:	
  2237  036A  2C41               	goto	l5676
  2238                           	line	701
  2239                           	
  2240  036B                     l1121:	
  2241                           	line	702
  2242  036B  2C41               	goto	l5676
  2243                           	line	715
  2244                           	
  2245  036C                     l1122:	
  2246                           	line	717
  2247  036C  16C1               	bsf	(printf@flag)+(5/8),(5)&7
  2248                           	line	721
  2249                           	
  2250  036D                     l1123:	
  2251                           	line	724
  2252  036D  17C1               	bsf	(printf@flag)+(7/8),(7)&7
  2253                           	line	726
  2254  036E  2C41               	goto	l5676
  2255                           	line	753
  2256                           	
  2257  036F                     l1124:	
  2258                           	line	756
  2259                           	
  2260  036F                     l5630:	
  2261  036F  083A               	movf	(printf@prec),w
  2262  0370  1D03               	skipz
  2263  0371  2B73               	goto	u8060
  2264  0372  2B88               	goto	l5636
  2265  0373                     u8060:
  2266                           	
  2267  0373                     l5632:	
  2268  0373  083A               	movf	(printf@prec),w
  2269  0374  00B0               	movwf	(??_printf+0)+0
  2270  0375  01B1               	clrf	(??_printf+0)+0+1
  2271  0376  1BB0               	btfsc	(??_printf+0)+0,7
  2272  0377  03B1               	decf	(??_printf+0)+0+1,f
  2273  0378  083F               	movf	1+(printf@_val)+01h,w
  2274  0379  0231               	subwf	1+(??_printf+0)+0,w
  2275  037A  1D03               	skipz
  2276  037B  2B7E               	goto	u8075
  2277  037C  083E               	movf	0+(printf@_val)+01h,w
  2278  037D  0230               	subwf	0+(??_printf+0)+0,w
  2279  037E                     u8075:
  2280  037E  1803               	skipnc
  2281  037F  2B81               	goto	u8071
  2282  0380  2B82               	goto	u8070
  2283  0381                     u8071:
  2284  0381  2B88               	goto	l5636
  2285  0382                     u8070:
  2286                           	line	757
  2287                           	
  2288  0382                     l5634:	
  2289  0382  083A               	movf	(printf@prec),w
  2290  0383  00BE               	movwf	0+(printf@_val)+01h
  2291  0384  01BF               	clrf	1+(printf@_val)+01h
  2292  0385  1BBE               	btfsc	0+(printf@_val)+01h,7
  2293  0386  03BF               	decf	1+(printf@_val)+01h,f
  2294  0387  2B88               	goto	l5636
  2295                           	
  2296  0388                     l1125:	
  2297                           	line	760
  2298                           	
  2299  0388                     l5636:	
  2300  0388  083C               	movf	(printf@width+1),w
  2301  0389  023F               	subwf	1+(printf@_val)+01h,w
  2302  038A  1D03               	skipz
  2303  038B  2B8E               	goto	u8085
  2304  038C  083B               	movf	(printf@width),w
  2305  038D  023E               	subwf	0+(printf@_val)+01h,w
  2306  038E                     u8085:
  2307  038E  1803               	skipnc
  2308  038F  2B91               	goto	u8081
  2309  0390  2B92               	goto	u8080
  2310  0391                     u8081:
  2311  0391  2B99               	goto	l5640
  2312  0392                     u8080:
  2313                           	line	761
  2314                           	
  2315  0392                     l5638:	
  2316  0392  083E               	movf	0+(printf@_val)+01h,w
  2317  0393  02BB               	subwf	(printf@width),f
  2318  0394  083F               	movf	1+(printf@_val)+01h,w
  2319  0395  1C03               	skipc
  2320  0396  03BC               	decf	(printf@width+1),f
  2321  0397  02BC               	subwf	(printf@width+1),f
  2322  0398  2B9C               	goto	l5642
  2323                           	line	762
  2324                           	
  2325  0399                     l1126:	
  2326                           	line	763
  2327                           	
  2328  0399                     l5640:	
  2329  0399  01BB               	clrf	(printf@width)
  2330  039A  01BC               	clrf	(printf@width+1)
  2331  039B  2B9C               	goto	l5642
  2332                           	
  2333  039C                     l1127:	
  2334                           	line	765
  2335                           	
  2336  039C                     l5642:	
  2337  039C  19C1               	btfsc	(printf@flag),(3)&7
  2338  039D  2B9F               	goto	u8091
  2339  039E  2BA0               	goto	u8090
  2340  039F                     u8091:
  2341  039F  2BCE               	goto	l5654
  2342  03A0                     u8090:
  2343  03A0  2BA9               	goto	l5648
  2344                           	line	767
  2345                           	
  2346  03A1                     l5644:	
  2347  03A1  2BA9               	goto	l5648
  2348                           	
  2349  03A2                     l1130:	
  2350                           	line	768
  2351                           	
  2352  03A2                     l5646:	
  2353  03A2  3020               	movlw	(020h)
  2354  03A3  160A  118A  269F   	fcall	_putch
              120A  118A         
  2355  03A8  2BA9               	goto	l5648
  2356                           	
  2357  03A9                     l1129:	
  2358                           	line	767
  2359                           	
  2360  03A9                     l5648:	
  2361  03A9  30FF               	movlw	low(-1)
  2362  03AA  1283               	bcf	status, 5	;RP0=0, select bank0
  2363  03AB  1303               	bcf	status, 6	;RP1=0, select bank0
  2364  03AC  07BB               	addwf	(printf@width),f
  2365  03AD  1803               	skipnc
  2366  03AE  0ABC               	incf	(printf@width+1),f
  2367  03AF  30FF               	movlw	high(-1)
  2368  03B0  07BC               	addwf	(printf@width+1),f
  2369  03B1  30FF               	movlw	high(-1)
  2370  03B2  063C               	xorwf	((printf@width+1)),w
  2371  03B3  1D03               	skipz
  2372  03B4  2BB7               	goto	u8105
  2373  03B5  30FF               	movlw	low(-1)
  2374  03B6  063B               	xorwf	((printf@width)),w
  2375  03B7                     u8105:
  2376                           
  2377  03B7  1D03               	skipz
  2378  03B8  2BBA               	goto	u8101
  2379  03B9  2BBB               	goto	u8100
  2380  03BA                     u8101:
  2381  03BA  2BA2               	goto	l5646
  2382  03BB                     u8100:
  2383  03BB  2BCE               	goto	l5654
  2384                           	
  2385  03BC                     l1131:	
  2386  03BC  2BCE               	goto	l5654
  2387                           	line	768
  2388                           	
  2389  03BD                     l1128:	
  2390                           	line	770
  2391  03BD  2BCE               	goto	l5654
  2392                           	
  2393  03BE                     l1133:	
  2394                           	line	771
  2395                           	
  2396  03BE                     l5650:	
  2397  03BE  083D               	movf	(printf@_val),w
  2398  03BF  0084               	movwf	fsr0
  2399  03C0  1383               	bcf	status, 7	;select IRP bank0
  2400  03C1  0800               	movf	indf,w
  2401  03C2  160A  118A  269F   	fcall	_putch
              120A  118A         
  2402                           	
  2403  03C7                     l5652:	
  2404  03C7  3001               	movlw	(01h)
  2405  03C8  1283               	bcf	status, 5	;RP0=0, select bank0
  2406  03C9  1303               	bcf	status, 6	;RP1=0, select bank0
  2407  03CA  00B0               	movwf	(??_printf+0)+0
  2408  03CB  0830               	movf	(??_printf+0)+0,w
  2409  03CC  07BD               	addwf	(printf@_val),f
  2410  03CD  2BCE               	goto	l5654
  2411                           	
  2412  03CE                     l1132:	
  2413                           	line	770
  2414                           	
  2415  03CE                     l5654:	
  2416  03CE  3001               	movlw	low(01h)
  2417  03CF  02BE               	subwf	0+(printf@_val)+01h,f
  2418  03D0  3000               	movlw	high(01h)
  2419  03D1  1C03               	skipc
  2420  03D2  03BF               	decf	1+(printf@_val)+01h,f
  2421  03D3  02BF               	subwf	1+(printf@_val)+01h,f
  2422  03D4  30FF               	movlw	high(0FFFFh)
  2423  03D5  063F               	xorwf	(1+(printf@_val)+01h),w
  2424  03D6  1D03               	skipz
  2425  03D7  2BDA               	goto	u8115
  2426  03D8  30FF               	movlw	low(0FFFFh)
  2427  03D9  063E               	xorwf	(0+(printf@_val)+01h),w
  2428  03DA                     u8115:
  2429                           
  2430  03DA  1D03               	skipz
  2431  03DB  2BDD               	goto	u8111
  2432  03DC  2BDE               	goto	u8110
  2433  03DD                     u8111:
  2434  03DD  2BBE               	goto	l5650
  2435  03DE                     u8110:
  2436                           	
  2437  03DE                     l1134:	
  2438                           	line	773
  2439  03DE  1DC1               	btfss	(printf@flag),(3)&7
  2440  03DF  2BE1               	goto	u8121
  2441  03E0  2BE2               	goto	u8120
  2442  03E1                     u8121:
  2443  03E1  2FE9               	goto	l5864
  2444  03E2                     u8120:
  2445  03E2  2BEB               	goto	l5660
  2446                           	line	774
  2447                           	
  2448  03E3                     l5656:	
  2449  03E3  2BEB               	goto	l5660
  2450                           	
  2451  03E4                     l1137:	
  2452                           	line	775
  2453                           	
  2454  03E4                     l5658:	
  2455  03E4  3020               	movlw	(020h)
  2456  03E5  160A  118A  269F   	fcall	_putch
              120A  118A         
  2457  03EA  2BEB               	goto	l5660
  2458                           	
  2459  03EB                     l1136:	
  2460                           	line	774
  2461                           	
  2462  03EB                     l5660:	
  2463  03EB  30FF               	movlw	low(-1)
  2464  03EC  1283               	bcf	status, 5	;RP0=0, select bank0
  2465  03ED  1303               	bcf	status, 6	;RP1=0, select bank0
  2466  03EE  07BB               	addwf	(printf@width),f
  2467  03EF  1803               	skipnc
  2468  03F0  0ABC               	incf	(printf@width+1),f
  2469  03F1  30FF               	movlw	high(-1)
  2470  03F2  07BC               	addwf	(printf@width+1),f
  2471  03F3  30FF               	movlw	high(-1)
  2472  03F4  063C               	xorwf	((printf@width+1)),w
  2473  03F5  1D03               	skipz
  2474  03F6  2BF9               	goto	u8135
  2475  03F7  30FF               	movlw	low(-1)
  2476  03F8  063B               	xorwf	((printf@width)),w
  2477  03F9                     u8135:
  2478                           
  2479  03F9  1D03               	skipz
  2480  03FA  2BFC               	goto	u8131
  2481  03FB  2BFD               	goto	u8130
  2482  03FC                     u8131:
  2483  03FC  2BE4               	goto	l5658
  2484  03FD                     u8130:
  2485  03FD  2FE9               	goto	l5864
  2486                           	
  2487  03FE                     l1138:	
  2488  03FE  2FE9               	goto	l5864
  2489                           	line	775
  2490                           	
  2491  03FF                     l1135:	
  2492                           	line	777
  2493  03FF  2FE9               	goto	l5864
  2494                           	line	787
  2495                           	
  2496  0400                     l1139:	
  2497                           	line	802
  2498                           	
  2499  0400                     l5662:	
  2500  0400  0838               	movf	(printf@ap),w
  2501  0401  0084               	movwf	fsr0
  2502  0402  1383               	bcf	status, 7	;select IRP bank0
  2503  0403  0800               	movf	indf,w
  2504  0404  00B0               	movwf	(??_printf+0)+0
  2505  0405  0830               	movf	(??_printf+0)+0,w
  2506  0406  00C0               	movwf	(printf@c)
  2507                           	
  2508  0407                     l5664:	
  2509  0407  3002               	movlw	(02h)
  2510  0408  00B0               	movwf	(??_printf+0)+0
  2511  0409  0830               	movf	(??_printf+0)+0,w
  2512  040A  07B8               	addwf	(printf@ap),f
  2513  040B  2C0C               	goto	l5666
  2514                           	line	805
  2515                           	
  2516  040C                     l1140:	
  2517                           	line	808
  2518                           	
  2519  040C                     l5666:	
  2520  040C  3040               	movlw	(printf@c)&0ffh
  2521  040D  00B0               	movwf	(??_printf+0)+0
  2522  040E  0830               	movf	(??_printf+0)+0,w
  2523  040F  00BD               	movwf	(printf@_val)
  2524                           	line	809
  2525                           	
  2526  0410                     l5668:	
  2527  0410  3001               	movlw	low(01h)
  2528  0411  00BE               	movwf	0+(printf@_val)+01h
  2529  0412  3000               	movlw	high(01h)
  2530  0413  00BF               	movwf	(0+(printf@_val)+01h)+1
  2531                           	line	810
  2532  0414  2B6F               	goto	l5630
  2533                           	line	820
  2534                           	
  2535  0415                     l1141:	
  2536                           	line	821
  2537                           	
  2538  0415                     l5670:	
  2539  0415  30C0               	movlw	low(0C0h)
  2540  0416  04C1               	iorwf	(printf@flag),f
  2541  0417  3000               	movlw	high(0C0h)
  2542  0418  04C2               	iorwf	(printf@flag+1),f
  2543                           	line	822
  2544  0419  2C41               	goto	l5676
  2545                           	line	825
  2546                           	
  2547  041A                     l5672:	
  2548  041A  2C41               	goto	l5676
  2549                           	line	638
  2550                           	
  2551  041B                     l1115:	
  2552                           	
  2553  041B                     l5674:	
  2554  041B  3001               	movlw	01h
  2555  041C  1283               	bcf	status, 5	;RP0=0, select bank0
  2556  041D  1303               	bcf	status, 6	;RP1=0, select bank0
  2557  041E  07B9               	addwf	(printf@f),f
  2558  041F  30FF               	movlw	-01h
  2559  0420  0739               	addwf	(printf@f),w
  2560  0421  0084               	movwf	fsr0
  2561  0422  120A  158A  2000   	fcall	stringdir
              120A  118A         
  2562  0427  00C0               	movwf	(printf@c)
  2563                           	; Switch size 1, requested type "space"
  2564                           ; Number of cases is 8, Range of values is 0 to 120
  2565                           ; switch strategies available:
  2566                           ; Name         Instructions Cycles
  2567                           ; simple_byte           25    13 (average)
  2568                           ; jumptable            260     6 (fixed)
  2569                           ; rangetable           125     6 (fixed)
  2570                           ; spacedrange          248     9 (fixed)
  2571                           ; locatedrange         121     3 (fixed)
  2572                           ;	Chosen strategy is simple_byte
  2573                           
  2574                           	opt asmopt_off
  2575  0428  3A00               	xorlw	0^0	; case 0
  2576  0429  1903               	skipnz
  2577  042A  2FFF               	goto	l1220
  2578  042B  3A58               	xorlw	88^0	; case 88
  2579  042C  1903               	skipnz
  2580  042D  2B6C               	goto	l1122
  2581  042E  3A3B               	xorlw	99^88	; case 99
  2582  042F  1903               	skipnz
  2583  0430  2C00               	goto	l5662
  2584  0431  3A07               	xorlw	100^99	; case 100
  2585  0432  1903               	skipnz
  2586  0433  2C41               	goto	l5676
  2587  0434  3A0D               	xorlw	105^100	; case 105
  2588  0435  1903               	skipnz
  2589  0436  2C41               	goto	l5676
  2590  0437  3A06               	xorlw	111^105	; case 111
  2591  0438  1903               	skipnz
  2592  0439  2B68               	goto	l1118
  2593  043A  3A1A               	xorlw	117^111	; case 117
  2594  043B  1903               	skipnz
  2595  043C  2C15               	goto	l5670
  2596  043D  3A0D               	xorlw	120^117	; case 120
  2597  043E  1903               	skipnz
  2598  043F  2B6D               	goto	l1123
  2599  0440  2C0C               	goto	l5666
  2600                           	opt asmopt_on
  2601                           
  2602                           	line	825
  2603                           	
  2604  0441                     l1119:	
  2605                           	line	1246
  2606                           	
  2607  0441                     l5676:	
  2608  0441  30C0               	movlw	low(0C0h)
  2609  0442  0541               	andwf	(printf@flag),w
  2610  0443  00B0               	movwf	(??_printf+0)+0
  2611  0444  3000               	movlw	high(0C0h)
  2612  0445  0542               	andwf	(printf@flag+1),w
  2613  0446  00B1               	movwf	1+(??_printf+0)+0
  2614  0447  0831               	movf	1+(??_printf+0)+0,w
  2615  0448  0430               	iorwf	0+(??_printf+0)+0,w
  2616  0449  1D03               	skipz
  2617  044A  2C4C               	goto	u8141
  2618  044B  2C4D               	goto	u8140
  2619  044C                     u8141:
  2620  044C  2C68               	goto	l5688
  2621  044D                     u8140:
  2622                           	line	1254
  2623                           	
  2624  044D                     l5678:	
  2625  044D  0838               	movf	(printf@ap),w
  2626  044E  0084               	movwf	fsr0
  2627  044F  1383               	bcf	status, 7	;select IRP bank0
  2628  0450  0800               	movf	indf,w
  2629  0451  00BD               	movwf	(printf@_val)
  2630  0452  0A84               	incf	fsr0,f
  2631  0453  0800               	movf	indf,w
  2632  0454  00BE               	movwf	(printf@_val+1)
  2633                           	
  2634  0455                     l5680:	
  2635  0455  3002               	movlw	(02h)
  2636  0456  00B0               	movwf	(??_printf+0)+0
  2637  0457  0830               	movf	(??_printf+0)+0,w
  2638  0458  07B8               	addwf	(printf@ap),f
  2639                           	line	1256
  2640                           	
  2641  0459                     l5682:	
  2642  0459  1FBE               	btfss	(printf@_val+1),7
  2643  045A  2C5C               	goto	u8151
  2644  045B  2C5D               	goto	u8150
  2645  045C                     u8151:
  2646  045C  2C75               	goto	l5692
  2647  045D                     u8150:
  2648                           	line	1257
  2649                           	
  2650  045D                     l5684:	
  2651  045D  3003               	movlw	low(03h)
  2652  045E  04C1               	iorwf	(printf@flag),f
  2653  045F  3000               	movlw	high(03h)
  2654  0460  04C2               	iorwf	(printf@flag+1),f
  2655                           	line	1258
  2656                           	
  2657  0461                     l5686:	
  2658  0461  09BD               	comf	(printf@_val),f
  2659  0462  09BE               	comf	(printf@_val+1),f
  2660  0463  0ABD               	incf	(printf@_val),f
  2661  0464  1903               	skipnz
  2662  0465  0ABE               	incf	(printf@_val+1),f
  2663  0466  2C75               	goto	l5692
  2664                           	line	1259
  2665                           	
  2666  0467                     l1143:	
  2667                           	line	1261
  2668  0467  2C75               	goto	l5692
  2669                           	line	1263
  2670                           	
  2671  0468                     l1142:	
  2672                           	line	1281
  2673                           	
  2674  0468                     l5688:	
  2675  0468  0838               	movf	(printf@ap),w
  2676  0469  0084               	movwf	fsr0
  2677  046A  1383               	bcf	status, 7	;select IRP bank0
  2678  046B  0800               	movf	indf,w
  2679  046C  00BD               	movwf	(printf@_val)
  2680  046D  0A84               	incf	fsr0,f
  2681  046E  0800               	movf	indf,w
  2682  046F  00BE               	movwf	(printf@_val+1)
  2683                           	
  2684  0470                     l5690:	
  2685  0470  3002               	movlw	(02h)
  2686  0471  00B0               	movwf	(??_printf+0)+0
  2687  0472  0830               	movf	(??_printf+0)+0,w
  2688  0473  07B8               	addwf	(printf@ap),f
  2689  0474  2C75               	goto	l5692
  2690                           	line	1282
  2691                           	
  2692  0475                     l1144:	
  2693                           	line	1285
  2694                           	
  2695  0475                     l5692:	
  2696  0475  08BA               	movf	(printf@prec),f
  2697  0476  1D03               	skipz
  2698  0477  2C79               	goto	u8161
  2699  0478  2C7A               	goto	u8160
  2700  0479                     u8161:
  2701  0479  2D24               	goto	l5742
  2702  047A                     u8160:
  2703                           	
  2704  047A                     l5694:	
  2705  047A  083E               	movf	((printf@_val+1)),w
  2706  047B  043D               	iorwf	((printf@_val)),w
  2707  047C  1D03               	skipz
  2708  047D  2C7F               	goto	u8171
  2709  047E  2C80               	goto	u8170
  2710  047F                     u8171:
  2711  047F  2D24               	goto	l5742
  2712  0480                     u8170:
  2713                           	line	1286
  2714                           	
  2715  0480                     l5696:	
  2716  0480  3001               	movlw	(01h)
  2717  0481  00B0               	movwf	(??_printf+0)+0
  2718  0482  0830               	movf	(??_printf+0)+0,w
  2719  0483  07BA               	addwf	(printf@prec),f
  2720  0484  2D24               	goto	l5742
  2721                           	
  2722  0485                     l1145:	
  2723                           	line	1289
  2724  0485  2D24               	goto	l5742
  2725                           	line	1294
  2726                           	
  2727  0486                     l1147:	
  2728  0486  2C87               	goto	l5698
  2729                           	line	1297
  2730                           	
  2731  0487                     l1148:	
  2732                           	line	1300
  2733                           	
  2734  0487                     l5698:	
  2735  0487  01C0               	clrf	(printf@c)
  2736  0488  1403               	bsf	status,0
  2737  0489  0DC0               	rlf	(printf@c),f
  2738                           	
  2739  048A                     l5700:	
  2740  048A  0840               	movf	(printf@c),w
  2741  048B  3A05               	xorlw	05h
  2742  048C  1D03               	skipz
  2743  048D  2C8F               	goto	u8181
  2744  048E  2C90               	goto	u8180
  2745  048F                     u8181:
  2746  048F  2C92               	goto	l5704
  2747  0490                     u8180:
  2748  0490  2D33               	goto	l5744
  2749                           	
  2750  0491                     l5702:	
  2751  0491  2D33               	goto	l5744
  2752                           	line	1301
  2753                           	
  2754  0492                     l1149:	
  2755                           	
  2756  0492                     l5704:	
  2757  0492  0840               	movf	(printf@c),w
  2758  0493  00B0               	movwf	(??_printf+0)+0
  2759  0494  0730               	addwf	(??_printf+0)+0,w
  2760  0495  3E0D               	addlw	low((_dpowers-__stringbase))
  2761  0496  0084               	movwf	fsr0
  2762  0497  120A  158A  2000   	fcall	stringdir
              120A  118A         
  2763  049C  00B1               	movwf	(??_printf+1)+0
  2764  049D  120A  158A  2000   	fcall	stringdir
              120A  118A         
  2765  04A2  00B2               	movwf	(??_printf+1)+0+1
  2766  04A3  0832               	movf	1+(??_printf+1)+0,w
  2767  04A4  023E               	subwf	(printf@_val+1),w
  2768  04A5  1D03               	skipz
  2769  04A6  2CA9               	goto	u8195
  2770  04A7  0831               	movf	0+(??_printf+1)+0,w
  2771  04A8  023D               	subwf	(printf@_val),w
  2772  04A9                     u8195:
  2773  04A9  1803               	skipnc
  2774  04AA  2CAC               	goto	u8191
  2775  04AB  2CAD               	goto	u8190
  2776  04AC                     u8191:
  2777  04AC  2CAF               	goto	l5708
  2778  04AD                     u8190:
  2779  04AD  2D33               	goto	l5744
  2780                           	line	1302
  2781                           	
  2782  04AE                     l5706:	
  2783  04AE  2D33               	goto	l5744
  2784                           	
  2785  04AF                     l1151:	
  2786                           	line	1300
  2787                           	
  2788  04AF                     l5708:	
  2789  04AF  3001               	movlw	(01h)
  2790  04B0  00B0               	movwf	(??_printf+0)+0
  2791  04B1  0830               	movf	(??_printf+0)+0,w
  2792  04B2  07C0               	addwf	(printf@c),f
  2793                           	
  2794  04B3                     l5710:	
  2795  04B3  0840               	movf	(printf@c),w
  2796  04B4  3A05               	xorlw	05h
  2797  04B5  1D03               	skipz
  2798  04B6  2CB8               	goto	u8201
  2799  04B7  2CB9               	goto	u8200
  2800  04B8                     u8201:
  2801  04B8  2C92               	goto	l5704
  2802  04B9                     u8200:
  2803  04B9  2D33               	goto	l5744
  2804                           	
  2805  04BA                     l1150:	
  2806                           	line	1304
  2807  04BA  2D33               	goto	l5744
  2808                           	line	1309
  2809                           	
  2810  04BB                     l1153:	
  2811                           	line	1311
  2812                           	
  2813  04BB                     l5712:	
  2814  04BB  01C0               	clrf	(printf@c)
  2815  04BC  1403               	bsf	status,0
  2816  04BD  0DC0               	rlf	(printf@c),f
  2817                           	
  2818  04BE                     l5714:	
  2819  04BE  0840               	movf	(printf@c),w
  2820  04BF  3A04               	xorlw	04h
  2821  04C0  1D03               	skipz
  2822  04C1  2CC3               	goto	u8211
  2823  04C2  2CC4               	goto	u8210
  2824  04C3                     u8211:
  2825  04C3  2CC6               	goto	l5718
  2826  04C4                     u8210:
  2827  04C4  2D33               	goto	l5744
  2828                           	
  2829  04C5                     l5716:	
  2830  04C5  2D33               	goto	l5744
  2831                           	line	1312
  2832                           	
  2833  04C6                     l1154:	
  2834                           	
  2835  04C6                     l5718:	
  2836  04C6  0840               	movf	(printf@c),w
  2837  04C7  00B0               	movwf	(??_printf+0)+0
  2838  04C8  0730               	addwf	(??_printf+0)+0,w
  2839  04C9  3E17               	addlw	low((_hexpowers-__stringbase))
  2840  04CA  0084               	movwf	fsr0
  2841  04CB  120A  158A  2000   	fcall	stringdir
              120A  118A         
  2842  04D0  00B1               	movwf	(??_printf+1)+0
  2843  04D1  120A  158A  2000   	fcall	stringdir
              120A  118A         
  2844  04D6  00B2               	movwf	(??_printf+1)+0+1
  2845  04D7  0832               	movf	1+(??_printf+1)+0,w
  2846  04D8  023E               	subwf	(printf@_val+1),w
  2847  04D9  1D03               	skipz
  2848  04DA  2CDD               	goto	u8225
  2849  04DB  0831               	movf	0+(??_printf+1)+0,w
  2850  04DC  023D               	subwf	(printf@_val),w
  2851  04DD                     u8225:
  2852  04DD  1803               	skipnc
  2853  04DE  2CE0               	goto	u8221
  2854  04DF  2CE1               	goto	u8220
  2855  04E0                     u8221:
  2856  04E0  2CE3               	goto	l5722
  2857  04E1                     u8220:
  2858  04E1  2D33               	goto	l5744
  2859                           	line	1313
  2860                           	
  2861  04E2                     l5720:	
  2862  04E2  2D33               	goto	l5744
  2863                           	
  2864  04E3                     l1156:	
  2865                           	line	1311
  2866                           	
  2867  04E3                     l5722:	
  2868  04E3  3001               	movlw	(01h)
  2869  04E4  00B0               	movwf	(??_printf+0)+0
  2870  04E5  0830               	movf	(??_printf+0)+0,w
  2871  04E6  07C0               	addwf	(printf@c),f
  2872                           	
  2873  04E7                     l5724:	
  2874  04E7  0840               	movf	(printf@c),w
  2875  04E8  3A04               	xorlw	04h
  2876  04E9  1D03               	skipz
  2877  04EA  2CEC               	goto	u8231
  2878  04EB  2CED               	goto	u8230
  2879  04EC                     u8231:
  2880  04EC  2CC6               	goto	l5718
  2881  04ED                     u8230:
  2882  04ED  2D33               	goto	l5744
  2883                           	
  2884  04EE                     l1155:	
  2885                           	line	1315
  2886  04EE  2D33               	goto	l5744
  2887                           	line	1321
  2888                           	
  2889  04EF                     l1157:	
  2890                           	line	1323
  2891                           	
  2892  04EF                     l5726:	
  2893  04EF  01C0               	clrf	(printf@c)
  2894  04F0  1403               	bsf	status,0
  2895  04F1  0DC0               	rlf	(printf@c),f
  2896                           	
  2897  04F2                     l5728:	
  2898  04F2  0840               	movf	(printf@c),w
  2899  04F3  3A06               	xorlw	06h
  2900  04F4  1D03               	skipz
  2901  04F5  2CF7               	goto	u8241
  2902  04F6  2CF8               	goto	u8240
  2903  04F7                     u8241:
  2904  04F7  2CFA               	goto	l5732
  2905  04F8                     u8240:
  2906  04F8  2D33               	goto	l5744
  2907                           	
  2908  04F9                     l5730:	
  2909  04F9  2D33               	goto	l5744
  2910                           	line	1324
  2911                           	
  2912  04FA                     l1158:	
  2913                           	
  2914  04FA                     l5732:	
  2915  04FA  0840               	movf	(printf@c),w
  2916  04FB  00B0               	movwf	(??_printf+0)+0
  2917  04FC  0730               	addwf	(??_printf+0)+0,w
  2918  04FD  3E01               	addlw	low((_octpowers-__stringbase))
  2919  04FE  0084               	movwf	fsr0
  2920  04FF  120A  158A  2000   	fcall	stringdir
              120A  118A         
  2921  0504  00B1               	movwf	(??_printf+1)+0
  2922  0505  120A  158A  2000   	fcall	stringdir
              120A  118A         
  2923  050A  00B2               	movwf	(??_printf+1)+0+1
  2924  050B  0832               	movf	1+(??_printf+1)+0,w
  2925  050C  023E               	subwf	(printf@_val+1),w
  2926  050D  1D03               	skipz
  2927  050E  2D11               	goto	u8255
  2928  050F  0831               	movf	0+(??_printf+1)+0,w
  2929  0510  023D               	subwf	(printf@_val),w
  2930  0511                     u8255:
  2931  0511  1803               	skipnc
  2932  0512  2D14               	goto	u8251
  2933  0513  2D15               	goto	u8250
  2934  0514                     u8251:
  2935  0514  2D17               	goto	l5736
  2936  0515                     u8250:
  2937  0515  2D33               	goto	l5744
  2938                           	line	1325
  2939                           	
  2940  0516                     l5734:	
  2941  0516  2D33               	goto	l5744
  2942                           	
  2943  0517                     l1160:	
  2944                           	line	1323
  2945                           	
  2946  0517                     l5736:	
  2947  0517  3001               	movlw	(01h)
  2948  0518  00B0               	movwf	(??_printf+0)+0
  2949  0519  0830               	movf	(??_printf+0)+0,w
  2950  051A  07C0               	addwf	(printf@c),f
  2951                           	
  2952  051B                     l5738:	
  2953  051B  0840               	movf	(printf@c),w
  2954  051C  3A06               	xorlw	06h
  2955  051D  1D03               	skipz
  2956  051E  2D20               	goto	u8261
  2957  051F  2D21               	goto	u8260
  2958  0520                     u8261:
  2959  0520  2CFA               	goto	l5732
  2960  0521                     u8260:
  2961  0521  2D33               	goto	l5744
  2962                           	
  2963  0522                     l1159:	
  2964                           	line	1327
  2965  0522  2D33               	goto	l5744
  2966                           	line	1331
  2967                           	
  2968  0523                     l5740:	
  2969  0523  2D33               	goto	l5744
  2970                           	line	1289
  2971                           	
  2972  0524                     l1146:	
  2973                           	
  2974  0524                     l5742:	
  2975  0524  0841               	movf	(printf@flag),w
  2976  0525  39C0               	andlw	0C0h
  2977                           	; Switch size 1, requested type "space"
  2978                           ; Number of cases is 4, Range of values is 0 to 192
  2979                           ; switch strategies available:
  2980                           ; Name         Instructions Cycles
  2981                           ; simple_byte           13     7 (average)
  2982                           ; jumptable            260     6 (fixed)
  2983                           ; rangetable           197     6 (fixed)
  2984                           ; spacedrange          392     9 (fixed)
  2985                           ; locatedrange         193     3 (fixed)
  2986                           ;	Chosen strategy is simple_byte
  2987                           
  2988                           	opt asmopt_off
  2989  0526  3A00               	xorlw	0^0	; case 0
  2990  0527  1903               	skipnz
  2991  0528  2C87               	goto	l5698
  2992  0529  3A40               	xorlw	64^0	; case 64
  2993  052A  1903               	skipnz
  2994  052B  2CEF               	goto	l5726
  2995  052C  3AC0               	xorlw	128^64	; case 128
  2996  052D  1903               	skipnz
  2997  052E  2CBB               	goto	l5712
  2998  052F  3A40               	xorlw	192^128	; case 192
  2999  0530  1903               	skipnz
  3000  0531  2C87               	goto	l5698
  3001  0532  2D33               	goto	l5744
  3002                           	opt asmopt_on
  3003                           
  3004                           	line	1331
  3005                           	
  3006  0533                     l1152:	
  3007                           	line	1334
  3008                           	
  3009  0533                     l5744:	
  3010  0533  0840               	movf	(printf@c),w
  3011  0534  3A80               	xorlw	80h
  3012  0535  00B0               	movwf	(??_printf+0)+0
  3013  0536  083A               	movf	(printf@prec),w
  3014  0537  3A80               	xorlw	80h
  3015  0538  02B0               	subwf	(??_printf+0)+0
  3016  0539  1803               	skipnc
  3017  053A  2D3C               	goto	u8271
  3018  053B  2D3D               	goto	u8270
  3019  053C                     u8271:
  3020  053C  2D42               	goto	l5748
  3021  053D                     u8270:
  3022                           	line	1335
  3023                           	
  3024  053D                     l5746:	
  3025  053D  083A               	movf	(printf@prec),w
  3026  053E  00B0               	movwf	(??_printf+0)+0
  3027  053F  0830               	movf	(??_printf+0)+0,w
  3028  0540  00C0               	movwf	(printf@c)
  3029  0541  2D51               	goto	l1162
  3030                           	line	1336
  3031                           	
  3032  0542                     l1161:	
  3033                           	
  3034  0542                     l5748:	
  3035  0542  083A               	movf	(printf@prec),w
  3036  0543  3A80               	xorlw	80h
  3037  0544  00B0               	movwf	(??_printf+0)+0
  3038  0545  0840               	movf	(printf@c),w
  3039  0546  3A80               	xorlw	80h
  3040  0547  02B0               	subwf	(??_printf+0)+0
  3041  0548  1803               	skipnc
  3042  0549  2D4B               	goto	u8281
  3043  054A  2D4C               	goto	u8280
  3044  054B                     u8281:
  3045  054B  2D51               	goto	l1162
  3046  054C                     u8280:
  3047                           	line	1337
  3048                           	
  3049  054C                     l5750:	
  3050  054C  0840               	movf	(printf@c),w
  3051  054D  00B0               	movwf	(??_printf+0)+0
  3052  054E  0830               	movf	(??_printf+0)+0,w
  3053  054F  00BA               	movwf	(printf@prec)
  3054  0550  2D51               	goto	l1162
  3055                           	
  3056  0551                     l1163:	
  3057                           	line	1340
  3058                           	
  3059  0551                     l1162:	
  3060  0551  083C               	movf	(printf@width+1),w
  3061  0552  043B               	iorwf	(printf@width),w
  3062  0553  1903               	skipnz
  3063  0554  2D56               	goto	u8291
  3064  0555  2D57               	goto	u8290
  3065  0556                     u8291:
  3066  0556  2D6A               	goto	l5756
  3067  0557                     u8290:
  3068                           	
  3069  0557                     l5752:	
  3070  0557  3003               	movlw	low(03h)
  3071  0558  0541               	andwf	(printf@flag),w
  3072  0559  00B0               	movwf	(??_printf+0)+0
  3073  055A  3000               	movlw	high(03h)
  3074  055B  0542               	andwf	(printf@flag+1),w
  3075  055C  00B1               	movwf	1+(??_printf+0)+0
  3076  055D  0831               	movf	1+(??_printf+0)+0,w
  3077  055E  0430               	iorwf	0+(??_printf+0)+0,w
  3078  055F  1903               	skipnz
  3079  0560  2D62               	goto	u8301
  3080  0561  2D63               	goto	u8300
  3081  0562                     u8301:
  3082  0562  2D6A               	goto	l5756
  3083  0563                     u8300:
  3084                           	line	1341
  3085                           	
  3086  0563                     l5754:	
  3087  0563  30FF               	movlw	low(-1)
  3088  0564  07BB               	addwf	(printf@width),f
  3089  0565  1803               	skipnc
  3090  0566  0ABC               	incf	(printf@width+1),f
  3091  0567  30FF               	movlw	high(-1)
  3092  0568  07BC               	addwf	(printf@width+1),f
  3093  0569  2D6A               	goto	l5756
  3094                           	
  3095  056A                     l1164:	
  3096                           	line	1343
  3097                           	
  3098  056A                     l5756:	
  3099  056A  1F42               	btfss	(printf@flag+1),(14)&7
  3100  056B  2D6D               	goto	u8311
  3101  056C  2D6E               	goto	u8310
  3102  056D                     u8311:
  3103  056D  2D95               	goto	l5764
  3104  056E                     u8310:
  3105                           	line	1344
  3106                           	
  3107  056E                     l5758:	
  3108  056E  083A               	movf	(printf@prec),w
  3109  056F  00B0               	movwf	(??_printf+0)+0
  3110  0570  01B1               	clrf	(??_printf+0)+0+1
  3111  0571  1BB0               	btfsc	(??_printf+0)+0,7
  3112  0572  03B1               	decf	(??_printf+0)+0+1,f
  3113  0573  0831               	movf	1+(??_printf+0)+0,w
  3114  0574  3A80               	xorlw	80h
  3115  0575  00B2               	movwf	(??_printf+2)+0
  3116  0576  083C               	movf	(printf@width+1),w
  3117  0577  3A80               	xorlw	80h
  3118  0578  0232               	subwf	(??_printf+2)+0,w
  3119  0579  1D03               	skipz
  3120  057A  2D7D               	goto	u8325
  3121  057B  083B               	movf	(printf@width),w
  3122  057C  0230               	subwf	0+(??_printf+0)+0,w
  3123  057D                     u8325:
  3124                           
  3125  057D  1803               	skipnc
  3126  057E  2D80               	goto	u8321
  3127  057F  2D81               	goto	u8320
  3128  0580                     u8321:
  3129  0580  2D8F               	goto	l5762
  3130  0581                     u8320:
  3131                           	line	1345
  3132                           	
  3133  0581                     l5760:	
  3134  0581  1283               	bcf	status, 5	;RP0=0, select bank0
  3135  0582  1303               	bcf	status, 6	;RP1=0, select bank0
  3136  0583  083A               	movf	(printf@prec),w
  3137  0584  00B0               	movwf	(??_printf+0)+0
  3138  0585  01B1               	clrf	(??_printf+0)+0+1
  3139  0586  1BB0               	btfsc	(??_printf+0)+0,7
  3140  0587  03B1               	decf	(??_printf+0)+0+1,f
  3141  0588  0830               	movf	0+(??_printf+0)+0,w
  3142  0589  02BB               	subwf	(printf@width),f
  3143  058A  0831               	movf	1+(??_printf+0)+0,w
  3144  058B  1C03               	skipc
  3145  058C  03BC               	decf	(printf@width+1),f
  3146  058D  02BC               	subwf	(printf@width+1),f
  3147  058E  2D95               	goto	l5764
  3148                           	line	1346
  3149                           	
  3150  058F                     l1166:	
  3151                           	line	1347
  3152                           	
  3153  058F                     l5762:	
  3154  058F  1283               	bcf	status, 5	;RP0=0, select bank0
  3155  0590  1303               	bcf	status, 6	;RP1=0, select bank0
  3156  0591  01BB               	clrf	(printf@width)
  3157  0592  01BC               	clrf	(printf@width+1)
  3158  0593  2D95               	goto	l5764
  3159                           	
  3160  0594                     l1167:	
  3161  0594  2D95               	goto	l5764
  3162                           	line	1348
  3163                           	
  3164  0595                     l1165:	
  3165                           	line	1356
  3166                           	
  3167  0595                     l5764:	
  3168  0595  30C4               	movlw	low(08C4h)
  3169  0596  0541               	andwf	(printf@flag),w
  3170  0597  00B0               	movwf	(??_printf+0)+0
  3171  0598  3008               	movlw	high(08C4h)
  3172  0599  0542               	andwf	(printf@flag+1),w
  3173  059A  00B1               	movwf	1+(??_printf+0)+0
  3174  059B  3008               	movlw	high(0840h)
  3175  059C  0631               	xorwf	1+(??_printf+0)+0,w
  3176  059D  1D03               	skipz
  3177  059E  2DA1               	goto	u8335
  3178  059F  3040               	movlw	low(0840h)
  3179  05A0  0630               	xorwf	0+(??_printf+0)+0,w
  3180  05A1                     u8335:
  3181                           
  3182  05A1  1D03               	skipz
  3183  05A2  2DA4               	goto	u8331
  3184  05A3  2DA5               	goto	u8330
  3185  05A4                     u8331:
  3186  05A4  2DB3               	goto	l5770
  3187  05A5                     u8330:
  3188                           	line	1357
  3189                           	
  3190  05A5                     l5766:	
  3191  05A5  083C               	movf	(printf@width+1),w
  3192  05A6  043B               	iorwf	(printf@width),w
  3193  05A7  1903               	skipnz
  3194  05A8  2DAA               	goto	u8341
  3195  05A9  2DAB               	goto	u8340
  3196  05AA                     u8341:
  3197  05AA  2DE0               	goto	l5778
  3198  05AB                     u8340:
  3199                           	line	1358
  3200                           	
  3201  05AB                     l5768:	
  3202  05AB  30FF               	movlw	low(-1)
  3203  05AC  07BB               	addwf	(printf@width),f
  3204  05AD  1803               	skipnc
  3205  05AE  0ABC               	incf	(printf@width+1),f
  3206  05AF  30FF               	movlw	high(-1)
  3207  05B0  07BC               	addwf	(printf@width+1),f
  3208  05B1  2DE0               	goto	l5778
  3209                           	
  3210  05B2                     l1169:	
  3211                           	line	1359
  3212  05B2  2DE0               	goto	l5778
  3213                           	
  3214  05B3                     l1168:	
  3215                           	line	1363
  3216                           	
  3217  05B3                     l5770:	
  3218  05B3  30C0               	movlw	low(08C0h)
  3219  05B4  0541               	andwf	(printf@flag),w
  3220  05B5  00B0               	movwf	(??_printf+0)+0
  3221  05B6  3008               	movlw	high(08C0h)
  3222  05B7  0542               	andwf	(printf@flag+1),w
  3223  05B8  00B1               	movwf	1+(??_printf+0)+0
  3224  05B9  3008               	movlw	high(0880h)
  3225  05BA  0631               	xorwf	1+(??_printf+0)+0,w
  3226  05BB  1D03               	skipz
  3227  05BC  2DBF               	goto	u8355
  3228  05BD  3080               	movlw	low(0880h)
  3229  05BE  0630               	xorwf	0+(??_printf+0)+0,w
  3230  05BF                     u8355:
  3231                           
  3232  05BF  1D03               	skipz
  3233  05C0  2DC2               	goto	u8351
  3234  05C1  2DC3               	goto	u8350
  3235  05C2                     u8351:
  3236  05C2  2DE0               	goto	l5778
  3237  05C3                     u8350:
  3238                           	line	1367
  3239                           	
  3240  05C3                     l5772:	
  3241  05C3  083C               	movf	(printf@width+1),w
  3242  05C4  3A80               	xorlw	80h
  3243  05C5  00FF               	movwf	btemp+1
  3244  05C6  3080               	movlw	(high(03h))^80h
  3245  05C7  027F               	subwf	btemp+1,w
  3246  05C8  1D03               	skipz
  3247  05C9  2DCC               	goto	u8365
  3248  05CA  3003               	movlw	low(03h)
  3249  05CB  023B               	subwf	(printf@width),w
  3250  05CC                     u8365:
  3251                           
  3252  05CC  1C03               	skipc
  3253  05CD  2DCF               	goto	u8361
  3254  05CE  2DD0               	goto	u8360
  3255  05CF                     u8361:
  3256  05CF  2DD9               	goto	l5776
  3257  05D0                     u8360:
  3258                           	line	1368
  3259                           	
  3260  05D0                     l5774:	
  3261  05D0  30FE               	movlw	low(-2)
  3262  05D1  1283               	bcf	status, 5	;RP0=0, select bank0
  3263  05D2  1303               	bcf	status, 6	;RP1=0, select bank0
  3264  05D3  07BB               	addwf	(printf@width),f
  3265  05D4  1803               	skipnc
  3266  05D5  0ABC               	incf	(printf@width+1),f
  3267  05D6  30FF               	movlw	high(-2)
  3268  05D7  07BC               	addwf	(printf@width+1),f
  3269  05D8  2DE0               	goto	l5778
  3270                           	line	1369
  3271                           	
  3272  05D9                     l1172:	
  3273                           	line	1370
  3274                           	
  3275  05D9                     l5776:	
  3276  05D9  1283               	bcf	status, 5	;RP0=0, select bank0
  3277  05DA  1303               	bcf	status, 6	;RP1=0, select bank0
  3278  05DB  01BB               	clrf	(printf@width)
  3279  05DC  01BC               	clrf	(printf@width+1)
  3280  05DD  2DE0               	goto	l5778
  3281                           	
  3282  05DE                     l1173:	
  3283  05DE  2DE0               	goto	l5778
  3284                           	line	1371
  3285                           	
  3286  05DF                     l1171:	
  3287  05DF  2DE0               	goto	l5778
  3288                           	line	1376
  3289                           	
  3290  05E0                     l1170:	
  3291                           	
  3292  05E0                     l5778:	
  3293  05E0  0840               	movf	(printf@c),w
  3294  05E1  00B0               	movwf	(??_printf+0)+0
  3295  05E2  01B1               	clrf	(??_printf+0)+0+1
  3296  05E3  1BB0               	btfsc	(??_printf+0)+0,7
  3297  05E4  03B1               	decf	(??_printf+0)+0+1,f
  3298  05E5  0831               	movf	1+(??_printf+0)+0,w
  3299  05E6  3A80               	xorlw	80h
  3300  05E7  00B2               	movwf	(??_printf+2)+0
  3301  05E8  083C               	movf	(printf@width+1),w
  3302  05E9  3A80               	xorlw	80h
  3303  05EA  0232               	subwf	(??_printf+2)+0,w
  3304  05EB  1D03               	skipz
  3305  05EC  2DEF               	goto	u8375
  3306  05ED  083B               	movf	(printf@width),w
  3307  05EE  0230               	subwf	0+(??_printf+0)+0,w
  3308  05EF                     u8375:
  3309                           
  3310  05EF  1803               	skipnc
  3311  05F0  2DF2               	goto	u8371
  3312  05F1  2DF3               	goto	u8370
  3313  05F2                     u8371:
  3314  05F2  2E01               	goto	l5782
  3315  05F3                     u8370:
  3316                           	line	1377
  3317                           	
  3318  05F3                     l5780:	
  3319  05F3  1283               	bcf	status, 5	;RP0=0, select bank0
  3320  05F4  1303               	bcf	status, 6	;RP1=0, select bank0
  3321  05F5  0840               	movf	(printf@c),w
  3322  05F6  00B0               	movwf	(??_printf+0)+0
  3323  05F7  01B1               	clrf	(??_printf+0)+0+1
  3324  05F8  1BB0               	btfsc	(??_printf+0)+0,7
  3325  05F9  03B1               	decf	(??_printf+0)+0+1,f
  3326  05FA  0830               	movf	0+(??_printf+0)+0,w
  3327  05FB  02BB               	subwf	(printf@width),f
  3328  05FC  0831               	movf	1+(??_printf+0)+0,w
  3329  05FD  1C03               	skipc
  3330  05FE  03BC               	decf	(printf@width+1),f
  3331  05FF  02BC               	subwf	(printf@width+1),f
  3332  0600  2E06               	goto	l5784
  3333                           	line	1378
  3334                           	
  3335  0601                     l1174:	
  3336                           	line	1379
  3337                           	
  3338  0601                     l5782:	
  3339  0601  1283               	bcf	status, 5	;RP0=0, select bank0
  3340  0602  1303               	bcf	status, 6	;RP1=0, select bank0
  3341  0603  01BB               	clrf	(printf@width)
  3342  0604  01BC               	clrf	(printf@width+1)
  3343  0605  2E06               	goto	l5784
  3344                           	
  3345  0606                     l1175:	
  3346                           	line	1382
  3347                           	
  3348  0606                     l5784:	
  3349  0606  1D41               	btfss	(printf@flag),(2)&7
  3350  0607  2E09               	goto	u8381
  3351  0608  2E0A               	goto	u8380
  3352  0609                     u8381:
  3353  0609  2E79               	goto	l5810
  3354  060A                     u8380:
  3355                           	line	1387
  3356                           	
  3357  060A                     l5786:	
  3358  060A  3003               	movlw	low(03h)
  3359  060B  0541               	andwf	(printf@flag),w
  3360  060C  00B0               	movwf	(??_printf+0)+0
  3361  060D  3000               	movlw	high(03h)
  3362  060E  0542               	andwf	(printf@flag+1),w
  3363  060F  00B1               	movwf	1+(??_printf+0)+0
  3364  0610  0831               	movf	1+(??_printf+0)+0,w
  3365  0611  0430               	iorwf	0+(??_printf+0)+0,w
  3366  0612  1903               	skipnz
  3367  0613  2E15               	goto	u8391
  3368  0614  2E16               	goto	u8390
  3369  0615                     u8391:
  3370  0615  2E1D               	goto	l1177
  3371  0616                     u8390:
  3372                           	line	1388
  3373                           	
  3374  0616                     l5788:	
  3375  0616  302D               	movlw	(02Dh)
  3376  0617  160A  118A  269F   	fcall	_putch
              120A  118A         
  3377  061C  2E59               	goto	l5804
  3378                           	line	1391
  3379                           	
  3380  061D                     l1177:	
  3381                           	line	1394
  3382  061D  1C41               	btfss	(printf@flag),(0)&7
  3383  061E  2E20               	goto	u8401
  3384  061F  2E21               	goto	u8400
  3385  0620                     u8401:
  3386  0620  2E28               	goto	l5792
  3387  0621                     u8400:
  3388                           	line	1395
  3389                           	
  3390  0621                     l5790:	
  3391  0621  3020               	movlw	(020h)
  3392  0622  160A  118A  269F   	fcall	_putch
              120A  118A         
  3393  0627  2E59               	goto	l5804
  3394                           	line	1398
  3395                           	
  3396  0628                     l1179:	
  3397                           	
  3398  0628                     l5792:	
  3399  0628  30C0               	movlw	low(08C0h)
  3400  0629  1283               	bcf	status, 5	;RP0=0, select bank0
  3401  062A  1303               	bcf	status, 6	;RP1=0, select bank0
  3402  062B  0541               	andwf	(printf@flag),w
  3403  062C  00B0               	movwf	(??_printf+0)+0
  3404  062D  3008               	movlw	high(08C0h)
  3405  062E  0542               	andwf	(printf@flag+1),w
  3406  062F  00B1               	movwf	1+(??_printf+0)+0
  3407  0630  3008               	movlw	high(0880h)
  3408  0631  0631               	xorwf	1+(??_printf+0)+0,w
  3409  0632  1D03               	skipz
  3410  0633  2E36               	goto	u8415
  3411  0634  3080               	movlw	low(0880h)
  3412  0635  0630               	xorwf	0+(??_printf+0)+0,w
  3413  0636                     u8415:
  3414                           
  3415  0636  1D03               	skipz
  3416  0637  2E39               	goto	u8411
  3417  0638  2E3A               	goto	u8410
  3418  0639                     u8411:
  3419  0639  2E59               	goto	l5804
  3420  063A                     u8410:
  3421                           	line	1399
  3422                           	
  3423  063A                     l5794:	
  3424  063A  3030               	movlw	(030h)
  3425  063B  160A  118A  269F   	fcall	_putch
              120A  118A         
  3426                           	line	1401
  3427                           	
  3428  0640                     l5796:	
  3429  0640  1283               	bcf	status, 5	;RP0=0, select bank0
  3430  0641  1303               	bcf	status, 6	;RP1=0, select bank0
  3431  0642  1AC1               	btfsc	(printf@flag),(5)&7
  3432  0643  2E45               	goto	u8421
  3433  0644  2E46               	goto	u8420
  3434  0645                     u8421:
  3435  0645  2E4B               	goto	l5800
  3436  0646                     u8420:
  3437                           	
  3438  0646                     l5798:	
  3439  0646  3078               	movlw	low(078h)
  3440  0647  00B3               	movwf	(_printf$1414)
  3441  0648  3000               	movlw	high(078h)
  3442  0649  00B4               	movwf	((_printf$1414))+1
  3443  064A  2E50               	goto	l5802
  3444                           	
  3445  064B                     l1183:	
  3446                           	
  3447  064B                     l5800:	
  3448  064B  3058               	movlw	low(058h)
  3449  064C  00B3               	movwf	(_printf$1414)
  3450  064D  3000               	movlw	high(058h)
  3451  064E  00B4               	movwf	((_printf$1414))+1
  3452  064F  2E50               	goto	l5802
  3453                           	
  3454  0650                     l1185:	
  3455                           	
  3456  0650                     l5802:	
  3457  0650  0833               	movf	(_printf$1414),w
  3458  0651  160A  118A  269F   	fcall	_putch
              120A  118A         
  3459  0656  2E59               	goto	l5804
  3460                           	line	1407
  3461                           	
  3462  0657                     l1181:	
  3463  0657  2E59               	goto	l5804
  3464                           	line	1410
  3465                           	
  3466  0658                     l1180:	
  3467  0658  2E59               	goto	l5804
  3468                           	
  3469  0659                     l1178:	
  3470                           	
  3471  0659                     l5804:	
  3472  0659  1283               	bcf	status, 5	;RP0=0, select bank0
  3473  065A  1303               	bcf	status, 6	;RP1=0, select bank0
  3474  065B  083C               	movf	(printf@width+1),w
  3475  065C  043B               	iorwf	(printf@width),w
  3476  065D  1903               	skipnz
  3477  065E  2E60               	goto	u8431
  3478  065F  2E61               	goto	u8430
  3479  0660                     u8431:
  3480  0660  2FB4               	goto	l5856
  3481  0661                     u8430:
  3482  0661  2E62               	goto	l5806
  3483                           	line	1411
  3484                           	
  3485  0662                     l1187:	
  3486                           	line	1412
  3487                           	
  3488  0662                     l5806:	
  3489  0662  3030               	movlw	(030h)
  3490  0663  160A  118A  269F   	fcall	_putch
              120A  118A         
  3491                           	line	1413
  3492                           	
  3493  0668                     l5808:	
  3494  0668  30FF               	movlw	low(-1)
  3495  0669  1283               	bcf	status, 5	;RP0=0, select bank0
  3496  066A  1303               	bcf	status, 6	;RP1=0, select bank0
  3497  066B  07BB               	addwf	(printf@width),f
  3498  066C  1803               	skipnc
  3499  066D  0ABC               	incf	(printf@width+1),f
  3500  066E  30FF               	movlw	high(-1)
  3501  066F  07BC               	addwf	(printf@width+1),f
  3502  0670  083C               	movf	(((printf@width+1))),w
  3503  0671  043B               	iorwf	(((printf@width))),w
  3504  0672  1D03               	skipz
  3505  0673  2E75               	goto	u8441
  3506  0674  2E76               	goto	u8440
  3507  0675                     u8441:
  3508  0675  2E62               	goto	l5806
  3509  0676                     u8440:
  3510  0676  2FB4               	goto	l5856
  3511                           	
  3512  0677                     l1188:	
  3513  0677  2FB4               	goto	l5856
  3514                           	
  3515  0678                     l1186:	
  3516                           	line	1415
  3517  0678  2FB4               	goto	l5856
  3518                           	
  3519  0679                     l1176:	
  3520                           	line	1423
  3521                           	
  3522  0679                     l5810:	
  3523  0679  083C               	movf	(printf@width+1),w
  3524  067A  043B               	iorwf	(printf@width),w
  3525  067B  1903               	skipnz
  3526  067C  2E7E               	goto	u8451
  3527  067D  2E7F               	goto	u8450
  3528  067E                     u8451:
  3529  067E  2E9A               	goto	l5818
  3530  067F                     u8450:
  3531                           	
  3532  067F                     l5812:	
  3533  067F  19C1               	btfsc	(printf@flag),(3)&7
  3534  0680  2E82               	goto	u8461
  3535  0681  2E83               	goto	u8460
  3536  0682                     u8461:
  3537  0682  2E9A               	goto	l5818
  3538  0683                     u8460:
  3539  0683  2E84               	goto	l5814
  3540                           	line	1424
  3541                           	
  3542  0684                     l1191:	
  3543                           	line	1425
  3544                           	
  3545  0684                     l5814:	
  3546  0684  3020               	movlw	(020h)
  3547  0685  160A  118A  269F   	fcall	_putch
              120A  118A         
  3548                           	line	1426
  3549                           	
  3550  068A                     l5816:	
  3551  068A  30FF               	movlw	low(-1)
  3552  068B  1283               	bcf	status, 5	;RP0=0, select bank0
  3553  068C  1303               	bcf	status, 6	;RP1=0, select bank0
  3554  068D  07BB               	addwf	(printf@width),f
  3555  068E  1803               	skipnc
  3556  068F  0ABC               	incf	(printf@width+1),f
  3557  0690  30FF               	movlw	high(-1)
  3558  0691  07BC               	addwf	(printf@width+1),f
  3559  0692  083C               	movf	(((printf@width+1))),w
  3560  0693  043B               	iorwf	(((printf@width))),w
  3561  0694  1D03               	skipz
  3562  0695  2E97               	goto	u8471
  3563  0696  2E98               	goto	u8470
  3564  0697                     u8471:
  3565  0697  2E84               	goto	l5814
  3566  0698                     u8470:
  3567  0698  2E9A               	goto	l5818
  3568                           	
  3569  0699                     l1192:	
  3570  0699  2E9A               	goto	l5818
  3571                           	
  3572  069A                     l1190:	
  3573                           	line	1433
  3574                           	
  3575  069A                     l5818:	
  3576  069A  3003               	movlw	low(03h)
  3577  069B  0541               	andwf	(printf@flag),w
  3578  069C  00B0               	movwf	(??_printf+0)+0
  3579  069D  3000               	movlw	high(03h)
  3580  069E  0542               	andwf	(printf@flag+1),w
  3581  069F  00B1               	movwf	1+(??_printf+0)+0
  3582  06A0  0831               	movf	1+(??_printf+0)+0,w
  3583  06A1  0430               	iorwf	0+(??_printf+0)+0,w
  3584  06A2  1903               	skipnz
  3585  06A3  2EA5               	goto	u8481
  3586  06A4  2EA6               	goto	u8480
  3587  06A5                     u8481:
  3588  06A5  2EAD               	goto	l1193
  3589  06A6                     u8480:
  3590                           	line	1434
  3591                           	
  3592  06A6                     l5820:	
  3593  06A6  302D               	movlw	(02Dh)
  3594  06A7  160A  118A  269F   	fcall	_putch
              120A  118A         
  3595  06AC  2EB9               	goto	l5824
  3596                           	line	1438
  3597                           	
  3598  06AD                     l1193:	
  3599  06AD  1C41               	btfss	(printf@flag),(0)&7
  3600  06AE  2EB0               	goto	u8491
  3601  06AF  2EB1               	goto	u8490
  3602  06B0                     u8491:
  3603  06B0  2EB9               	goto	l5824
  3604  06B1                     u8490:
  3605                           	line	1439
  3606                           	
  3607  06B1                     l5822:	
  3608  06B1  3020               	movlw	(020h)
  3609  06B2  160A  118A  269F   	fcall	_putch
              120A  118A         
  3610  06B7  2EB9               	goto	l5824
  3611                           	
  3612  06B8                     l1195:	
  3613  06B8  2EB9               	goto	l5824
  3614                           	line	1443
  3615                           	
  3616  06B9                     l1194:	
  3617                           	
  3618  06B9                     l5824:	
  3619  06B9  30C0               	movlw	low(08C0h)
  3620  06BA  1283               	bcf	status, 5	;RP0=0, select bank0
  3621  06BB  1303               	bcf	status, 6	;RP1=0, select bank0
  3622  06BC  0541               	andwf	(printf@flag),w
  3623  06BD  00B0               	movwf	(??_printf+0)+0
  3624  06BE  3008               	movlw	high(08C0h)
  3625  06BF  0542               	andwf	(printf@flag+1),w
  3626  06C0  00B1               	movwf	1+(??_printf+0)+0
  3627  06C1  3008               	movlw	high(0840h)
  3628  06C2  0631               	xorwf	1+(??_printf+0)+0,w
  3629  06C3  1D03               	skipz
  3630  06C4  2EC7               	goto	u8505
  3631  06C5  3040               	movlw	low(0840h)
  3632  06C6  0630               	xorwf	0+(??_printf+0)+0,w
  3633  06C7                     u8505:
  3634                           
  3635  06C7  1D03               	skipz
  3636  06C8  2ECA               	goto	u8501
  3637  06C9  2ECB               	goto	u8500
  3638  06CA                     u8501:
  3639  06CA  2ED2               	goto	l5828
  3640  06CB                     u8500:
  3641                           	line	1444
  3642                           	
  3643  06CB                     l5826:	
  3644  06CB  3030               	movlw	(030h)
  3645  06CC  160A  118A  269F   	fcall	_putch
              120A  118A         
  3646  06D1  2FB4               	goto	l5856
  3647                           	line	1445
  3648                           	
  3649  06D2                     l1196:	
  3650                           	line	1449
  3651                           	
  3652  06D2                     l5828:	
  3653  06D2  30C0               	movlw	low(08C0h)
  3654  06D3  1283               	bcf	status, 5	;RP0=0, select bank0
  3655  06D4  1303               	bcf	status, 6	;RP1=0, select bank0
  3656  06D5  0541               	andwf	(printf@flag),w
  3657  06D6  00B0               	movwf	(??_printf+0)+0
  3658  06D7  3008               	movlw	high(08C0h)
  3659  06D8  0542               	andwf	(printf@flag+1),w
  3660  06D9  00B1               	movwf	1+(??_printf+0)+0
  3661  06DA  3008               	movlw	high(0880h)
  3662  06DB  0631               	xorwf	1+(??_printf+0)+0,w
  3663  06DC  1D03               	skipz
  3664  06DD  2EE0               	goto	u8515
  3665  06DE  3080               	movlw	low(0880h)
  3666  06DF  0630               	xorwf	0+(??_printf+0)+0,w
  3667  06E0                     u8515:
  3668                           
  3669  06E0  1D03               	skipz
  3670  06E1  2EE3               	goto	u8511
  3671  06E2  2EE4               	goto	u8510
  3672  06E3                     u8511:
  3673  06E3  2FB4               	goto	l5856
  3674  06E4                     u8510:
  3675                           	line	1453
  3676                           	
  3677  06E4                     l5830:	
  3678  06E4  3030               	movlw	(030h)
  3679  06E5  160A  118A  269F   	fcall	_putch
              120A  118A         
  3680                           	line	1455
  3681                           	
  3682  06EA                     l5832:	
  3683  06EA  1283               	bcf	status, 5	;RP0=0, select bank0
  3684  06EB  1303               	bcf	status, 6	;RP1=0, select bank0
  3685  06EC  1AC1               	btfsc	(printf@flag),(5)&7
  3686  06ED  2EEF               	goto	u8521
  3687  06EE  2EF0               	goto	u8520
  3688  06EF                     u8521:
  3689  06EF  2EF5               	goto	l5836
  3690  06F0                     u8520:
  3691                           	
  3692  06F0                     l5834:	
  3693  06F0  3078               	movlw	low(078h)
  3694  06F1  00B5               	movwf	(_printf$1415)
  3695  06F2  3000               	movlw	high(078h)
  3696  06F3  00B6               	movwf	((_printf$1415))+1
  3697  06F4  2EFA               	goto	l5838
  3698                           	
  3699  06F5                     l1200:	
  3700                           	
  3701  06F5                     l5836:	
  3702  06F5  3058               	movlw	low(058h)
  3703  06F6  00B5               	movwf	(_printf$1415)
  3704  06F7  3000               	movlw	high(058h)
  3705  06F8  00B6               	movwf	((_printf$1415))+1
  3706  06F9  2EFA               	goto	l5838
  3707                           	
  3708  06FA                     l1202:	
  3709                           	
  3710  06FA                     l5838:	
  3711  06FA  0835               	movf	(_printf$1415),w
  3712  06FB  160A  118A  269F   	fcall	_putch
              120A  118A         
  3713  0700  2FB4               	goto	l5856
  3714                           	line	1461
  3715                           	
  3716  0701                     l1198:	
  3717  0701  2FB4               	goto	l5856
  3718                           	line	1464
  3719                           	
  3720  0702                     l1197:	
  3721  0702  2FB4               	goto	l5856
  3722                           	
  3723  0703                     l1189:	
  3724                           	line	1469
  3725  0703  2FB4               	goto	l5856
  3726                           	
  3727  0704                     l1204:	
  3728                           	line	1471
  3729  0704  2F9C               	goto	l5852
  3730                           	line	1478
  3731                           	
  3732  0705                     l1206:	
  3733  0705  2F06               	goto	l5840
  3734                           	line	1481
  3735                           	
  3736  0706                     l1207:	
  3737                           	line	1484
  3738                           	
  3739  0706                     l5840:	
  3740  0706  300A               	movlw	low(0Ah)
  3741  0707  1283               	bcf	status, 5	;RP0=0, select bank0
  3742  0708  1303               	bcf	status, 6	;RP1=0, select bank0
  3743  0709  00A8               	movwf	(?___lwmod)
  3744  070A  3000               	movlw	high(0Ah)
  3745  070B  00A9               	movwf	((?___lwmod))+1
  3746  070C  083A               	movf	(printf@prec),w
  3747  070D  00B0               	movwf	(??_printf+0)+0
  3748  070E  0730               	addwf	(??_printf+0)+0,w
  3749  070F  3E0D               	addlw	low((_dpowers-__stringbase))
  3750  0710  0084               	movwf	fsr0
  3751  0711  120A  158A  2000   	fcall	stringdir
              120A  118A         
  3752  0716  00A0               	movwf	(?___lwdiv)
  3753  0717  120A  158A  2000   	fcall	stringdir
              120A  118A         
  3754  071C  00A1               	movwf	(?___lwdiv+1)
  3755  071D  083E               	movf	(printf@_val+1),w
  3756  071E  01A3               	clrf	1+(?___lwdiv)+02h
  3757  071F  07A3               	addwf	1+(?___lwdiv)+02h
  3758  0720  083D               	movf	(printf@_val),w
  3759  0721  01A2               	clrf	0+(?___lwdiv)+02h
  3760  0722  07A2               	addwf	0+(?___lwdiv)+02h
  3761                           
  3762  0723  120A  118A  202B   	fcall	___lwdiv
              120A  118A         
  3763  0728  1283               	bcf	status, 5	;RP0=0, select bank0
  3764  0729  1303               	bcf	status, 6	;RP1=0, select bank0
  3765  072A  0821               	movf	(1+(?___lwdiv)),w
  3766  072B  01AB               	clrf	1+(?___lwmod)+02h
  3767  072C  07AB               	addwf	1+(?___lwmod)+02h
  3768  072D  0820               	movf	(0+(?___lwdiv)),w
  3769  072E  01AA               	clrf	0+(?___lwmod)+02h
  3770  072F  07AA               	addwf	0+(?___lwmod)+02h
  3771                           
  3772  0730  120A  158A  2117   	fcall	___lwmod
              120A  118A         
  3773  0735  1283               	bcf	status, 5	;RP0=0, select bank0
  3774  0736  1303               	bcf	status, 6	;RP1=0, select bank0
  3775  0737  0828               	movf	(0+(?___lwmod)),w
  3776  0738  3E30               	addlw	030h
  3777  0739  00B1               	movwf	(??_printf+1)+0
  3778  073A  0831               	movf	(??_printf+1)+0,w
  3779  073B  00C0               	movwf	(printf@c)
  3780                           	line	1486
  3781  073C  2FAD               	goto	l5854
  3782                           	line	1492
  3783                           	
  3784  073D                     l1209:	
  3785                           	line	1495
  3786  073D  1AC1               	btfsc	(printf@flag),(5)&7
  3787  073E  2F40               	goto	u8531
  3788  073F  2F41               	goto	u8530
  3789  0740                     u8531:
  3790  0740  2F46               	goto	l5844
  3791  0741                     u8530:
  3792                           	
  3793  0741                     l5842:	
  3794  0741  3078               	movlw	((STR_10-__stringbase))&0ffh
  3795  0742  00B0               	movwf	(??_printf+0)+0
  3796  0743  0830               	movf	(??_printf+0)+0,w
  3797  0744  00B7               	movwf	(_printf$1418)
  3798  0745  2F4B               	goto	l5846
  3799                           	
  3800  0746                     l1211:	
  3801                           	
  3802  0746                     l5844:	
  3803  0746  3067               	movlw	((STR_9-__stringbase))&0ffh
  3804  0747  00B0               	movwf	(??_printf+0)+0
  3805  0748  0830               	movf	(??_printf+0)+0,w
  3806  0749  00B7               	movwf	(_printf$1418)
  3807  074A  2F4B               	goto	l5846
  3808                           	
  3809  074B                     l1213:	
  3810                           	
  3811  074B                     l5846:	
  3812  074B  083A               	movf	(printf@prec),w
  3813  074C  00B0               	movwf	(??_printf+0)+0
  3814  074D  0730               	addwf	(??_printf+0)+0,w
  3815  074E  3E17               	addlw	low((_hexpowers-__stringbase))
  3816  074F  0084               	movwf	fsr0
  3817  0750  120A  158A  2000   	fcall	stringdir
              120A  118A         
  3818  0755  00A0               	movwf	(?___lwdiv)
  3819  0756  120A  158A  2000   	fcall	stringdir
              120A  118A         
  3820  075B  00A1               	movwf	(?___lwdiv+1)
  3821  075C  083E               	movf	(printf@_val+1),w
  3822  075D  01A3               	clrf	1+(?___lwdiv)+02h
  3823  075E  07A3               	addwf	1+(?___lwdiv)+02h
  3824  075F  083D               	movf	(printf@_val),w
  3825  0760  01A2               	clrf	0+(?___lwdiv)+02h
  3826  0761  07A2               	addwf	0+(?___lwdiv)+02h
  3827                           
  3828  0762  120A  118A  202B   	fcall	___lwdiv
              120A  118A         
  3829  0767  1283               	bcf	status, 5	;RP0=0, select bank0
  3830  0768  1303               	bcf	status, 6	;RP1=0, select bank0
  3831  0769  0820               	movf	(0+(?___lwdiv)),w
  3832  076A  390F               	andlw	0Fh
  3833  076B  0737               	addwf	(_printf$1418),w
  3834  076C  0084               	movwf	fsr0
  3835  076D  120A  158A  2000   	fcall	stringdir
              120A  118A         
  3836  0772  00B1               	movwf	(??_printf+1)+0
  3837  0773  0831               	movf	(??_printf+1)+0,w
  3838  0774  00C0               	movwf	(printf@c)
  3839                           	line	1502
  3840  0775  2FAD               	goto	l5854
  3841                           	line	1508
  3842                           	
  3843  0776                     l1214:	
  3844                           	line	1510
  3845                           	
  3846  0776                     l5848:	
  3847  0776  083A               	movf	(printf@prec),w
  3848  0777  00B0               	movwf	(??_printf+0)+0
  3849  0778  0730               	addwf	(??_printf+0)+0,w
  3850  0779  3E01               	addlw	low((_octpowers-__stringbase))
  3851  077A  0084               	movwf	fsr0
  3852  077B  120A  158A  2000   	fcall	stringdir
              120A  118A         
  3853  0780  00A0               	movwf	(?___lwdiv)
  3854  0781  120A  158A  2000   	fcall	stringdir
              120A  118A         
  3855  0786  00A1               	movwf	(?___lwdiv+1)
  3856  0787  083E               	movf	(printf@_val+1),w
  3857  0788  01A3               	clrf	1+(?___lwdiv)+02h
  3858  0789  07A3               	addwf	1+(?___lwdiv)+02h
  3859  078A  083D               	movf	(printf@_val),w
  3860  078B  01A2               	clrf	0+(?___lwdiv)+02h
  3861  078C  07A2               	addwf	0+(?___lwdiv)+02h
  3862                           
  3863  078D  120A  118A  202B   	fcall	___lwdiv
              120A  118A         
  3864  0792  1283               	bcf	status, 5	;RP0=0, select bank0
  3865  0793  1303               	bcf	status, 6	;RP1=0, select bank0
  3866  0794  0820               	movf	(0+(?___lwdiv)),w
  3867  0795  3907               	andlw	07h
  3868  0796  3E30               	addlw	030h
  3869  0797  00B1               	movwf	(??_printf+1)+0
  3870  0798  0831               	movf	(??_printf+1)+0,w
  3871  0799  00C0               	movwf	(printf@c)
  3872                           	line	1512
  3873  079A  2FAD               	goto	l5854
  3874                           	line	1515
  3875                           	
  3876  079B                     l5850:	
  3877  079B  2FAD               	goto	l5854
  3878                           	line	1471
  3879                           	
  3880  079C                     l1205:	
  3881                           	
  3882  079C                     l5852:	
  3883  079C  1283               	bcf	status, 5	;RP0=0, select bank0
  3884  079D  1303               	bcf	status, 6	;RP1=0, select bank0
  3885  079E  0841               	movf	(printf@flag),w
  3886  079F  39C0               	andlw	0C0h
  3887                           	; Switch size 1, requested type "space"
  3888                           ; Number of cases is 4, Range of values is 0 to 192
  3889                           ; switch strategies available:
  3890                           ; Name         Instructions Cycles
  3891                           ; simple_byte           13     7 (average)
  3892                           ; jumptable            260     6 (fixed)
  3893                           ; rangetable           197     6 (fixed)
  3894                           ; spacedrange          392     9 (fixed)
  3895                           ; locatedrange         193     3 (fixed)
  3896                           ;	Chosen strategy is simple_byte
  3897                           
  3898                           	opt asmopt_off
  3899  07A0  3A00               	xorlw	0^0	; case 0
  3900  07A1  1903               	skipnz
  3901  07A2  2F06               	goto	l5840
  3902  07A3  3A40               	xorlw	64^0	; case 64
  3903  07A4  1903               	skipnz
  3904  07A5  2F76               	goto	l5848
  3905  07A6  3AC0               	xorlw	128^64	; case 128
  3906  07A7  1903               	skipnz
  3907  07A8  2F3D               	goto	l1209
  3908  07A9  3A40               	xorlw	192^128	; case 192
  3909  07AA  1903               	skipnz
  3910  07AB  2F06               	goto	l5840
  3911  07AC  2FAD               	goto	l5854
  3912                           	opt asmopt_on
  3913                           
  3914                           	line	1515
  3915                           	
  3916  07AD                     l1208:	
  3917                           	line	1516
  3918                           	
  3919  07AD                     l5854:	
  3920  07AD  0840               	movf	(printf@c),w
  3921  07AE  160A  118A  269F   	fcall	_putch
              120A  118A         
  3922  07B3  2FB4               	goto	l5856
  3923                           	line	1517
  3924                           	
  3925  07B4                     l1203:	
  3926                           	line	1469
  3927                           	
  3928  07B4                     l5856:	
  3929  07B4  30FF               	movlw	(-1)
  3930  07B5  1283               	bcf	status, 5	;RP0=0, select bank0
  3931  07B6  1303               	bcf	status, 6	;RP1=0, select bank0
  3932  07B7  00B0               	movwf	(??_printf+0)+0
  3933  07B8  0830               	movf	(??_printf+0)+0,w
  3934  07B9  07BA               	addwf	(printf@prec),f
  3935  07BA  083A               	movf	((printf@prec)),w
  3936  07BB  3AFF               	xorlw	-1
  3937  07BC  1D03               	skipz
  3938  07BD  2FBF               	goto	u8541
  3939  07BE  2FC0               	goto	u8540
  3940  07BF                     u8541:
  3941  07BF  2F9C               	goto	l5852
  3942  07C0                     u8540:
  3943                           	
  3944  07C0                     l1215:	
  3945                           	line	1520
  3946  07C0  1DC1               	btfss	(printf@flag),(3)&7
  3947  07C1  2FC3               	goto	u8551
  3948  07C2  2FC4               	goto	u8550
  3949  07C3                     u8551:
  3950  07C3  2FE9               	goto	l5864
  3951  07C4                     u8550:
  3952                           	
  3953  07C4                     l5858:	
  3954  07C4  083C               	movf	(printf@width+1),w
  3955  07C5  3A80               	xorlw	80h
  3956  07C6  00FF               	movwf	btemp+1
  3957  07C7  3080               	movlw	(high(01h))^80h
  3958  07C8  027F               	subwf	btemp+1,w
  3959  07C9  1D03               	skipz
  3960  07CA  2FCD               	goto	u8565
  3961  07CB  3001               	movlw	low(01h)
  3962  07CC  023B               	subwf	(printf@width),w
  3963  07CD                     u8565:
  3964                           
  3965  07CD  1C03               	skipc
  3966  07CE  2FD0               	goto	u8561
  3967  07CF  2FD1               	goto	u8560
  3968  07D0                     u8561:
  3969  07D0  2FE9               	goto	l5864
  3970  07D1                     u8560:
  3971  07D1  2FD2               	goto	l5860
  3972                           	line	1521
  3973                           	
  3974  07D2                     l1217:	
  3975                           	line	1522
  3976                           	
  3977  07D2                     l5860:	
  3978  07D2  3020               	movlw	(020h)
  3979  07D3  160A  118A  269F   	fcall	_putch
              120A  118A         
  3980                           	line	1523
  3981                           	
  3982  07D8                     l5862:	
  3983  07D8  30FF               	movlw	low(-1)
  3984  07D9  1283               	bcf	status, 5	;RP0=0, select bank0
  3985  07DA  1303               	bcf	status, 6	;RP1=0, select bank0
  3986  07DB  07BB               	addwf	(printf@width),f
  3987  07DC  1803               	skipnc
  3988  07DD  0ABC               	incf	(printf@width+1),f
  3989  07DE  30FF               	movlw	high(-1)
  3990  07DF  07BC               	addwf	(printf@width+1),f
  3991  07E0  083C               	movf	(((printf@width+1))),w
  3992  07E1  043B               	iorwf	(((printf@width))),w
  3993  07E2  1D03               	skipz
  3994  07E3  2FE5               	goto	u8571
  3995  07E4  2FE6               	goto	u8570
  3996  07E5                     u8571:
  3997  07E5  2FD2               	goto	l5860
  3998  07E6                     u8570:
  3999  07E6  2FE9               	goto	l5864
  4000                           	
  4001  07E7                     l1218:	
  4002  07E7  2FE9               	goto	l5864
  4003                           	
  4004  07E8                     l1216:	
  4005  07E8  2FE9               	goto	l5864
  4006                           	line	1525
  4007                           	
  4008  07E9                     l1090:	
  4009                           	line	540
  4010                           	
  4011  07E9                     l5864:	
  4012  07E9  3001               	movlw	01h
  4013  07EA  1283               	bcf	status, 5	;RP0=0, select bank0
  4014  07EB  1303               	bcf	status, 6	;RP1=0, select bank0
  4015  07EC  07B9               	addwf	(printf@f),f
  4016  07ED  30FF               	movlw	-01h
  4017  07EE  0739               	addwf	(printf@f),w
  4018  07EF  0084               	movwf	fsr0
  4019  07F0  120A  158A  2000   	fcall	stringdir
              120A  118A         
  4020  07F5  00B0               	movwf	(??_printf+0)+0
  4021  07F6  0830               	movf	(??_printf+0)+0,w
  4022  07F7  00C0               	movwf	(printf@c)
  4023  07F8  08C0               	movf	((printf@c)),f
  4024  07F9  1D03               	skipz
  4025  07FA  2FFC               	goto	u8581
  4026  07FB  2FFD               	goto	u8580
  4027  07FC                     u8581:
  4028  07FC  2A3F               	goto	l5572
  4029  07FD                     u8580:
  4030  07FD  2FFF               	goto	l1220
  4031                           	
  4032  07FE                     l1219:	
  4033  07FE  2FFF               	goto	l1220
  4034                           	line	1527
  4035                           	
  4036  07FF                     l1117:	
  4037                           	line	1533
  4038                           ;	Return value of _printf is never used
  4039                           	
  4040  07FF                     l1220:	
  4041  07FF  0008               	return
  4042                           	opt stack 0
  4043                           GLOBAL	__end_of_printf
  4044  0800                     	__end_of_printf:
  4045 ;; =============== function _printf ends ============
  4046                           
  4047                           	signat	_printf,602
  4048                           	global	_CheckKeyPad
  4049                           psect	text903,local,class=CODE,delta=2
  4050                           global __ptext903
  4051  007B                     __ptext903:
  4052                           
  4053 ;; *************** function _CheckKeyPad *****************
  4054 ;; Defined at:
  4055 ;;		line 167 in file "D:\ELECTRONIC\2016\1. Automated Solar Panel Orientation Setter\Firmware\ver2\Automated Solar Panel
        Orientation Setter.c"
  4056 ;; Parameters:    Size  Location     Type
  4057 ;;		None
  4058 ;; Auto vars:     Size  Location     Type
  4059 ;;  rowNo           2    8[BANK0 ] int 
  4060 ;;  colomnNo        2    6[BANK0 ] int 
  4061 ;;  charactor       1    5[BANK0 ] unsigned char 
  4062 ;; Return value:  Size  Location     Type
  4063 ;;                  1    wreg      unsigned char 
  4064 ;; Registers used:
  4065 ;;		wreg, status,2, status,0, pclath, cstack
  4066 ;; Tracked objects:
  4067 ;;		On entry : 0/0
  4068 ;;		On exit  : 0/0
  4069 ;;		Unchanged: 0/0
  4070 ;; Data sizes:     COMMON   BANK0   BANK1   BANK3   BANK2
  4071 ;;      Params:         0       0       0       0       0
  4072 ;;      Locals:         0       5       0       0       0
  4073 ;;      Temps:          0       1       0       0       0
  4074 ;;      Totals:         0       6       0       0       0
  4075 ;;Total ram usage:        6 bytes
  4076 ;; Hardware stack levels used:    1
  4077 ;; Hardware stack levels required when called:    4
  4078 ;; This function calls:
  4079 ;;		_RowNo
  4080 ;;		_ColomnNo
  4081 ;; This function is called by:
  4082 ;;		_main
  4083 ;; This function uses a non-reentrant model
  4084 ;;
  4085                           psect	text903
  4086                           	file	"D:\ELECTRONIC\2016\1. Automated Solar Panel Orientation Setter\Firmware\ver2\Auto
                                 mated Solar Panel Orientation Setter.c"
  4087                           	line	167
  4088                           	global	__size_of_CheckKeyPad
  4089  01BC                     	__size_of_CheckKeyPad	equ	__end_of_CheckKeyPad-_CheckKeyPad
  4090                           	
  4091  007B                     _CheckKeyPad:	
  4092                           	opt	stack 3
  4093                           ; Regs used in _CheckKeyPad: [wreg+status,2+status,0+pclath+cstack]
  4094                           	line	168
  4095                           	
  4096  007B                     l5434:	
  4097                           ;Automated Solar Panel Orientation Setter.c: 168: RC4 = 0; RD5 = 0; RC5=0; RD4=0;
  4098  007B  1283               	bcf	status, 5	;RP0=0, select bank0
  4099  007C  1303               	bcf	status, 6	;RP1=0, select bank0
  4100  007D  1207               	bcf	(60/8),(60)&7
  4101  007E  1288               	bcf	(69/8),(69)&7
  4102  007F  1287               	bcf	(61/8),(61)&7
  4103  0080  1208               	bcf	(68/8),(68)&7
  4104                           	line	169
  4105                           	
  4106  0081                     l5436:	
  4107                           ;Automated Solar Panel Orientation Setter.c: 169: char charactor = '$';
  4108  0081  3024               	movlw	(024h)
  4109  0082  00A4               	movwf	(??_CheckKeyPad+0)+0
  4110  0083  0824               	movf	(??_CheckKeyPad+0)+0,w
  4111  0084  00A5               	movwf	(CheckKeyPad@charactor)
  4112                           	line	170
  4113                           	
  4114  0085                     l5438:	
  4115                           ;Automated Solar Panel Orientation Setter.c: 170: int colomnNo = 0;
  4116  0085  01A6               	clrf	(CheckKeyPad@colomnNo)
  4117  0086  01A7               	clrf	(CheckKeyPad@colomnNo+1)
  4118                           	line	171
  4119                           	
  4120  0087                     l5440:	
  4121                           ;Automated Solar Panel Orientation Setter.c: 171: int rowNo = RowNo();
  4122  0087  160A  118A  278D   	fcall	_RowNo
              120A  118A         
  4123  008C  1283               	bcf	status, 5	;RP0=0, select bank0
  4124  008D  1303               	bcf	status, 6	;RP1=0, select bank0
  4125  008E  0821               	movf	(1+(?_RowNo)),w
  4126  008F  01A9               	clrf	(CheckKeyPad@rowNo+1)
  4127  0090  07A9               	addwf	(CheckKeyPad@rowNo+1)
  4128  0091  0820               	movf	(0+(?_RowNo)),w
  4129  0092  01A8               	clrf	(CheckKeyPad@rowNo)
  4130  0093  07A8               	addwf	(CheckKeyPad@rowNo)
  4131                           
  4132                           	line	172
  4133                           	
  4134  0094                     l5442:	
  4135                           ;Automated Solar Panel Orientation Setter.c: 172: if (rowNo != 0){
  4136  0094  0829               	movf	(CheckKeyPad@rowNo+1),w
  4137  0095  0428               	iorwf	(CheckKeyPad@rowNo),w
  4138  0096  1903               	skipnz
  4139  0097  2899               	goto	u7571
  4140  0098  289A               	goto	u7570
  4141  0099                     u7571:
  4142  0099  29F5               	goto	l907
  4143  009A                     u7570:
  4144                           	line	173
  4145                           	
  4146  009A                     l5444:	
  4147                           ;Automated Solar Panel Orientation Setter.c: 173: colomnNo = ColomnNo(rowNo);
  4148  009A  0829               	movf	(CheckKeyPad@rowNo+1),w
  4149  009B  01A1               	clrf	(?_ColomnNo+1)
  4150  009C  07A1               	addwf	(?_ColomnNo+1)
  4151  009D  0828               	movf	(CheckKeyPad@rowNo),w
  4152  009E  01A0               	clrf	(?_ColomnNo)
  4153  009F  07A0               	addwf	(?_ColomnNo)
  4154                           
  4155  00A0  120A  158A  25BA   	fcall	_ColomnNo
              120A  118A         
  4156  00A5  1283               	bcf	status, 5	;RP0=0, select bank0
  4157  00A6  1303               	bcf	status, 6	;RP1=0, select bank0
  4158  00A7  0821               	movf	(1+(?_ColomnNo)),w
  4159  00A8  01A7               	clrf	(CheckKeyPad@colomnNo+1)
  4160  00A9  07A7               	addwf	(CheckKeyPad@colomnNo+1)
  4161  00AA  0820               	movf	(0+(?_ColomnNo)),w
  4162  00AB  01A6               	clrf	(CheckKeyPad@colomnNo)
  4163  00AC  07A6               	addwf	(CheckKeyPad@colomnNo)
  4164                           
  4165                           	line	174
  4166                           	
  4167  00AD                     l5446:	
  4168                           ;Automated Solar Panel Orientation Setter.c: 174: RC4 = 0; RD5 = 0; RC5=0; RD4=0;
  4169  00AD  1207               	bcf	(60/8),(60)&7
  4170                           	
  4171  00AE                     l5448:	
  4172  00AE  1288               	bcf	(69/8),(69)&7
  4173                           	
  4174  00AF                     l5450:	
  4175  00AF  1287               	bcf	(61/8),(61)&7
  4176                           	
  4177  00B0                     l5452:	
  4178  00B0  1208               	bcf	(68/8),(68)&7
  4179                           	line	175
  4180                           	
  4181  00B1                     l5454:	
  4182                           ;Automated Solar Panel Orientation Setter.c: 175: if(colomnNo==1 && rowNo == 1) characto
                                 r = '1';
  4183  00B1  3001               	movlw	01h
  4184  00B2  0626               	xorwf	(CheckKeyPad@colomnNo),w
  4185  00B3  0427               	iorwf	(CheckKeyPad@colomnNo+1),w
  4186  00B4  1D03               	skipz
  4187  00B5  28B7               	goto	u7581
  4188  00B6  28B8               	goto	u7580
  4189  00B7                     u7581:
  4190  00B7  28C4               	goto	l5460
  4191  00B8                     u7580:
  4192                           	
  4193  00B8                     l5456:	
  4194  00B8  3001               	movlw	01h
  4195  00B9  0628               	xorwf	(CheckKeyPad@rowNo),w
  4196  00BA  0429               	iorwf	(CheckKeyPad@rowNo+1),w
  4197  00BB  1D03               	skipz
  4198  00BC  28BE               	goto	u7591
  4199  00BD  28BF               	goto	u7590
  4200  00BE                     u7591:
  4201  00BE  28C4               	goto	l5460
  4202  00BF                     u7590:
  4203                           	
  4204  00BF                     l5458:	
  4205  00BF  3031               	movlw	(031h)
  4206  00C0  00A4               	movwf	(??_CheckKeyPad+0)+0
  4207  00C1  0824               	movf	(??_CheckKeyPad+0)+0,w
  4208  00C2  00A5               	movwf	(CheckKeyPad@charactor)
  4209  00C3  29F5               	goto	l907
  4210                           	line	176
  4211                           	
  4212  00C4                     l908:	
  4213                           	
  4214  00C4                     l5460:	
  4215                           ;Automated Solar Panel Orientation Setter.c: 176: else if(colomnNo==1 && rowNo == 2) cha
                                 ractor = '2';
  4216  00C4  3001               	movlw	01h
  4217  00C5  0626               	xorwf	(CheckKeyPad@colomnNo),w
  4218  00C6  0427               	iorwf	(CheckKeyPad@colomnNo+1),w
  4219  00C7  1D03               	skipz
  4220  00C8  28CA               	goto	u7601
  4221  00C9  28CB               	goto	u7600
  4222  00CA                     u7601:
  4223  00CA  28D7               	goto	l5466
  4224  00CB                     u7600:
  4225                           	
  4226  00CB                     l5462:	
  4227  00CB  3002               	movlw	02h
  4228  00CC  0628               	xorwf	(CheckKeyPad@rowNo),w
  4229  00CD  0429               	iorwf	(CheckKeyPad@rowNo+1),w
  4230  00CE  1D03               	skipz
  4231  00CF  28D1               	goto	u7611
  4232  00D0  28D2               	goto	u7610
  4233  00D1                     u7611:
  4234  00D1  28D7               	goto	l5466
  4235  00D2                     u7610:
  4236                           	
  4237  00D2                     l5464:	
  4238  00D2  3032               	movlw	(032h)
  4239  00D3  00A4               	movwf	(??_CheckKeyPad+0)+0
  4240  00D4  0824               	movf	(??_CheckKeyPad+0)+0,w
  4241  00D5  00A5               	movwf	(CheckKeyPad@charactor)
  4242  00D6  29F5               	goto	l907
  4243                           	line	177
  4244                           	
  4245  00D7                     l910:	
  4246                           	
  4247  00D7                     l5466:	
  4248                           ;Automated Solar Panel Orientation Setter.c: 177: else if(colomnNo==1 && rowNo == 3) cha
                                 ractor = '3';
  4249  00D7  3001               	movlw	01h
  4250  00D8  0626               	xorwf	(CheckKeyPad@colomnNo),w
  4251  00D9  0427               	iorwf	(CheckKeyPad@colomnNo+1),w
  4252  00DA  1D03               	skipz
  4253  00DB  28DD               	goto	u7621
  4254  00DC  28DE               	goto	u7620
  4255  00DD                     u7621:
  4256  00DD  28EA               	goto	l5472
  4257  00DE                     u7620:
  4258                           	
  4259  00DE                     l5468:	
  4260  00DE  3003               	movlw	03h
  4261  00DF  0628               	xorwf	(CheckKeyPad@rowNo),w
  4262  00E0  0429               	iorwf	(CheckKeyPad@rowNo+1),w
  4263  00E1  1D03               	skipz
  4264  00E2  28E4               	goto	u7631
  4265  00E3  28E5               	goto	u7630
  4266  00E4                     u7631:
  4267  00E4  28EA               	goto	l5472
  4268  00E5                     u7630:
  4269                           	
  4270  00E5                     l5470:	
  4271  00E5  3033               	movlw	(033h)
  4272  00E6  00A4               	movwf	(??_CheckKeyPad+0)+0
  4273  00E7  0824               	movf	(??_CheckKeyPad+0)+0,w
  4274  00E8  00A5               	movwf	(CheckKeyPad@charactor)
  4275  00E9  29F5               	goto	l907
  4276                           	line	178
  4277                           	
  4278  00EA                     l912:	
  4279                           	
  4280  00EA                     l5472:	
  4281                           ;Automated Solar Panel Orientation Setter.c: 178: else if(colomnNo==1 && rowNo == 4) cha
                                 ractor = 'A';
  4282  00EA  3001               	movlw	01h
  4283  00EB  0626               	xorwf	(CheckKeyPad@colomnNo),w
  4284  00EC  0427               	iorwf	(CheckKeyPad@colomnNo+1),w
  4285  00ED  1D03               	skipz
  4286  00EE  28F0               	goto	u7641
  4287  00EF  28F1               	goto	u7640
  4288  00F0                     u7641:
  4289  00F0  28FD               	goto	l5478
  4290  00F1                     u7640:
  4291                           	
  4292  00F1                     l5474:	
  4293  00F1  3004               	movlw	04h
  4294  00F2  0628               	xorwf	(CheckKeyPad@rowNo),w
  4295  00F3  0429               	iorwf	(CheckKeyPad@rowNo+1),w
  4296  00F4  1D03               	skipz
  4297  00F5  28F7               	goto	u7651
  4298  00F6  28F8               	goto	u7650
  4299  00F7                     u7651:
  4300  00F7  28FD               	goto	l5478
  4301  00F8                     u7650:
  4302                           	
  4303  00F8                     l5476:	
  4304  00F8  3041               	movlw	(041h)
  4305  00F9  00A4               	movwf	(??_CheckKeyPad+0)+0
  4306  00FA  0824               	movf	(??_CheckKeyPad+0)+0,w
  4307  00FB  00A5               	movwf	(CheckKeyPad@charactor)
  4308  00FC  29F5               	goto	l907
  4309                           	line	180
  4310                           	
  4311  00FD                     l914:	
  4312                           	
  4313  00FD                     l5478:	
  4314                           ;Automated Solar Panel Orientation Setter.c: 180: else if(colomnNo==2 && rowNo == 1) cha
                                 ractor = '4';
  4315  00FD  3002               	movlw	02h
  4316  00FE  0626               	xorwf	(CheckKeyPad@colomnNo),w
  4317  00FF  0427               	iorwf	(CheckKeyPad@colomnNo+1),w
  4318  0100  1D03               	skipz
  4319  0101  2903               	goto	u7661
  4320  0102  2904               	goto	u7660
  4321  0103                     u7661:
  4322  0103  2910               	goto	l5484
  4323  0104                     u7660:
  4324                           	
  4325  0104                     l5480:	
  4326  0104  3001               	movlw	01h
  4327  0105  0628               	xorwf	(CheckKeyPad@rowNo),w
  4328  0106  0429               	iorwf	(CheckKeyPad@rowNo+1),w
  4329  0107  1D03               	skipz
  4330  0108  290A               	goto	u7671
  4331  0109  290B               	goto	u7670
  4332  010A                     u7671:
  4333  010A  2910               	goto	l5484
  4334  010B                     u7670:
  4335                           	
  4336  010B                     l5482:	
  4337  010B  3034               	movlw	(034h)
  4338  010C  00A4               	movwf	(??_CheckKeyPad+0)+0
  4339  010D  0824               	movf	(??_CheckKeyPad+0)+0,w
  4340  010E  00A5               	movwf	(CheckKeyPad@charactor)
  4341  010F  29F5               	goto	l907
  4342                           	line	181
  4343                           	
  4344  0110                     l916:	
  4345                           	
  4346  0110                     l5484:	
  4347                           ;Automated Solar Panel Orientation Setter.c: 181: else if(colomnNo==2 && rowNo == 2) cha
                                 ractor = '5';
  4348  0110  3002               	movlw	02h
  4349  0111  0626               	xorwf	(CheckKeyPad@colomnNo),w
  4350  0112  0427               	iorwf	(CheckKeyPad@colomnNo+1),w
  4351  0113  1D03               	skipz
  4352  0114  2916               	goto	u7681
  4353  0115  2917               	goto	u7680
  4354  0116                     u7681:
  4355  0116  2923               	goto	l5490
  4356  0117                     u7680:
  4357                           	
  4358  0117                     l5486:	
  4359  0117  3002               	movlw	02h
  4360  0118  0628               	xorwf	(CheckKeyPad@rowNo),w
  4361  0119  0429               	iorwf	(CheckKeyPad@rowNo+1),w
  4362  011A  1D03               	skipz
  4363  011B  291D               	goto	u7691
  4364  011C  291E               	goto	u7690
  4365  011D                     u7691:
  4366  011D  2923               	goto	l5490
  4367  011E                     u7690:
  4368                           	
  4369  011E                     l5488:	
  4370  011E  3035               	movlw	(035h)
  4371  011F  00A4               	movwf	(??_CheckKeyPad+0)+0
  4372  0120  0824               	movf	(??_CheckKeyPad+0)+0,w
  4373  0121  00A5               	movwf	(CheckKeyPad@charactor)
  4374  0122  29F5               	goto	l907
  4375                           	line	182
  4376                           	
  4377  0123                     l918:	
  4378                           	
  4379  0123                     l5490:	
  4380                           ;Automated Solar Panel Orientation Setter.c: 182: else if(colomnNo==2 && rowNo == 3) cha
                                 ractor = '6';
  4381  0123  3002               	movlw	02h
  4382  0124  0626               	xorwf	(CheckKeyPad@colomnNo),w
  4383  0125  0427               	iorwf	(CheckKeyPad@colomnNo+1),w
  4384  0126  1D03               	skipz
  4385  0127  2929               	goto	u7701
  4386  0128  292A               	goto	u7700
  4387  0129                     u7701:
  4388  0129  2936               	goto	l5496
  4389  012A                     u7700:
  4390                           	
  4391  012A                     l5492:	
  4392  012A  3003               	movlw	03h
  4393  012B  0628               	xorwf	(CheckKeyPad@rowNo),w
  4394  012C  0429               	iorwf	(CheckKeyPad@rowNo+1),w
  4395  012D  1D03               	skipz
  4396  012E  2930               	goto	u7711
  4397  012F  2931               	goto	u7710
  4398  0130                     u7711:
  4399  0130  2936               	goto	l5496
  4400  0131                     u7710:
  4401                           	
  4402  0131                     l5494:	
  4403  0131  3036               	movlw	(036h)
  4404  0132  00A4               	movwf	(??_CheckKeyPad+0)+0
  4405  0133  0824               	movf	(??_CheckKeyPad+0)+0,w
  4406  0134  00A5               	movwf	(CheckKeyPad@charactor)
  4407  0135  29F5               	goto	l907
  4408                           	line	183
  4409                           	
  4410  0136                     l920:	
  4411                           	
  4412  0136                     l5496:	
  4413                           ;Automated Solar Panel Orientation Setter.c: 183: else if(colomnNo==2 && rowNo == 4) cha
                                 ractor = 'B';
  4414  0136  3002               	movlw	02h
  4415  0137  0626               	xorwf	(CheckKeyPad@colomnNo),w
  4416  0138  0427               	iorwf	(CheckKeyPad@colomnNo+1),w
  4417  0139  1D03               	skipz
  4418  013A  293C               	goto	u7721
  4419  013B  293D               	goto	u7720
  4420  013C                     u7721:
  4421  013C  2949               	goto	l5502
  4422  013D                     u7720:
  4423                           	
  4424  013D                     l5498:	
  4425  013D  3004               	movlw	04h
  4426  013E  0628               	xorwf	(CheckKeyPad@rowNo),w
  4427  013F  0429               	iorwf	(CheckKeyPad@rowNo+1),w
  4428  0140  1D03               	skipz
  4429  0141  2943               	goto	u7731
  4430  0142  2944               	goto	u7730
  4431  0143                     u7731:
  4432  0143  2949               	goto	l5502
  4433  0144                     u7730:
  4434                           	
  4435  0144                     l5500:	
  4436  0144  3042               	movlw	(042h)
  4437  0145  00A4               	movwf	(??_CheckKeyPad+0)+0
  4438  0146  0824               	movf	(??_CheckKeyPad+0)+0,w
  4439  0147  00A5               	movwf	(CheckKeyPad@charactor)
  4440  0148  29F5               	goto	l907
  4441                           	line	185
  4442                           	
  4443  0149                     l922:	
  4444                           	
  4445  0149                     l5502:	
  4446                           ;Automated Solar Panel Orientation Setter.c: 185: else if(colomnNo==3 && rowNo == 1) cha
                                 ractor = '7';
  4447  0149  3003               	movlw	03h
  4448  014A  0626               	xorwf	(CheckKeyPad@colomnNo),w
  4449  014B  0427               	iorwf	(CheckKeyPad@colomnNo+1),w
  4450  014C  1D03               	skipz
  4451  014D  294F               	goto	u7741
  4452  014E  2950               	goto	u7740
  4453  014F                     u7741:
  4454  014F  295C               	goto	l5508
  4455  0150                     u7740:
  4456                           	
  4457  0150                     l5504:	
  4458  0150  3001               	movlw	01h
  4459  0151  0628               	xorwf	(CheckKeyPad@rowNo),w
  4460  0152  0429               	iorwf	(CheckKeyPad@rowNo+1),w
  4461  0153  1D03               	skipz
  4462  0154  2956               	goto	u7751
  4463  0155  2957               	goto	u7750
  4464  0156                     u7751:
  4465  0156  295C               	goto	l5508
  4466  0157                     u7750:
  4467                           	
  4468  0157                     l5506:	
  4469  0157  3037               	movlw	(037h)
  4470  0158  00A4               	movwf	(??_CheckKeyPad+0)+0
  4471  0159  0824               	movf	(??_CheckKeyPad+0)+0,w
  4472  015A  00A5               	movwf	(CheckKeyPad@charactor)
  4473  015B  29F5               	goto	l907
  4474                           	line	186
  4475                           	
  4476  015C                     l924:	
  4477                           	
  4478  015C                     l5508:	
  4479                           ;Automated Solar Panel Orientation Setter.c: 186: else if(colomnNo==3 && rowNo == 2) cha
                                 ractor = '8';
  4480  015C  3003               	movlw	03h
  4481  015D  0626               	xorwf	(CheckKeyPad@colomnNo),w
  4482  015E  0427               	iorwf	(CheckKeyPad@colomnNo+1),w
  4483  015F  1D03               	skipz
  4484  0160  2962               	goto	u7761
  4485  0161  2963               	goto	u7760
  4486  0162                     u7761:
  4487  0162  296F               	goto	l5514
  4488  0163                     u7760:
  4489                           	
  4490  0163                     l5510:	
  4491  0163  3002               	movlw	02h
  4492  0164  0628               	xorwf	(CheckKeyPad@rowNo),w
  4493  0165  0429               	iorwf	(CheckKeyPad@rowNo+1),w
  4494  0166  1D03               	skipz
  4495  0167  2969               	goto	u7771
  4496  0168  296A               	goto	u7770
  4497  0169                     u7771:
  4498  0169  296F               	goto	l5514
  4499  016A                     u7770:
  4500                           	
  4501  016A                     l5512:	
  4502  016A  3038               	movlw	(038h)
  4503  016B  00A4               	movwf	(??_CheckKeyPad+0)+0
  4504  016C  0824               	movf	(??_CheckKeyPad+0)+0,w
  4505  016D  00A5               	movwf	(CheckKeyPad@charactor)
  4506  016E  29F5               	goto	l907
  4507                           	line	187
  4508                           	
  4509  016F                     l926:	
  4510                           	
  4511  016F                     l5514:	
  4512                           ;Automated Solar Panel Orientation Setter.c: 187: else if(colomnNo==3 && rowNo == 3) cha
                                 ractor = '9';
  4513  016F  3003               	movlw	03h
  4514  0170  0626               	xorwf	(CheckKeyPad@colomnNo),w
  4515  0171  0427               	iorwf	(CheckKeyPad@colomnNo+1),w
  4516  0172  1D03               	skipz
  4517  0173  2975               	goto	u7781
  4518  0174  2976               	goto	u7780
  4519  0175                     u7781:
  4520  0175  2982               	goto	l5520
  4521  0176                     u7780:
  4522                           	
  4523  0176                     l5516:	
  4524  0176  3003               	movlw	03h
  4525  0177  0628               	xorwf	(CheckKeyPad@rowNo),w
  4526  0178  0429               	iorwf	(CheckKeyPad@rowNo+1),w
  4527  0179  1D03               	skipz
  4528  017A  297C               	goto	u7791
  4529  017B  297D               	goto	u7790
  4530  017C                     u7791:
  4531  017C  2982               	goto	l5520
  4532  017D                     u7790:
  4533                           	
  4534  017D                     l5518:	
  4535  017D  3039               	movlw	(039h)
  4536  017E  00A4               	movwf	(??_CheckKeyPad+0)+0
  4537  017F  0824               	movf	(??_CheckKeyPad+0)+0,w
  4538  0180  00A5               	movwf	(CheckKeyPad@charactor)
  4539  0181  29F5               	goto	l907
  4540                           	line	188
  4541                           	
  4542  0182                     l928:	
  4543                           	
  4544  0182                     l5520:	
  4545                           ;Automated Solar Panel Orientation Setter.c: 188: else if(colomnNo==3 && rowNo == 4) cha
                                 ractor = 'C';
  4546  0182  3003               	movlw	03h
  4547  0183  0626               	xorwf	(CheckKeyPad@colomnNo),w
  4548  0184  0427               	iorwf	(CheckKeyPad@colomnNo+1),w
  4549  0185  1D03               	skipz
  4550  0186  2988               	goto	u7801
  4551  0187  2989               	goto	u7800
  4552  0188                     u7801:
  4553  0188  2995               	goto	l5526
  4554  0189                     u7800:
  4555                           	
  4556  0189                     l5522:	
  4557  0189  3004               	movlw	04h
  4558  018A  0628               	xorwf	(CheckKeyPad@rowNo),w
  4559  018B  0429               	iorwf	(CheckKeyPad@rowNo+1),w
  4560  018C  1D03               	skipz
  4561  018D  298F               	goto	u7811
  4562  018E  2990               	goto	u7810
  4563  018F                     u7811:
  4564  018F  2995               	goto	l5526
  4565  0190                     u7810:
  4566                           	
  4567  0190                     l5524:	
  4568  0190  3043               	movlw	(043h)
  4569  0191  00A4               	movwf	(??_CheckKeyPad+0)+0
  4570  0192  0824               	movf	(??_CheckKeyPad+0)+0,w
  4571  0193  00A5               	movwf	(CheckKeyPad@charactor)
  4572  0194  29F5               	goto	l907
  4573                           	line	190
  4574                           	
  4575  0195                     l930:	
  4576                           	
  4577  0195                     l5526:	
  4578                           ;Automated Solar Panel Orientation Setter.c: 190: else if(colomnNo==4 && rowNo == 1) cha
                                 ractor = '*';
  4579  0195  3004               	movlw	04h
  4580  0196  0626               	xorwf	(CheckKeyPad@colomnNo),w
  4581  0197  0427               	iorwf	(CheckKeyPad@colomnNo+1),w
  4582  0198  1D03               	skipz
  4583  0199  299B               	goto	u7821
  4584  019A  299C               	goto	u7820
  4585  019B                     u7821:
  4586  019B  29A8               	goto	l5532
  4587  019C                     u7820:
  4588                           	
  4589  019C                     l5528:	
  4590  019C  3001               	movlw	01h
  4591  019D  0628               	xorwf	(CheckKeyPad@rowNo),w
  4592  019E  0429               	iorwf	(CheckKeyPad@rowNo+1),w
  4593  019F  1D03               	skipz
  4594  01A0  29A2               	goto	u7831
  4595  01A1  29A3               	goto	u7830
  4596  01A2                     u7831:
  4597  01A2  29A8               	goto	l5532
  4598  01A3                     u7830:
  4599                           	
  4600  01A3                     l5530:	
  4601  01A3  302A               	movlw	(02Ah)
  4602  01A4  00A4               	movwf	(??_CheckKeyPad+0)+0
  4603  01A5  0824               	movf	(??_CheckKeyPad+0)+0,w
  4604  01A6  00A5               	movwf	(CheckKeyPad@charactor)
  4605  01A7  29F5               	goto	l907
  4606                           	line	191
  4607                           	
  4608  01A8                     l932:	
  4609                           	
  4610  01A8                     l5532:	
  4611                           ;Automated Solar Panel Orientation Setter.c: 191: else if(colomnNo==4 && rowNo == 2) cha
                                 ractor = '0';
  4612  01A8  3004               	movlw	04h
  4613  01A9  0626               	xorwf	(CheckKeyPad@colomnNo),w
  4614  01AA  0427               	iorwf	(CheckKeyPad@colomnNo+1),w
  4615  01AB  1D03               	skipz
  4616  01AC  29AE               	goto	u7841
  4617  01AD  29AF               	goto	u7840
  4618  01AE                     u7841:
  4619  01AE  29BB               	goto	l5538
  4620  01AF                     u7840:
  4621                           	
  4622  01AF                     l5534:	
  4623  01AF  3002               	movlw	02h
  4624  01B0  0628               	xorwf	(CheckKeyPad@rowNo),w
  4625  01B1  0429               	iorwf	(CheckKeyPad@rowNo+1),w
  4626  01B2  1D03               	skipz
  4627  01B3  29B5               	goto	u7851
  4628  01B4  29B6               	goto	u7850
  4629  01B5                     u7851:
  4630  01B5  29BB               	goto	l5538
  4631  01B6                     u7850:
  4632                           	
  4633  01B6                     l5536:	
  4634  01B6  3030               	movlw	(030h)
  4635  01B7  00A4               	movwf	(??_CheckKeyPad+0)+0
  4636  01B8  0824               	movf	(??_CheckKeyPad+0)+0,w
  4637  01B9  00A5               	movwf	(CheckKeyPad@charactor)
  4638  01BA  29F5               	goto	l907
  4639                           	line	192
  4640                           	
  4641  01BB                     l934:	
  4642                           	
  4643  01BB                     l5538:	
  4644                           ;Automated Solar Panel Orientation Setter.c: 192: else if(colomnNo==4 && rowNo == 3) cha
                                 ractor = '#';
  4645  01BB  3004               	movlw	04h
  4646  01BC  0626               	xorwf	(CheckKeyPad@colomnNo),w
  4647  01BD  0427               	iorwf	(CheckKeyPad@colomnNo+1),w
  4648  01BE  1D03               	skipz
  4649  01BF  29C1               	goto	u7861
  4650  01C0  29C2               	goto	u7860
  4651  01C1                     u7861:
  4652  01C1  29CE               	goto	l5544
  4653  01C2                     u7860:
  4654                           	
  4655  01C2                     l5540:	
  4656  01C2  3003               	movlw	03h
  4657  01C3  0628               	xorwf	(CheckKeyPad@rowNo),w
  4658  01C4  0429               	iorwf	(CheckKeyPad@rowNo+1),w
  4659  01C5  1D03               	skipz
  4660  01C6  29C8               	goto	u7871
  4661  01C7  29C9               	goto	u7870
  4662  01C8                     u7871:
  4663  01C8  29CE               	goto	l5544
  4664  01C9                     u7870:
  4665                           	
  4666  01C9                     l5542:	
  4667  01C9  3023               	movlw	(023h)
  4668  01CA  00A4               	movwf	(??_CheckKeyPad+0)+0
  4669  01CB  0824               	movf	(??_CheckKeyPad+0)+0,w
  4670  01CC  00A5               	movwf	(CheckKeyPad@charactor)
  4671  01CD  29F5               	goto	l907
  4672                           	line	193
  4673                           	
  4674  01CE                     l936:	
  4675                           	
  4676  01CE                     l5544:	
  4677                           ;Automated Solar Panel Orientation Setter.c: 193: else if(colomnNo==4 && rowNo == 4) cha
                                 ractor = 'D';
  4678  01CE  3004               	movlw	04h
  4679  01CF  0626               	xorwf	(CheckKeyPad@colomnNo),w
  4680  01D0  0427               	iorwf	(CheckKeyPad@colomnNo+1),w
  4681  01D1  1D03               	skipz
  4682  01D2  29D4               	goto	u7881
  4683  01D3  29D5               	goto	u7880
  4684  01D4                     u7881:
  4685  01D4  29E1               	goto	l5550
  4686  01D5                     u7880:
  4687                           	
  4688  01D5                     l5546:	
  4689  01D5  3004               	movlw	04h
  4690  01D6  0628               	xorwf	(CheckKeyPad@rowNo),w
  4691  01D7  0429               	iorwf	(CheckKeyPad@rowNo+1),w
  4692  01D8  1D03               	skipz
  4693  01D9  29DB               	goto	u7891
  4694  01DA  29DC               	goto	u7890
  4695  01DB                     u7891:
  4696  01DB  29E1               	goto	l5550
  4697  01DC                     u7890:
  4698                           	
  4699  01DC                     l5548:	
  4700  01DC  3044               	movlw	(044h)
  4701  01DD  00A4               	movwf	(??_CheckKeyPad+0)+0
  4702  01DE  0824               	movf	(??_CheckKeyPad+0)+0,w
  4703  01DF  00A5               	movwf	(CheckKeyPad@charactor)
  4704  01E0  29F5               	goto	l907
  4705                           	line	195
  4706                           	
  4707  01E1                     l938:	
  4708                           	
  4709  01E1                     l5550:	
  4710                           ;Automated Solar Panel Orientation Setter.c: 195: else charactor = '@';
  4711  01E1  3040               	movlw	(040h)
  4712  01E2  00A4               	movwf	(??_CheckKeyPad+0)+0
  4713  01E3  0824               	movf	(??_CheckKeyPad+0)+0,w
  4714  01E4  00A5               	movwf	(CheckKeyPad@charactor)
  4715  01E5  29F5               	goto	l907
  4716                           	
  4717  01E6                     l939:	
  4718  01E6  29F5               	goto	l907
  4719                           	
  4720  01E7                     l937:	
  4721  01E7  29F5               	goto	l907
  4722                           	
  4723  01E8                     l935:	
  4724  01E8  29F5               	goto	l907
  4725                           	
  4726  01E9                     l933:	
  4727  01E9  29F5               	goto	l907
  4728                           	
  4729  01EA                     l931:	
  4730  01EA  29F5               	goto	l907
  4731                           	
  4732  01EB                     l929:	
  4733  01EB  29F5               	goto	l907
  4734                           	
  4735  01EC                     l927:	
  4736  01EC  29F5               	goto	l907
  4737                           	
  4738  01ED                     l925:	
  4739  01ED  29F5               	goto	l907
  4740                           	
  4741  01EE                     l923:	
  4742  01EE  29F5               	goto	l907
  4743                           	
  4744  01EF                     l921:	
  4745  01EF  29F5               	goto	l907
  4746                           	
  4747  01F0                     l919:	
  4748  01F0  29F5               	goto	l907
  4749                           	
  4750  01F1                     l917:	
  4751  01F1  29F5               	goto	l907
  4752                           	
  4753  01F2                     l915:	
  4754  01F2  29F5               	goto	l907
  4755                           	
  4756  01F3                     l913:	
  4757  01F3  29F5               	goto	l907
  4758                           	
  4759  01F4                     l911:	
  4760  01F4  29F5               	goto	l907
  4761                           	
  4762  01F5                     l909:	
  4763                           	line	196
  4764                           	
  4765  01F5                     l907:	
  4766                           	line	197
  4767                           ;Automated Solar Panel Orientation Setter.c: 196: }
  4768                           ;Automated Solar Panel Orientation Setter.c: 197: if(rowNo==1) while(RD2==0);
  4769  01F5  3001               	movlw	01h
  4770  01F6  0628               	xorwf	(CheckKeyPad@rowNo),w
  4771  01F7  0429               	iorwf	(CheckKeyPad@rowNo+1),w
  4772  01F8  1D03               	skipz
  4773  01F9  29FB               	goto	u7901
  4774  01FA  29FC               	goto	u7900
  4775  01FB                     u7901:
  4776  01FB  2A04               	goto	l5554
  4777  01FC                     u7900:
  4778  01FC  29FE               	goto	l941
  4779                           	
  4780  01FD                     l5552:	
  4781  01FD  29FE               	goto	l941
  4782                           	
  4783  01FE                     l942:	
  4784                           	
  4785  01FE                     l941:	
  4786  01FE  1D08               	btfss	(66/8),(66)&7
  4787  01FF  2A01               	goto	u7911
  4788  0200  2A02               	goto	u7910
  4789  0201                     u7911:
  4790  0201  29FE               	goto	l941
  4791  0202                     u7910:
  4792  0202  2A34               	goto	l5566
  4793                           	
  4794  0203                     l943:	
  4795  0203  2A34               	goto	l5566
  4796                           	line	198
  4797                           	
  4798  0204                     l940:	
  4799                           	
  4800  0204                     l5554:	
  4801                           ;Automated Solar Panel Orientation Setter.c: 198: else if(rowNo==2) while(RD7==0);
  4802  0204  3002               	movlw	02h
  4803  0205  0628               	xorwf	(CheckKeyPad@rowNo),w
  4804  0206  0429               	iorwf	(CheckKeyPad@rowNo+1),w
  4805  0207  1D03               	skipz
  4806  0208  2A0A               	goto	u7921
  4807  0209  2A0B               	goto	u7920
  4808  020A                     u7921:
  4809  020A  2A13               	goto	l5558
  4810  020B                     u7920:
  4811  020B  2A0D               	goto	l946
  4812                           	
  4813  020C                     l5556:	
  4814  020C  2A0D               	goto	l946
  4815                           	
  4816  020D                     l947:	
  4817                           	
  4818  020D                     l946:	
  4819  020D  1F88               	btfss	(71/8),(71)&7
  4820  020E  2A10               	goto	u7931
  4821  020F  2A11               	goto	u7930
  4822  0210                     u7931:
  4823  0210  2A0D               	goto	l946
  4824  0211                     u7930:
  4825  0211  2A34               	goto	l5566
  4826                           	
  4827  0212                     l948:	
  4828  0212  2A34               	goto	l5566
  4829                           	line	199
  4830                           	
  4831  0213                     l945:	
  4832                           	
  4833  0213                     l5558:	
  4834                           ;Automated Solar Panel Orientation Setter.c: 199: else if(rowNo==3) while(RD3==0);
  4835  0213  3003               	movlw	03h
  4836  0214  0628               	xorwf	(CheckKeyPad@rowNo),w
  4837  0215  0429               	iorwf	(CheckKeyPad@rowNo+1),w
  4838  0216  1D03               	skipz
  4839  0217  2A19               	goto	u7941
  4840  0218  2A1A               	goto	u7940
  4841  0219                     u7941:
  4842  0219  2A22               	goto	l5562
  4843  021A                     u7940:
  4844  021A  2A1C               	goto	l951
  4845                           	
  4846  021B                     l5560:	
  4847  021B  2A1C               	goto	l951
  4848                           	
  4849  021C                     l952:	
  4850                           	
  4851  021C                     l951:	
  4852  021C  1D88               	btfss	(67/8),(67)&7
  4853  021D  2A1F               	goto	u7951
  4854  021E  2A20               	goto	u7950
  4855  021F                     u7951:
  4856  021F  2A1C               	goto	l951
  4857  0220                     u7950:
  4858  0220  2A34               	goto	l5566
  4859                           	
  4860  0221                     l953:	
  4861  0221  2A34               	goto	l5566
  4862                           	line	200
  4863                           	
  4864  0222                     l950:	
  4865                           	
  4866  0222                     l5562:	
  4867                           ;Automated Solar Panel Orientation Setter.c: 200: else if(rowNo==4) while(RD6==0);
  4868  0222  3004               	movlw	04h
  4869  0223  0628               	xorwf	(CheckKeyPad@rowNo),w
  4870  0224  0429               	iorwf	(CheckKeyPad@rowNo+1),w
  4871  0225  1D03               	skipz
  4872  0226  2A28               	goto	u7961
  4873  0227  2A29               	goto	u7960
  4874  0228                     u7961:
  4875  0228  2A34               	goto	l5566
  4876  0229                     u7960:
  4877  0229  2A2B               	goto	l956
  4878                           	
  4879  022A                     l5564:	
  4880  022A  2A2B               	goto	l956
  4881                           	
  4882  022B                     l957:	
  4883                           	
  4884  022B                     l956:	
  4885  022B  1F08               	btfss	(70/8),(70)&7
  4886  022C  2A2E               	goto	u7971
  4887  022D  2A2F               	goto	u7970
  4888  022E                     u7971:
  4889  022E  2A2B               	goto	l956
  4890  022F                     u7970:
  4891  022F  2A34               	goto	l5566
  4892                           	
  4893  0230                     l958:	
  4894  0230  2A34               	goto	l5566
  4895                           	
  4896  0231                     l955:	
  4897  0231  2A34               	goto	l5566
  4898                           	line	201
  4899                           	
  4900  0232                     l954:	
  4901  0232  2A34               	goto	l5566
  4902                           	
  4903  0233                     l949:	
  4904  0233  2A34               	goto	l5566
  4905                           	
  4906  0234                     l944:	
  4907                           	
  4908  0234                     l5566:	
  4909                           ;Automated Solar Panel Orientation Setter.c: 201: return charactor;
  4910  0234  0825               	movf	(CheckKeyPad@charactor),w
  4911  0235  2A36               	goto	l959
  4912                           	
  4913  0236                     l5568:	
  4914                           	line	202
  4915                           	
  4916  0236                     l959:	
  4917  0236  0008               	return
  4918                           	opt stack 0
  4919                           GLOBAL	__end_of_CheckKeyPad
  4920  0237                     	__end_of_CheckKeyPad:
  4921 ;; =============== function _CheckKeyPad ends ============
  4922                           
  4923                           	signat	_CheckKeyPad,89
  4924                           	global	_position
  4925                           psect	text904,local,class=CODE,delta=2
  4926                           global __ptext904
  4927  17C1                     __ptext904:
  4928                           
  4929 ;; *************** function _position *****************
  4930 ;; Defined at:
  4931 ;;		line 201 in file "D:\ELECTRONIC\2016\1. Automated Solar Panel Orientation Setter\Firmware\ver2\lcdV2.h"
  4932 ;; Parameters:    Size  Location     Type
  4933 ;;  row             1    wreg     unsigned char 
  4934 ;;  collum          1    2[BANK0 ] unsigned char 
  4935 ;; Auto vars:     Size  Location     Type
  4936 ;;  row             1    6[BANK0 ] unsigned char 
  4937 ;;  post            1    5[BANK0 ] unsigned char 
  4938 ;; Return value:  Size  Location     Type
  4939 ;;		None               void
  4940 ;; Registers used:
  4941 ;;		wreg, status,2, status,0, pclath, cstack
  4942 ;; Tracked objects:
  4943 ;;		On entry : 0/0
  4944 ;;		On exit  : 0/0
  4945 ;;		Unchanged: 0/0
  4946 ;; Data sizes:     COMMON   BANK0   BANK1   BANK3   BANK2
  4947 ;;      Params:         0       1       0       0       0
  4948 ;;      Locals:         0       2       0       0       0
  4949 ;;      Temps:          0       2       0       0       0
  4950 ;;      Totals:         0       5       0       0       0
  4951 ;;Total ram usage:        5 bytes
  4952 ;; Hardware stack levels used:    1
  4953 ;; Hardware stack levels required when called:    4
  4954 ;; This function calls:
  4955 ;;		_lcd_add
  4956 ;; This function is called by:
  4957 ;;		_main
  4958 ;; This function uses a non-reentrant model
  4959 ;;
  4960                           psect	text904
  4961                           	file	"D:\ELECTRONIC\2016\1. Automated Solar Panel Orientation Setter\Firmware\ver2\lcdV
                                 2.h"
  4962                           	line	201
  4963                           	global	__size_of_position
  4964  003F                     	__size_of_position	equ	__end_of_position-_position
  4965                           	
  4966  17C1                     _position:	
  4967                           	opt	stack 3
  4968                           ; Regs used in _position: [wreg+status,2+status,0+pclath+cstack]
  4969                           ;position@row stored from wreg
  4970                           	line	203
  4971  17C1  1283               	bcf	status, 5	;RP0=0, select bank0
  4972  17C2  1303               	bcf	status, 6	;RP1=0, select bank0
  4973  17C3  00A6               	movwf	(position@row)
  4974                           	
  4975  17C4                     l5412:	
  4976                           ;lcdV2.h: 202: char post ;
  4977                           ;lcdV2.h: 203: if( row == 1 ) row = 128;
  4978  17C4  0826               	movf	(position@row),w
  4979  17C5  3A01               	xorlw	01h
  4980  17C6  1D03               	skipz
  4981  17C7  2FC9               	goto	u7551
  4982  17C8  2FCA               	goto	u7550
  4983  17C9                     u7551:
  4984  17C9  2FCE               	goto	l812
  4985  17CA                     u7550:
  4986                           	
  4987  17CA                     l5414:	
  4988  17CA  3080               	movlw	(080h)
  4989  17CB  00A3               	movwf	(??_position+0)+0
  4990  17CC  0823               	movf	(??_position+0)+0,w
  4991  17CD  00A6               	movwf	(position@row)
  4992                           	
  4993  17CE                     l812:	
  4994                           	line	204
  4995                           ;lcdV2.h: 204: if( row == 2 ) row = 192;
  4996  17CE  0826               	movf	(position@row),w
  4997  17CF  3A02               	xorlw	02h
  4998  17D0  1D03               	skipz
  4999  17D1  2FD3               	goto	u7561
  5000  17D2  2FD4               	goto	u7560
  5001  17D3                     u7561:
  5002  17D3  2FD9               	goto	l5418
  5003  17D4                     u7560:
  5004                           	
  5005  17D4                     l5416:	
  5006  17D4  30C0               	movlw	(0C0h)
  5007  17D5  00A3               	movwf	(??_position+0)+0
  5008  17D6  0823               	movf	(??_position+0)+0,w
  5009  17D7  00A6               	movwf	(position@row)
  5010  17D8  2FD9               	goto	l5418
  5011                           	
  5012  17D9                     l813:	
  5013                           	line	205
  5014                           	
  5015  17D9                     l5418:	
  5016                           ;lcdV2.h: 205: post = row + collum - 1;
  5017  17D9  0822               	movf	(position@collum),w
  5018  17DA  0726               	addwf	(position@row),w
  5019  17DB  3EFF               	addlw	0FFh
  5020  17DC  00A3               	movwf	(??_position+0)+0
  5021  17DD  0823               	movf	(??_position+0)+0,w
  5022  17DE  00A5               	movwf	(position@post)
  5023                           	line	206
  5024                           	
  5025  17DF                     l5420:	
  5026                           ;lcdV2.h: 206: RC2 = 0;
  5027  17DF  1107               	bcf	(58/8),(58)&7
  5028                           	line	207
  5029                           	
  5030  17E0                     l5422:	
  5031                           ;lcdV2.h: 207: _delay(20);
  5032                           	opt asmopt_off
  5033  17E0  3006               movlw	6
  5034  17E1  00A3               movwf	(??_position+0)+0,f
  5035  17E2                     u8947:
  5036  17E2  0BA3               decfsz	(??_position+0)+0,f
  5037  17E3  2FE2               	goto	u8947
  5038  17E4  0064               	clrwdt
  5039                           opt asmopt_on
  5040                           
  5041                           	line	208
  5042                           	
  5043  17E5                     l5424:	
  5044                           ;lcdV2.h: 208: lcd_data = post ;
  5045  17E5  1283               	bcf	status, 5	;RP0=0, select bank0
  5046  17E6  1303               	bcf	status, 6	;RP1=0, select bank0
  5047  17E7  0825               	movf	(position@post),w
  5048  17E8  00A3               	movwf	(??_position+0)+0
  5049  17E9  0823               	movf	(??_position+0)+0,w
  5050  17EA  00E0               	movwf	(_lcd_data)
  5051                           	line	209
  5052                           	
  5053  17EB                     l5426:	
  5054                           ;lcdV2.h: 209: lcd_add();
  5055  17EB  120A  158A  24C2   	fcall	_lcd_add
              160A  118A         
  5056                           	line	210
  5057                           	
  5058  17F0                     l5428:	
  5059                           ;lcdV2.h: 210: _delay((unsigned long)((10)*(4000000/4000.0)));
  5060                           	opt asmopt_off
  5061  17F0  300D               movlw	13
  5062  17F1  1283               	bcf	status, 5	;RP0=0, select bank0
  5063  17F2  1303               	bcf	status, 6	;RP1=0, select bank0
  5064  17F3  00A4               movwf	((??_position+0)+0+1),f
  5065  17F4  30FB               	movlw	251
  5066  17F5  00A3               movwf	((??_position+0)+0),f
  5067  17F6                     u8957:
  5068  17F6  0BA3               	decfsz	((??_position+0)+0),f
  5069  17F7  2FF6               	goto	u8957
  5070  17F8  0BA4               	decfsz	((??_position+0)+0+1),f
  5071  17F9  2FF6               	goto	u8957
  5072  17FA  2FFB               	nop2
  5073                           opt asmopt_on
  5074                           
  5075                           	line	211
  5076                           	
  5077  17FB                     l5430:	
  5078                           ;lcdV2.h: 211: row = 0;
  5079  17FB  1283               	bcf	status, 5	;RP0=0, select bank0
  5080  17FC  1303               	bcf	status, 6	;RP1=0, select bank0
  5081  17FD  01A6               	clrf	(position@row)
  5082                           	line	212
  5083                           	
  5084  17FE                     l5432:	
  5085                           ;lcdV2.h: 212: collum = 0;
  5086  17FE  01A2               	clrf	(position@collum)
  5087                           	line	213
  5088                           	
  5089  17FF                     l814:	
  5090  17FF  0008               	return
  5091                           	opt stack 0
  5092                           GLOBAL	__end_of_position
  5093  1800                     	__end_of_position:
  5094 ;; =============== function _position ends ============
  5095                           
  5096                           	signat	_position,8312
  5097                           	global	_clr_display
  5098                           psect	text905,local,class=CODE,delta=2
  5099                           global __ptext905
  5100  16F9                     __ptext905:
  5101                           
  5102 ;; *************** function _clr_display *****************
  5103 ;; Defined at:
  5104 ;;		line 176 in file "D:\ELECTRONIC\2016\1. Automated Solar Panel Orientation Setter\Firmware\ver2\lcdV2.h"
  5105 ;; Parameters:    Size  Location     Type
  5106 ;;		None
  5107 ;; Auto vars:     Size  Location     Type
  5108 ;;		None
  5109 ;; Return value:  Size  Location     Type
  5110 ;;		None               void
  5111 ;; Registers used:
  5112 ;;		wreg, status,2, status,0, pclath, cstack
  5113 ;; Tracked objects:
  5114 ;;		On entry : 0/0
  5115 ;;		On exit  : 0/0
  5116 ;;		Unchanged: 0/0
  5117 ;; Data sizes:     COMMON   BANK0   BANK1   BANK3   BANK2
  5118 ;;      Params:         0       0       0       0       0
  5119 ;;      Locals:         0       0       0       0       0
  5120 ;;      Temps:          0       2       0       0       0
  5121 ;;      Totals:         0       2       0       0       0
  5122 ;;Total ram usage:        2 bytes
  5123 ;; Hardware stack levels used:    1
  5124 ;; Hardware stack levels required when called:    4
  5125 ;; This function calls:
  5126 ;;		_lcd_add
  5127 ;; This function is called by:
  5128 ;;		_main
  5129 ;; This function uses a non-reentrant model
  5130 ;;
  5131                           psect	text905
  5132                           	file	"D:\ELECTRONIC\2016\1. Automated Solar Panel Orientation Setter\Firmware\ver2\lcdV
                                 2.h"
  5133                           	line	176
  5134                           	global	__size_of_clr_display
  5135  0021                     	__size_of_clr_display	equ	__end_of_clr_display-_clr_display
  5136                           	
  5137  16F9                     _clr_display:	
  5138                           	opt	stack 3
  5139                           ; Regs used in _clr_display: [wreg+status,2+status,0+pclath+cstack]
  5140                           	line	177
  5141                           	
  5142  16F9                     l5400:	
  5143                           ;lcdV2.h: 177: RC2 = 0;
  5144  16F9  1283               	bcf	status, 5	;RP0=0, select bank0
  5145  16FA  1303               	bcf	status, 6	;RP1=0, select bank0
  5146  16FB  1107               	bcf	(58/8),(58)&7
  5147                           	line	178
  5148                           	
  5149  16FC                     l5402:	
  5150                           ;lcdV2.h: 178: _delay(20);
  5151                           	opt asmopt_off
  5152  16FC  3006               movlw	6
  5153  16FD  00A2               movwf	(??_clr_display+0)+0,f
  5154  16FE                     u8967:
  5155  16FE  0BA2               decfsz	(??_clr_display+0)+0,f
  5156  16FF  2EFE               	goto	u8967
  5157  1700  0064               	clrwdt
  5158                           opt asmopt_on
  5159                           
  5160                           	line	179
  5161                           	
  5162  1701                     l5404:	
  5163                           ;lcdV2.h: 179: lcd_data = 0b00000001;
  5164  1701  1283               	bcf	status, 5	;RP0=0, select bank0
  5165  1702  1303               	bcf	status, 6	;RP1=0, select bank0
  5166  1703  01E0               	clrf	(_lcd_data)
  5167  1704  1403               	bsf	status,0
  5168  1705  0DE0               	rlf	(_lcd_data),f
  5169                           	line	180
  5170                           	
  5171  1706                     l5406:	
  5172                           ;lcdV2.h: 180: lcd_add();
  5173  1706  120A  158A  24C2   	fcall	_lcd_add
              160A  118A         
  5174                           	line	181
  5175                           	
  5176  170B                     l5408:	
  5177                           ;lcdV2.h: 181: _delay((unsigned long)((10)*(4000000/4000.0)));
  5178                           	opt asmopt_off
  5179  170B  300D               movlw	13
  5180  170C  1283               	bcf	status, 5	;RP0=0, select bank0
  5181  170D  1303               	bcf	status, 6	;RP1=0, select bank0
  5182  170E  00A3               movwf	((??_clr_display+0)+0+1),f
  5183  170F  30FB               	movlw	251
  5184  1710  00A2               movwf	((??_clr_display+0)+0),f
  5185  1711                     u8977:
  5186  1711  0BA2               	decfsz	((??_clr_display+0)+0),f
  5187  1712  2F11               	goto	u8977
  5188  1713  0BA3               	decfsz	((??_clr_display+0)+0+1),f
  5189  1714  2F11               	goto	u8977
  5190  1715  2F16               	nop2
  5191                           opt asmopt_on
  5192                           
  5193                           	line	182
  5194                           	
  5195  1716                     l5410:	
  5196                           ;lcdV2.h: 182: RC2 = 1;
  5197  1716  1283               	bcf	status, 5	;RP0=0, select bank0
  5198  1717  1303               	bcf	status, 6	;RP1=0, select bank0
  5199  1718  1507               	bsf	(58/8),(58)&7
  5200                           	line	183
  5201                           	
  5202  1719                     l804:	
  5203  1719  0008               	return
  5204                           	opt stack 0
  5205                           GLOBAL	__end_of_clr_display
  5206  171A                     	__end_of_clr_display:
  5207 ;; =============== function _clr_display ends ============
  5208                           
  5209                           	signat	_clr_display,88
  5210                           	global	_putch
  5211                           psect	text906,local,class=CODE,delta=2
  5212                           global __ptext906
  5213  169F                     __ptext906:
  5214                           
  5215 ;; *************** function _putch *****************
  5216 ;; Defined at:
  5217 ;;		line 166 in file "D:\ELECTRONIC\2016\1. Automated Solar Panel Orientation Setter\Firmware\ver2\lcdV2.h"
  5218 ;; Parameters:    Size  Location     Type
  5219 ;;  print_value     1    wreg     unsigned char 
  5220 ;; Auto vars:     Size  Location     Type
  5221 ;;  print_value     1    3[BANK0 ] unsigned char 
  5222 ;; Return value:  Size  Location     Type
  5223 ;;		None               void
  5224 ;; Registers used:
  5225 ;;		wreg, status,2, status,0, pclath, cstack
  5226 ;; Tracked objects:
  5227 ;;		On entry : 0/0
  5228 ;;		On exit  : 0/0
  5229 ;;		Unchanged: 0/0
  5230 ;; Data sizes:     COMMON   BANK0   BANK1   BANK3   BANK2
  5231 ;;      Params:         0       0       0       0       0
  5232 ;;      Locals:         0       1       0       0       0
  5233 ;;      Temps:          0       1       0       0       0
  5234 ;;      Totals:         0       2       0       0       0
  5235 ;;Total ram usage:        2 bytes
  5236 ;; Hardware stack levels used:    1
  5237 ;; Hardware stack levels required when called:    4
  5238 ;; This function calls:
  5239 ;;		_lcd_add
  5240 ;; This function is called by:
  5241 ;;		_printf
  5242 ;; This function uses a non-reentrant model
  5243 ;;
  5244                           psect	text906
  5245                           	file	"D:\ELECTRONIC\2016\1. Automated Solar Panel Orientation Setter\Firmware\ver2\lcdV
                                 2.h"
  5246                           	line	166
  5247                           	global	__size_of_putch
  5248  001B                     	__size_of_putch	equ	__end_of_putch-_putch
  5249                           	
  5250  169F                     _putch:	
  5251                           	opt	stack 2
  5252                           ; Regs used in _putch: [wreg+status,2+status,0+pclath+cstack]
  5253                           ;putch@print_value stored from wreg
  5254  169F  1283               	bcf	status, 5	;RP0=0, select bank0
  5255  16A0  1303               	bcf	status, 6	;RP1=0, select bank0
  5256  16A1  00A3               	movwf	(putch@print_value)
  5257                           	line	167
  5258                           	
  5259  16A2                     l5392:	
  5260                           ;lcdV2.h: 167: RC2 = 1;
  5261  16A2  1507               	bsf	(58/8),(58)&7
  5262                           	line	168
  5263                           	
  5264  16A3                     l5394:	
  5265                           ;lcdV2.h: 168: _delay(20);
  5266                           	opt asmopt_off
  5267  16A3  3006               movlw	6
  5268  16A4  00A2               movwf	(??_putch+0)+0,f
  5269  16A5                     u8987:
  5270  16A5  0BA2               decfsz	(??_putch+0)+0,f
  5271  16A6  2EA5               	goto	u8987
  5272  16A7  0064               	clrwdt
  5273                           opt asmopt_on
  5274                           
  5275                           	line	169
  5276                           ;lcdV2.h: 169: lcd_data = print_value;
  5277  16A8  1283               	bcf	status, 5	;RP0=0, select bank0
  5278  16A9  1303               	bcf	status, 6	;RP1=0, select bank0
  5279  16AA  0823               	movf	(putch@print_value),w
  5280  16AB  00A2               	movwf	(??_putch+0)+0
  5281  16AC  0822               	movf	(??_putch+0)+0,w
  5282  16AD  00E0               	movwf	(_lcd_data)
  5283                           	line	170
  5284                           	
  5285  16AE                     l5396:	
  5286                           ;lcdV2.h: 170: lcd_add();
  5287  16AE  120A  158A  24C2   	fcall	_lcd_add
              160A  118A         
  5288                           	line	171
  5289                           	
  5290  16B3                     l5398:	
  5291                           ;lcdV2.h: 171: _delay(100);
  5292                           	opt asmopt_off
  5293  16B3  3021               movlw	33
  5294  16B4  1283               	bcf	status, 5	;RP0=0, select bank0
  5295  16B5  1303               	bcf	status, 6	;RP1=0, select bank0
  5296  16B6  00A2               movwf	(??_putch+0)+0,f
  5297  16B7                     u8997:
  5298  16B7  0BA2               decfsz	(??_putch+0)+0,f
  5299  16B8  2EB7               	goto	u8997
  5300                           opt asmopt_on
  5301                           
  5302                           	line	172
  5303                           	
  5304  16B9                     l801:	
  5305  16B9  0008               	return
  5306                           	opt stack 0
  5307                           GLOBAL	__end_of_putch
  5308  16BA                     	__end_of_putch:
  5309 ;; =============== function _putch ends ============
  5310                           
  5311                           	signat	_putch,4216
  5312                           	global	_ColomnNo
  5313                           psect	text907,local,class=CODE,delta=2
  5314                           global __ptext907
  5315  0DBA                     __ptext907:
  5316                           
  5317 ;; *************** function _ColomnNo *****************
  5318 ;; Defined at:
  5319 ;;		line 204 in file "D:\ELECTRONIC\2016\1. Automated Solar Panel Orientation Setter\Firmware\ver2\Automated Solar Panel
        Orientation Setter.c"
  5320 ;; Parameters:    Size  Location     Type
  5321 ;;  rowNo           2    0[BANK0 ] int 
  5322 ;; Auto vars:     Size  Location     Type
  5323 ;;		None
  5324 ;; Return value:  Size  Location     Type
  5325 ;;                  2    0[BANK0 ] int 
  5326 ;; Registers used:
  5327 ;;		wreg
  5328 ;; Tracked objects:
  5329 ;;		On entry : 0/0
  5330 ;;		On exit  : 0/0
  5331 ;;		Unchanged: 0/0
  5332 ;; Data sizes:     COMMON   BANK0   BANK1   BANK3   BANK2
  5333 ;;      Params:         0       2       0       0       0
  5334 ;;      Locals:         0       0       0       0       0
  5335 ;;      Temps:          0       0       0       0       0
  5336 ;;      Totals:         0       2       0       0       0
  5337 ;;Total ram usage:        2 bytes
  5338 ;; Hardware stack levels used:    1
  5339 ;; Hardware stack levels required when called:    3
  5340 ;; This function calls:
  5341 ;;		Nothing
  5342 ;; This function is called by:
  5343 ;;		_CheckKeyPad
  5344 ;; This function uses a non-reentrant model
  5345 ;;
  5346                           psect	text907
  5347                           	file	"D:\ELECTRONIC\2016\1. Automated Solar Panel Orientation Setter\Firmware\ver2\Auto
                                 mated Solar Panel Orientation Setter.c"
  5348                           	line	204
  5349                           	global	__size_of_ColomnNo
  5350  010A                     	__size_of_ColomnNo	equ	__end_of_ColomnNo-_ColomnNo
  5351                           	
  5352  0DBA                     _ColomnNo:	
  5353                           	opt	stack 3
  5354                           ; Regs used in _ColomnNo: [wreg]
  5355                           	line	205
  5356                           	
  5357  0DBA                     l5310:	
  5358                           ;Automated Solar Panel Orientation Setter.c: 205: RC4 = 0; RD5 = 0; RC5=0; RD4=0;
  5359  0DBA  1283               	bcf	status, 5	;RP0=0, select bank0
  5360  0DBB  1303               	bcf	status, 6	;RP1=0, select bank0
  5361  0DBC  1207               	bcf	(60/8),(60)&7
  5362  0DBD  1288               	bcf	(69/8),(69)&7
  5363  0DBE  1287               	bcf	(61/8),(61)&7
  5364  0DBF  1208               	bcf	(68/8),(68)&7
  5365                           	line	206
  5366                           	
  5367  0DC0                     l5312:	
  5368                           ;Automated Solar Panel Orientation Setter.c: 206: if(rowNo==1){
  5369  0DC0  3001               	movlw	01h
  5370  0DC1  0620               	xorwf	(ColomnNo@rowNo),w
  5371  0DC2  0421               	iorwf	(ColomnNo@rowNo+1),w
  5372  0DC3  1D03               	skipz
  5373  0DC4  2DC6               	goto	u7351
  5374  0DC5  2DC7               	goto	u7350
  5375  0DC6                     u7351:
  5376  0DC6  2E00               	goto	l5332
  5377  0DC7                     u7350:
  5378                           	line	207
  5379                           	
  5380  0DC7                     l5314:	
  5381                           ;Automated Solar Panel Orientation Setter.c: 207: RC4 = 1;
  5382  0DC7  1607               	bsf	(60/8),(60)&7
  5383                           	line	208
  5384                           ;Automated Solar Panel Orientation Setter.c: 208: _delay(1);
  5385                           		opt asmopt_off
  5386  0DC8  0064               	clrwdt
  5387                           	opt asmopt_on
  5388                           
  5389                           	line	209
  5390                           ;Automated Solar Panel Orientation Setter.c: 209: if(RD2==1){
  5391  0DC9  1283               	bcf	status, 5	;RP0=0, select bank0
  5392  0DCA  1303               	bcf	status, 6	;RP1=0, select bank0
  5393  0DCB  1D08               	btfss	(66/8),(66)&7
  5394  0DCC  2DCE               	goto	u7361
  5395  0DCD  2DCF               	goto	u7360
  5396  0DCE                     u7361:
  5397  0DCE  2DD5               	goto	l963
  5398  0DCF                     u7360:
  5399                           	line	210
  5400                           	
  5401  0DCF                     l5316:	
  5402                           ;Automated Solar Panel Orientation Setter.c: 210: return 1;
  5403  0DCF  3001               	movlw	low(01h)
  5404  0DD0  00A0               	movwf	(?_ColomnNo)
  5405  0DD1  3000               	movlw	high(01h)
  5406  0DD2  00A1               	movwf	((?_ColomnNo))+1
  5407  0DD3  2EC3               	goto	l964
  5408                           	
  5409  0DD4                     l5318:	
  5410  0DD4  2EC3               	goto	l964
  5411                           	line	211
  5412                           	
  5413  0DD5                     l963:	
  5414                           	line	212
  5415                           ;Automated Solar Panel Orientation Setter.c: 211: }
  5416                           ;Automated Solar Panel Orientation Setter.c: 212: RD5 = 1;
  5417  0DD5  1688               	bsf	(69/8),(69)&7
  5418                           	line	213
  5419                           ;Automated Solar Panel Orientation Setter.c: 213: _delay(1);
  5420                           		opt asmopt_off
  5421  0DD6  0064               	clrwdt
  5422                           	opt asmopt_on
  5423                           
  5424                           	line	214
  5425                           ;Automated Solar Panel Orientation Setter.c: 214: if(RD2==1){
  5426  0DD7  1283               	bcf	status, 5	;RP0=0, select bank0
  5427  0DD8  1303               	bcf	status, 6	;RP1=0, select bank0
  5428  0DD9  1D08               	btfss	(66/8),(66)&7
  5429  0DDA  2DDC               	goto	u7371
  5430  0DDB  2DDD               	goto	u7370
  5431  0DDC                     u7371:
  5432  0DDC  2DE3               	goto	l965
  5433  0DDD                     u7370:
  5434                           	line	215
  5435                           	
  5436  0DDD                     l5320:	
  5437                           ;Automated Solar Panel Orientation Setter.c: 215: return 2;
  5438  0DDD  3002               	movlw	low(02h)
  5439  0DDE  00A0               	movwf	(?_ColomnNo)
  5440  0DDF  3000               	movlw	high(02h)
  5441  0DE0  00A1               	movwf	((?_ColomnNo))+1
  5442  0DE1  2EC3               	goto	l964
  5443                           	
  5444  0DE2                     l5322:	
  5445  0DE2  2EC3               	goto	l964
  5446                           	line	216
  5447                           	
  5448  0DE3                     l965:	
  5449                           	line	217
  5450                           ;Automated Solar Panel Orientation Setter.c: 216: }
  5451                           ;Automated Solar Panel Orientation Setter.c: 217: RC5 = 1;
  5452  0DE3  1687               	bsf	(61/8),(61)&7
  5453                           	line	218
  5454                           ;Automated Solar Panel Orientation Setter.c: 218: _delay(1);
  5455                           		opt asmopt_off
  5456  0DE4  0064               	clrwdt
  5457                           	opt asmopt_on
  5458                           
  5459                           	line	219
  5460                           ;Automated Solar Panel Orientation Setter.c: 219: if(RD2==1){
  5461  0DE5  1283               	bcf	status, 5	;RP0=0, select bank0
  5462  0DE6  1303               	bcf	status, 6	;RP1=0, select bank0
  5463  0DE7  1D08               	btfss	(66/8),(66)&7
  5464  0DE8  2DEA               	goto	u7381
  5465  0DE9  2DEB               	goto	u7380
  5466  0DEA                     u7381:
  5467  0DEA  2DF1               	goto	l966
  5468  0DEB                     u7380:
  5469                           	line	220
  5470                           	
  5471  0DEB                     l5324:	
  5472                           ;Automated Solar Panel Orientation Setter.c: 220: return 3;
  5473  0DEB  3003               	movlw	low(03h)
  5474  0DEC  00A0               	movwf	(?_ColomnNo)
  5475  0DED  3000               	movlw	high(03h)
  5476  0DEE  00A1               	movwf	((?_ColomnNo))+1
  5477  0DEF  2EC3               	goto	l964
  5478                           	
  5479  0DF0                     l5326:	
  5480  0DF0  2EC3               	goto	l964
  5481                           	line	221
  5482                           	
  5483  0DF1                     l966:	
  5484                           	line	222
  5485                           ;Automated Solar Panel Orientation Setter.c: 221: }
  5486                           ;Automated Solar Panel Orientation Setter.c: 222: RD4 = 1;
  5487  0DF1  1608               	bsf	(68/8),(68)&7
  5488                           	line	223
  5489                           ;Automated Solar Panel Orientation Setter.c: 223: _delay(1);
  5490                           		opt asmopt_off
  5491  0DF2  0064               	clrwdt
  5492                           	opt asmopt_on
  5493                           
  5494                           	line	224
  5495                           ;Automated Solar Panel Orientation Setter.c: 224: if(RD2==1){
  5496  0DF3  1283               	bcf	status, 5	;RP0=0, select bank0
  5497  0DF4  1303               	bcf	status, 6	;RP1=0, select bank0
  5498  0DF5  1D08               	btfss	(66/8),(66)&7
  5499  0DF6  2DF8               	goto	u7391
  5500  0DF7  2DF9               	goto	u7390
  5501  0DF8                     u7391:
  5502  0DF8  2EC3               	goto	l964
  5503  0DF9                     u7390:
  5504                           	line	225
  5505                           	
  5506  0DF9                     l5328:	
  5507                           ;Automated Solar Panel Orientation Setter.c: 225: return 4;
  5508  0DF9  3004               	movlw	low(04h)
  5509  0DFA  00A0               	movwf	(?_ColomnNo)
  5510  0DFB  3000               	movlw	high(04h)
  5511  0DFC  00A1               	movwf	((?_ColomnNo))+1
  5512  0DFD  2EC3               	goto	l964
  5513                           	
  5514  0DFE                     l5330:	
  5515  0DFE  2EC3               	goto	l964
  5516                           	line	226
  5517                           	
  5518  0DFF                     l967:	
  5519                           	line	227
  5520                           ;Automated Solar Panel Orientation Setter.c: 226: }
  5521                           ;Automated Solar Panel Orientation Setter.c: 227: }
  5522  0DFF  2EC3               	goto	l964
  5523                           	line	228
  5524                           	
  5525  0E00                     l962:	
  5526                           	
  5527  0E00                     l5332:	
  5528                           ;Automated Solar Panel Orientation Setter.c: 228: else if(rowNo==2){
  5529  0E00  3002               	movlw	02h
  5530  0E01  0620               	xorwf	(ColomnNo@rowNo),w
  5531  0E02  0421               	iorwf	(ColomnNo@rowNo+1),w
  5532  0E03  1D03               	skipz
  5533  0E04  2E06               	goto	u7401
  5534  0E05  2E07               	goto	u7400
  5535  0E06                     u7401:
  5536  0E06  2E40               	goto	l5352
  5537  0E07                     u7400:
  5538                           	line	229
  5539                           	
  5540  0E07                     l5334:	
  5541                           ;Automated Solar Panel Orientation Setter.c: 229: RC4 = 1;
  5542  0E07  1607               	bsf	(60/8),(60)&7
  5543                           	line	230
  5544                           ;Automated Solar Panel Orientation Setter.c: 230: _delay(1);
  5545                           		opt asmopt_off
  5546  0E08  0064               	clrwdt
  5547                           	opt asmopt_on
  5548                           
  5549                           	line	231
  5550                           ;Automated Solar Panel Orientation Setter.c: 231: if(RD7==1){
  5551  0E09  1283               	bcf	status, 5	;RP0=0, select bank0
  5552  0E0A  1303               	bcf	status, 6	;RP1=0, select bank0
  5553  0E0B  1F88               	btfss	(71/8),(71)&7
  5554  0E0C  2E0E               	goto	u7411
  5555  0E0D  2E0F               	goto	u7410
  5556  0E0E                     u7411:
  5557  0E0E  2E15               	goto	l970
  5558  0E0F                     u7410:
  5559                           	line	232
  5560                           	
  5561  0E0F                     l5336:	
  5562                           ;Automated Solar Panel Orientation Setter.c: 232: return 1;
  5563  0E0F  3001               	movlw	low(01h)
  5564  0E10  00A0               	movwf	(?_ColomnNo)
  5565  0E11  3000               	movlw	high(01h)
  5566  0E12  00A1               	movwf	((?_ColomnNo))+1
  5567  0E13  2EC3               	goto	l964
  5568                           	
  5569  0E14                     l5338:	
  5570  0E14  2EC3               	goto	l964
  5571                           	line	233
  5572                           	
  5573  0E15                     l970:	
  5574                           	line	234
  5575                           ;Automated Solar Panel Orientation Setter.c: 233: }
  5576                           ;Automated Solar Panel Orientation Setter.c: 234: RD5 = 1;
  5577  0E15  1688               	bsf	(69/8),(69)&7
  5578                           	line	235
  5579                           ;Automated Solar Panel Orientation Setter.c: 235: _delay(1);
  5580                           		opt asmopt_off
  5581  0E16  0064               	clrwdt
  5582                           	opt asmopt_on
  5583                           
  5584                           	line	236
  5585                           ;Automated Solar Panel Orientation Setter.c: 236: if(RD7==1){
  5586  0E17  1283               	bcf	status, 5	;RP0=0, select bank0
  5587  0E18  1303               	bcf	status, 6	;RP1=0, select bank0
  5588  0E19  1F88               	btfss	(71/8),(71)&7
  5589  0E1A  2E1C               	goto	u7421
  5590  0E1B  2E1D               	goto	u7420
  5591  0E1C                     u7421:
  5592  0E1C  2E23               	goto	l971
  5593  0E1D                     u7420:
  5594                           	line	237
  5595                           	
  5596  0E1D                     l5340:	
  5597                           ;Automated Solar Panel Orientation Setter.c: 237: return 2;
  5598  0E1D  3002               	movlw	low(02h)
  5599  0E1E  00A0               	movwf	(?_ColomnNo)
  5600  0E1F  3000               	movlw	high(02h)
  5601  0E20  00A1               	movwf	((?_ColomnNo))+1
  5602  0E21  2EC3               	goto	l964
  5603                           	
  5604  0E22                     l5342:	
  5605  0E22  2EC3               	goto	l964
  5606                           	line	238
  5607                           	
  5608  0E23                     l971:	
  5609                           	line	239
  5610                           ;Automated Solar Panel Orientation Setter.c: 238: }
  5611                           ;Automated Solar Panel Orientation Setter.c: 239: RC5 = 1;
  5612  0E23  1687               	bsf	(61/8),(61)&7
  5613                           	line	240
  5614                           ;Automated Solar Panel Orientation Setter.c: 240: _delay(1);
  5615                           		opt asmopt_off
  5616  0E24  0064               	clrwdt
  5617                           	opt asmopt_on
  5618                           
  5619                           	line	241
  5620                           ;Automated Solar Panel Orientation Setter.c: 241: if(RD7==1){
  5621  0E25  1283               	bcf	status, 5	;RP0=0, select bank0
  5622  0E26  1303               	bcf	status, 6	;RP1=0, select bank0
  5623  0E27  1F88               	btfss	(71/8),(71)&7
  5624  0E28  2E2A               	goto	u7431
  5625  0E29  2E2B               	goto	u7430
  5626  0E2A                     u7431:
  5627  0E2A  2E31               	goto	l972
  5628  0E2B                     u7430:
  5629                           	line	242
  5630                           	
  5631  0E2B                     l5344:	
  5632                           ;Automated Solar Panel Orientation Setter.c: 242: return 3;
  5633  0E2B  3003               	movlw	low(03h)
  5634  0E2C  00A0               	movwf	(?_ColomnNo)
  5635  0E2D  3000               	movlw	high(03h)
  5636  0E2E  00A1               	movwf	((?_ColomnNo))+1
  5637  0E2F  2EC3               	goto	l964
  5638                           	
  5639  0E30                     l5346:	
  5640  0E30  2EC3               	goto	l964
  5641                           	line	243
  5642                           	
  5643  0E31                     l972:	
  5644                           	line	244
  5645                           ;Automated Solar Panel Orientation Setter.c: 243: }
  5646                           ;Automated Solar Panel Orientation Setter.c: 244: RD4 = 1;
  5647  0E31  1608               	bsf	(68/8),(68)&7
  5648                           	line	245
  5649                           ;Automated Solar Panel Orientation Setter.c: 245: _delay(1);
  5650                           		opt asmopt_off
  5651  0E32  0064               	clrwdt
  5652                           	opt asmopt_on
  5653                           
  5654                           	line	246
  5655                           ;Automated Solar Panel Orientation Setter.c: 246: if(RD7==1){
  5656  0E33  1283               	bcf	status, 5	;RP0=0, select bank0
  5657  0E34  1303               	bcf	status, 6	;RP1=0, select bank0
  5658  0E35  1F88               	btfss	(71/8),(71)&7
  5659  0E36  2E38               	goto	u7441
  5660  0E37  2E39               	goto	u7440
  5661  0E38                     u7441:
  5662  0E38  2EC3               	goto	l964
  5663  0E39                     u7440:
  5664                           	line	247
  5665                           	
  5666  0E39                     l5348:	
  5667                           ;Automated Solar Panel Orientation Setter.c: 247: return 4;
  5668  0E39  3004               	movlw	low(04h)
  5669  0E3A  00A0               	movwf	(?_ColomnNo)
  5670  0E3B  3000               	movlw	high(04h)
  5671  0E3C  00A1               	movwf	((?_ColomnNo))+1
  5672  0E3D  2EC3               	goto	l964
  5673                           	
  5674  0E3E                     l5350:	
  5675  0E3E  2EC3               	goto	l964
  5676                           	line	248
  5677                           	
  5678  0E3F                     l973:	
  5679                           	line	249
  5680                           ;Automated Solar Panel Orientation Setter.c: 248: }
  5681                           ;Automated Solar Panel Orientation Setter.c: 249: }
  5682  0E3F  2EC3               	goto	l964
  5683                           	line	250
  5684                           	
  5685  0E40                     l969:	
  5686                           	
  5687  0E40                     l5352:	
  5688                           ;Automated Solar Panel Orientation Setter.c: 250: else if(rowNo==3){
  5689  0E40  3003               	movlw	03h
  5690  0E41  0620               	xorwf	(ColomnNo@rowNo),w
  5691  0E42  0421               	iorwf	(ColomnNo@rowNo+1),w
  5692  0E43  1D03               	skipz
  5693  0E44  2E46               	goto	u7451
  5694  0E45  2E47               	goto	u7450
  5695  0E46                     u7451:
  5696  0E46  2E80               	goto	l5372
  5697  0E47                     u7450:
  5698                           	line	251
  5699                           	
  5700  0E47                     l5354:	
  5701                           ;Automated Solar Panel Orientation Setter.c: 251: RC4 = 1;
  5702  0E47  1607               	bsf	(60/8),(60)&7
  5703                           	line	252
  5704                           ;Automated Solar Panel Orientation Setter.c: 252: _delay(1);
  5705                           		opt asmopt_off
  5706  0E48  0064               	clrwdt
  5707                           	opt asmopt_on
  5708                           
  5709                           	line	253
  5710                           ;Automated Solar Panel Orientation Setter.c: 253: if(RD3==1){
  5711  0E49  1283               	bcf	status, 5	;RP0=0, select bank0
  5712  0E4A  1303               	bcf	status, 6	;RP1=0, select bank0
  5713  0E4B  1D88               	btfss	(67/8),(67)&7
  5714  0E4C  2E4E               	goto	u7461
  5715  0E4D  2E4F               	goto	u7460
  5716  0E4E                     u7461:
  5717  0E4E  2E55               	goto	l976
  5718  0E4F                     u7460:
  5719                           	line	254
  5720                           	
  5721  0E4F                     l5356:	
  5722                           ;Automated Solar Panel Orientation Setter.c: 254: return 1;
  5723  0E4F  3001               	movlw	low(01h)
  5724  0E50  00A0               	movwf	(?_ColomnNo)
  5725  0E51  3000               	movlw	high(01h)
  5726  0E52  00A1               	movwf	((?_ColomnNo))+1
  5727  0E53  2EC3               	goto	l964
  5728                           	
  5729  0E54                     l5358:	
  5730  0E54  2EC3               	goto	l964
  5731                           	line	255
  5732                           	
  5733  0E55                     l976:	
  5734                           	line	256
  5735                           ;Automated Solar Panel Orientation Setter.c: 255: }
  5736                           ;Automated Solar Panel Orientation Setter.c: 256: RD5 = 1;
  5737  0E55  1688               	bsf	(69/8),(69)&7
  5738                           	line	257
  5739                           ;Automated Solar Panel Orientation Setter.c: 257: _delay(1);
  5740                           		opt asmopt_off
  5741  0E56  0064               	clrwdt
  5742                           	opt asmopt_on
  5743                           
  5744                           	line	258
  5745                           ;Automated Solar Panel Orientation Setter.c: 258: if(RD3==1){
  5746  0E57  1283               	bcf	status, 5	;RP0=0, select bank0
  5747  0E58  1303               	bcf	status, 6	;RP1=0, select bank0
  5748  0E59  1D88               	btfss	(67/8),(67)&7
  5749  0E5A  2E5C               	goto	u7471
  5750  0E5B  2E5D               	goto	u7470
  5751  0E5C                     u7471:
  5752  0E5C  2E63               	goto	l977
  5753  0E5D                     u7470:
  5754                           	line	259
  5755                           	
  5756  0E5D                     l5360:	
  5757                           ;Automated Solar Panel Orientation Setter.c: 259: return 2;
  5758  0E5D  3002               	movlw	low(02h)
  5759  0E5E  00A0               	movwf	(?_ColomnNo)
  5760  0E5F  3000               	movlw	high(02h)
  5761  0E60  00A1               	movwf	((?_ColomnNo))+1
  5762  0E61  2EC3               	goto	l964
  5763                           	
  5764  0E62                     l5362:	
  5765  0E62  2EC3               	goto	l964
  5766                           	line	260
  5767                           	
  5768  0E63                     l977:	
  5769                           	line	261
  5770                           ;Automated Solar Panel Orientation Setter.c: 260: }
  5771                           ;Automated Solar Panel Orientation Setter.c: 261: RC5 = 1;
  5772  0E63  1687               	bsf	(61/8),(61)&7
  5773                           	line	262
  5774                           ;Automated Solar Panel Orientation Setter.c: 262: _delay(1);
  5775                           		opt asmopt_off
  5776  0E64  0064               	clrwdt
  5777                           	opt asmopt_on
  5778                           
  5779                           	line	263
  5780                           ;Automated Solar Panel Orientation Setter.c: 263: if(RD3==1){
  5781  0E65  1283               	bcf	status, 5	;RP0=0, select bank0
  5782  0E66  1303               	bcf	status, 6	;RP1=0, select bank0
  5783  0E67  1D88               	btfss	(67/8),(67)&7
  5784  0E68  2E6A               	goto	u7481
  5785  0E69  2E6B               	goto	u7480
  5786  0E6A                     u7481:
  5787  0E6A  2E71               	goto	l978
  5788  0E6B                     u7480:
  5789                           	line	264
  5790                           	
  5791  0E6B                     l5364:	
  5792                           ;Automated Solar Panel Orientation Setter.c: 264: return 3;
  5793  0E6B  3003               	movlw	low(03h)
  5794  0E6C  00A0               	movwf	(?_ColomnNo)
  5795  0E6D  3000               	movlw	high(03h)
  5796  0E6E  00A1               	movwf	((?_ColomnNo))+1
  5797  0E6F  2EC3               	goto	l964
  5798                           	
  5799  0E70                     l5366:	
  5800  0E70  2EC3               	goto	l964
  5801                           	line	265
  5802                           	
  5803  0E71                     l978:	
  5804                           	line	266
  5805                           ;Automated Solar Panel Orientation Setter.c: 265: }
  5806                           ;Automated Solar Panel Orientation Setter.c: 266: RD4 = 1;
  5807  0E71  1608               	bsf	(68/8),(68)&7
  5808                           	line	267
  5809                           ;Automated Solar Panel Orientation Setter.c: 267: _delay(1);
  5810                           		opt asmopt_off
  5811  0E72  0064               	clrwdt
  5812                           	opt asmopt_on
  5813                           
  5814                           	line	268
  5815                           ;Automated Solar Panel Orientation Setter.c: 268: if(RD3==1){
  5816  0E73  1283               	bcf	status, 5	;RP0=0, select bank0
  5817  0E74  1303               	bcf	status, 6	;RP1=0, select bank0
  5818  0E75  1D88               	btfss	(67/8),(67)&7
  5819  0E76  2E78               	goto	u7491
  5820  0E77  2E79               	goto	u7490
  5821  0E78                     u7491:
  5822  0E78  2EC3               	goto	l964
  5823  0E79                     u7490:
  5824                           	line	269
  5825                           	
  5826  0E79                     l5368:	
  5827                           ;Automated Solar Panel Orientation Setter.c: 269: return 4;
  5828  0E79  3004               	movlw	low(04h)
  5829  0E7A  00A0               	movwf	(?_ColomnNo)
  5830  0E7B  3000               	movlw	high(04h)
  5831  0E7C  00A1               	movwf	((?_ColomnNo))+1
  5832  0E7D  2EC3               	goto	l964
  5833                           	
  5834  0E7E                     l5370:	
  5835  0E7E  2EC3               	goto	l964
  5836                           	line	270
  5837                           	
  5838  0E7F                     l979:	
  5839                           	line	271
  5840                           ;Automated Solar Panel Orientation Setter.c: 270: }
  5841                           ;Automated Solar Panel Orientation Setter.c: 271: }
  5842  0E7F  2EC3               	goto	l964
  5843                           	line	272
  5844                           	
  5845  0E80                     l975:	
  5846                           	
  5847  0E80                     l5372:	
  5848                           ;Automated Solar Panel Orientation Setter.c: 272: else if(rowNo==4){
  5849  0E80  3004               	movlw	04h
  5850  0E81  0620               	xorwf	(ColomnNo@rowNo),w
  5851  0E82  0421               	iorwf	(ColomnNo@rowNo+1),w
  5852  0E83  1D03               	skipz
  5853  0E84  2E86               	goto	u7501
  5854  0E85  2E87               	goto	u7500
  5855  0E86                     u7501:
  5856  0E86  2EC3               	goto	l964
  5857  0E87                     u7500:
  5858                           	line	273
  5859                           	
  5860  0E87                     l5374:	
  5861                           ;Automated Solar Panel Orientation Setter.c: 273: RC4 = 1;
  5862  0E87  1607               	bsf	(60/8),(60)&7
  5863                           	line	274
  5864                           ;Automated Solar Panel Orientation Setter.c: 274: _delay(1);
  5865                           		opt asmopt_off
  5866  0E88  0064               	clrwdt
  5867                           	opt asmopt_on
  5868                           
  5869                           	line	275
  5870                           ;Automated Solar Panel Orientation Setter.c: 275: if(RD6==1){
  5871  0E89  1283               	bcf	status, 5	;RP0=0, select bank0
  5872  0E8A  1303               	bcf	status, 6	;RP1=0, select bank0
  5873  0E8B  1F08               	btfss	(70/8),(70)&7
  5874  0E8C  2E8E               	goto	u7511
  5875  0E8D  2E8F               	goto	u7510
  5876  0E8E                     u7511:
  5877  0E8E  2E95               	goto	l982
  5878  0E8F                     u7510:
  5879                           	line	276
  5880                           	
  5881  0E8F                     l5376:	
  5882                           ;Automated Solar Panel Orientation Setter.c: 276: return 1;
  5883  0E8F  3001               	movlw	low(01h)
  5884  0E90  00A0               	movwf	(?_ColomnNo)
  5885  0E91  3000               	movlw	high(01h)
  5886  0E92  00A1               	movwf	((?_ColomnNo))+1
  5887  0E93  2EC3               	goto	l964
  5888                           	
  5889  0E94                     l5378:	
  5890  0E94  2EC3               	goto	l964
  5891                           	line	277
  5892                           	
  5893  0E95                     l982:	
  5894                           	line	278
  5895                           ;Automated Solar Panel Orientation Setter.c: 277: }
  5896                           ;Automated Solar Panel Orientation Setter.c: 278: RD5 = 1;
  5897  0E95  1688               	bsf	(69/8),(69)&7
  5898                           	line	279
  5899                           ;Automated Solar Panel Orientation Setter.c: 279: _delay(1);
  5900                           		opt asmopt_off
  5901  0E96  0064               	clrwdt
  5902                           	opt asmopt_on
  5903                           
  5904                           	line	280
  5905                           ;Automated Solar Panel Orientation Setter.c: 280: if(RD6==1){
  5906  0E97  1283               	bcf	status, 5	;RP0=0, select bank0
  5907  0E98  1303               	bcf	status, 6	;RP1=0, select bank0
  5908  0E99  1F08               	btfss	(70/8),(70)&7
  5909  0E9A  2E9C               	goto	u7521
  5910  0E9B  2E9D               	goto	u7520
  5911  0E9C                     u7521:
  5912  0E9C  2EA3               	goto	l983
  5913  0E9D                     u7520:
  5914                           	line	281
  5915                           	
  5916  0E9D                     l5380:	
  5917                           ;Automated Solar Panel Orientation Setter.c: 281: return 2;
  5918  0E9D  3002               	movlw	low(02h)
  5919  0E9E  00A0               	movwf	(?_ColomnNo)
  5920  0E9F  3000               	movlw	high(02h)
  5921  0EA0  00A1               	movwf	((?_ColomnNo))+1
  5922  0EA1  2EC3               	goto	l964
  5923                           	
  5924  0EA2                     l5382:	
  5925  0EA2  2EC3               	goto	l964
  5926                           	line	282
  5927                           	
  5928  0EA3                     l983:	
  5929                           	line	283
  5930                           ;Automated Solar Panel Orientation Setter.c: 282: }
  5931                           ;Automated Solar Panel Orientation Setter.c: 283: RC5 = 1;
  5932  0EA3  1687               	bsf	(61/8),(61)&7
  5933                           	line	284
  5934                           ;Automated Solar Panel Orientation Setter.c: 284: _delay(1);
  5935                           		opt asmopt_off
  5936  0EA4  0064               	clrwdt
  5937                           	opt asmopt_on
  5938                           
  5939                           	line	285
  5940                           ;Automated Solar Panel Orientation Setter.c: 285: if(RD6==1){
  5941  0EA5  1283               	bcf	status, 5	;RP0=0, select bank0
  5942  0EA6  1303               	bcf	status, 6	;RP1=0, select bank0
  5943  0EA7  1F08               	btfss	(70/8),(70)&7
  5944  0EA8  2EAA               	goto	u7531
  5945  0EA9  2EAB               	goto	u7530
  5946  0EAA                     u7531:
  5947  0EAA  2EB1               	goto	l984
  5948  0EAB                     u7530:
  5949                           	line	286
  5950                           	
  5951  0EAB                     l5384:	
  5952                           ;Automated Solar Panel Orientation Setter.c: 286: return 3;
  5953  0EAB  3003               	movlw	low(03h)
  5954  0EAC  00A0               	movwf	(?_ColomnNo)
  5955  0EAD  3000               	movlw	high(03h)
  5956  0EAE  00A1               	movwf	((?_ColomnNo))+1
  5957  0EAF  2EC3               	goto	l964
  5958                           	
  5959  0EB0                     l5386:	
  5960  0EB0  2EC3               	goto	l964
  5961                           	line	287
  5962                           	
  5963  0EB1                     l984:	
  5964                           	line	288
  5965                           ;Automated Solar Panel Orientation Setter.c: 287: }
  5966                           ;Automated Solar Panel Orientation Setter.c: 288: RD4 = 1;
  5967  0EB1  1608               	bsf	(68/8),(68)&7
  5968                           	line	289
  5969                           ;Automated Solar Panel Orientation Setter.c: 289: _delay(1);
  5970                           		opt asmopt_off
  5971  0EB2  0064               	clrwdt
  5972                           	opt asmopt_on
  5973                           
  5974                           	line	290
  5975                           ;Automated Solar Panel Orientation Setter.c: 290: if(RD6==1){
  5976  0EB3  1283               	bcf	status, 5	;RP0=0, select bank0
  5977  0EB4  1303               	bcf	status, 6	;RP1=0, select bank0
  5978  0EB5  1F08               	btfss	(70/8),(70)&7
  5979  0EB6  2EB8               	goto	u7541
  5980  0EB7  2EB9               	goto	u7540
  5981  0EB8                     u7541:
  5982  0EB8  2EC3               	goto	l964
  5983  0EB9                     u7540:
  5984                           	line	291
  5985                           	
  5986  0EB9                     l5388:	
  5987                           ;Automated Solar Panel Orientation Setter.c: 291: return 4;
  5988  0EB9  3004               	movlw	low(04h)
  5989  0EBA  00A0               	movwf	(?_ColomnNo)
  5990  0EBB  3000               	movlw	high(04h)
  5991  0EBC  00A1               	movwf	((?_ColomnNo))+1
  5992  0EBD  2EC3               	goto	l964
  5993                           	
  5994  0EBE                     l5390:	
  5995  0EBE  2EC3               	goto	l964
  5996                           	line	292
  5997                           	
  5998  0EBF                     l985:	
  5999  0EBF  2EC3               	goto	l964
  6000                           	line	293
  6001                           	
  6002  0EC0                     l981:	
  6003  0EC0  2EC3               	goto	l964
  6004                           	line	294
  6005                           	
  6006  0EC1                     l980:	
  6007  0EC1  2EC3               	goto	l964
  6008                           	
  6009  0EC2                     l974:	
  6010  0EC2  2EC3               	goto	l964
  6011                           	
  6012  0EC3                     l968:	
  6013                           	
  6014  0EC3                     l964:	
  6015  0EC3  0008               	return
  6016                           	opt stack 0
  6017                           GLOBAL	__end_of_ColomnNo
  6018  0EC4                     	__end_of_ColomnNo:
  6019 ;; =============== function _ColomnNo ends ============
  6020                           
  6021                           	signat	_ColomnNo,4218
  6022                           	global	_Serial_Init
  6023                           psect	text908,local,class=CODE,delta=2
  6024                           global __ptext908
  6025  16D9                     __ptext908:
  6026                           
  6027 ;; *************** function _Serial_Init *****************
  6028 ;; Defined at:
  6029 ;;		line 7 in file "D:\ELECTRONIC\2016\1. Automated Solar Panel Orientation Setter\Firmware\ver2\serial.h"
  6030 ;; Parameters:    Size  Location     Type
  6031 ;;		None
  6032 ;; Auto vars:     Size  Location     Type
  6033 ;;		None
  6034 ;; Return value:  Size  Location     Type
  6035 ;;		None               void
  6036 ;; Registers used:
  6037 ;;		wreg
  6038 ;; Tracked objects:
  6039 ;;		On entry : 0/0
  6040 ;;		On exit  : 0/0
  6041 ;;		Unchanged: 0/0
  6042 ;; Data sizes:     COMMON   BANK0   BANK1   BANK3   BANK2
  6043 ;;      Params:         0       0       0       0       0
  6044 ;;      Locals:         0       0       0       0       0
  6045 ;;      Temps:          0       3       0       0       0
  6046 ;;      Totals:         0       3       0       0       0
  6047 ;;Total ram usage:        3 bytes
  6048 ;; Hardware stack levels used:    1
  6049 ;; Hardware stack levels required when called:    3
  6050 ;; This function calls:
  6051 ;;		Nothing
  6052 ;; This function is called by:
  6053 ;;		_main
  6054 ;; This function uses a non-reentrant model
  6055 ;;
  6056                           psect	text908
  6057                           	file	"D:\ELECTRONIC\2016\1. Automated Solar Panel Orientation Setter\Firmware\ver2\seri
                                 al.h"
  6058                           	line	7
  6059                           	global	__size_of_Serial_Init
  6060  0020                     	__size_of_Serial_Init	equ	__end_of_Serial_Init-_Serial_Init
  6061                           	
  6062  16D9                     _Serial_Init:	
  6063                           	opt	stack 4
  6064                           ; Regs used in _Serial_Init: [wreg]
  6065                           	line	10
  6066                           	
  6067  16D9                     l5300:	
  6068                           ;serial.h: 10: SPEN = 1;
  6069  16D9  1283               	bcf	status, 5	;RP0=0, select bank0
  6070  16DA  1303               	bcf	status, 6	;RP1=0, select bank0
  6071  16DB  1798               	bsf	(199/8),(199)&7
  6072                           	line	11
  6073                           ;serial.h: 11: RX9 = 0;
  6074  16DC  1318               	bcf	(198/8),(198)&7
  6075                           	line	12
  6076                           ;serial.h: 12: CREN = 1;
  6077  16DD  1618               	bsf	(196/8),(196)&7
  6078                           	line	13
  6079                           ;serial.h: 13: TX9 = 0;
  6080  16DE  1683               	bsf	status, 5	;RP0=1, select bank1
  6081  16DF  1303               	bcf	status, 6	;RP1=0, select bank1
  6082  16E0  1318               	bcf	(1222/8)^080h,(1222)&7
  6083                           	line	14
  6084                           ;serial.h: 14: TXEN = 1;
  6085  16E1  1698               	bsf	(1221/8)^080h,(1221)&7
  6086                           	line	15
  6087                           ;serial.h: 15: SYNC = 0;
  6088  16E2  1218               	bcf	(1220/8)^080h,(1220)&7
  6089                           	line	16
  6090                           ;serial.h: 16: BRGH = 1;
  6091  16E3  1518               	bsf	(1218/8)^080h,(1218)&7
  6092                           	line	17
  6093                           	
  6094  16E4                     l5302:	
  6095                           ;serial.h: 17: SPBRG = 129;
  6096  16E4  3081               	movlw	(081h)
  6097  16E5  0099               	movwf	(153)^080h	;volatile
  6098                           	line	18
  6099                           	
  6100  16E6                     l5304:	
  6101                           ;serial.h: 18: RCIE = 1;
  6102  16E6  168C               	bsf	(1125/8)^080h,(1125)&7
  6103                           	line	19
  6104                           	
  6105  16E7                     l5306:	
  6106                           ;serial.h: 19: TXIE = 0;
  6107  16E7  120C               	bcf	(1124/8)^080h,(1124)&7
  6108                           	line	20
  6109                           	
  6110  16E8                     l5308:	
  6111                           ;serial.h: 20: ADDEN = 0;
  6112  16E8  1283               	bcf	status, 5	;RP0=0, select bank0
  6113  16E9  1303               	bcf	status, 6	;RP1=0, select bank0
  6114  16EA  1198               	bcf	(195/8),(195)&7
  6115                           	line	21
  6116                           ;serial.h: 21: _delay((unsigned long)((500)*(4000000/4000.0)));
  6117                           	opt asmopt_off
  6118  16EB  3003               movlw  3
  6119  16EC  00A2               movwf	((??_Serial_Init+0)+0+2),f
  6120  16ED  308A               movlw	138
  6121  16EE  00A1               movwf	((??_Serial_Init+0)+0+1),f
  6122  16EF  3056               	movlw	86
  6123  16F0  00A0               movwf	((??_Serial_Init+0)+0),f
  6124  16F1                     u9007:
  6125  16F1  0BA0               	decfsz	((??_Serial_Init+0)+0),f
  6126  16F2  2EF1               	goto	u9007
  6127  16F3  0BA1               	decfsz	((??_Serial_Init+0)+0+1),f
  6128  16F4  2EF1               	goto	u9007
  6129  16F5  0BA2               	decfsz	((??_Serial_Init+0)+0+2),f
  6130  16F6  2EF1               	goto	u9007
  6131  16F7  2EF8               	nop2
  6132                           opt asmopt_on
  6133                           
  6134                           	line	22
  6135                           	
  6136  16F8                     l832:	
  6137  16F8  0008               	return
  6138                           	opt stack 0
  6139                           GLOBAL	__end_of_Serial_Init
  6140  16F9                     	__end_of_Serial_Init:
  6141 ;; =============== function _Serial_Init ends ============
  6142                           
  6143                           	signat	_Serial_Init,88
  6144                           	global	_lcd_add
  6145                           psect	text909,local,class=CODE,delta=2
  6146                           global __ptext909
  6147  0CC2                     __ptext909:
  6148                           
  6149 ;; *************** function _lcd_add *****************
  6150 ;; Defined at:
  6151 ;;		line 217 in file "D:\ELECTRONIC\2016\1. Automated Solar Panel Orientation Setter\Firmware\ver2\lcdV2.h"
  6152 ;; Parameters:    Size  Location     Type
  6153 ;;		None
  6154 ;; Auto vars:     Size  Location     Type
  6155 ;;		None
  6156 ;; Return value:  Size  Location     Type
  6157 ;;		None               void
  6158 ;; Registers used:
  6159 ;;		wreg, status,2, status,0
  6160 ;; Tracked objects:
  6161 ;;		On entry : 0/0
  6162 ;;		On exit  : 0/0
  6163 ;;		Unchanged: 0/0
  6164 ;; Data sizes:     COMMON   BANK0   BANK1   BANK3   BANK2
  6165 ;;      Params:         0       0       0       0       0
  6166 ;;      Locals:         0       0       0       0       0
  6167 ;;      Temps:          0       2       0       0       0
  6168 ;;      Totals:         0       2       0       0       0
  6169 ;;Total ram usage:        2 bytes
  6170 ;; Hardware stack levels used:    1
  6171 ;; Hardware stack levels required when called:    3
  6172 ;; This function calls:
  6173 ;;		Nothing
  6174 ;; This function is called by:
  6175 ;;		_putch
  6176 ;;		_clr_display
  6177 ;;		_position
  6178 ;;		_curser
  6179 ;; This function uses a non-reentrant model
  6180 ;;
  6181                           psect	text909
  6182                           	file	"D:\ELECTRONIC\2016\1. Automated Solar Panel Orientation Setter\Firmware\ver2\lcdV
                                 2.h"
  6183                           	line	217
  6184                           	global	__size_of_lcd_add
  6185  00F8                     	__size_of_lcd_add	equ	__end_of_lcd_add-_lcd_add
  6186                           	
  6187  0CC2                     _lcd_add:	
  6188                           	opt	stack 3
  6189                           ; Regs used in _lcd_add: [wreg+status,2+status,0]
  6190                           	line	218
  6191                           	
  6192  0CC2                     l5252:	
  6193                           ;lcdV2.h: 218: lcd_data_high = lcd_data >> 4;
  6194  0CC2  1283               	bcf	status, 5	;RP0=0, select bank0
  6195  0CC3  1303               	bcf	status, 6	;RP1=0, select bank0
  6196  0CC4  0860               	movf	(_lcd_data),w
  6197  0CC5  00A0               	movwf	(??_lcd_add+0)+0
  6198  0CC6  3004               	movlw	04h
  6199  0CC7                     u7015:
  6200  0CC7  1003               	clrc
  6201  0CC8  0CA0               	rrf	(??_lcd_add+0)+0,f
  6202  0CC9  3EFF               	addlw	-1
  6203  0CCA  1D03               	skipz
  6204  0CCB  2CC7               	goto	u7015
  6205  0CCC  0820               	movf	0+(??_lcd_add+0)+0,w
  6206  0CCD  00A1               	movwf	(??_lcd_add+1)+0
  6207  0CCE  0821               	movf	(??_lcd_add+1)+0,w
  6208  0CCF  00E1               	movwf	(_lcd_data_high)
  6209                           	line	219
  6210                           ;lcdV2.h: 219: lcd_data_low = lcd_data << 4;
  6211  0CD0  0860               	movf	(_lcd_data),w
  6212  0CD1  00A0               	movwf	(??_lcd_add+0)+0
  6213  0CD2  3003               	movlw	(04h)-1
  6214  0CD3                     u7025:
  6215  0CD3  1003               	clrc
  6216  0CD4  0DA0               	rlf	(??_lcd_add+0)+0,f
  6217  0CD5  3EFF               	addlw	-1
  6218  0CD6  1D03               	skipz
  6219  0CD7  2CD3               	goto	u7025
  6220  0CD8  1003               	clrc
  6221  0CD9  0D20               	rlf	(??_lcd_add+0)+0,w
  6222  0CDA  00A1               	movwf	(??_lcd_add+1)+0
  6223  0CDB  0821               	movf	(??_lcd_add+1)+0,w
  6224  0CDC  00E2               	movwf	(_lcd_data_low)
  6225                           	line	220
  6226                           ;lcdV2.h: 220: lcd_data_low = lcd_data_low >> 4;
  6227  0CDD  0862               	movf	(_lcd_data_low),w
  6228  0CDE  00A0               	movwf	(??_lcd_add+0)+0
  6229  0CDF  3004               	movlw	04h
  6230  0CE0                     u7035:
  6231  0CE0  1003               	clrc
  6232  0CE1  0CA0               	rrf	(??_lcd_add+0)+0,f
  6233  0CE2  3EFF               	addlw	-1
  6234  0CE3  1D03               	skipz
  6235  0CE4  2CE0               	goto	u7035
  6236  0CE5  0820               	movf	0+(??_lcd_add+0)+0,w
  6237  0CE6  00A1               	movwf	(??_lcd_add+1)+0
  6238  0CE7  0821               	movf	(??_lcd_add+1)+0,w
  6239  0CE8  00E2               	movwf	(_lcd_data_low)
  6240                           	line	222
  6241                           	
  6242  0CE9                     l5254:	
  6243                           ;lcdV2.h: 222: bit0 = lcd_data;
  6244  0CE9  107C               	bcf	(_bit0/8),(_bit0)&7
  6245  0CEA  1C60               	btfss	(_lcd_data),0
  6246  0CEB  2CED               	goto	u7045
  6247  0CEC  147C               	bsf	(_bit0/8),(_bit0)&7
  6248  0CED                     u7045:
  6249                           
  6250                           	line	223
  6251                           ;lcdV2.h: 223: bit1 = lcd_data>>1;
  6252  0CED  1283               	bcf	status, 5	;RP0=0, select bank0
  6253  0CEE  1303               	bcf	status, 6	;RP1=0, select bank0
  6254  0CEF  0860               	movf	(_lcd_data),w
  6255  0CF0  00A0               	movwf	(??_lcd_add+0)+0
  6256  0CF1  3001               	movlw	01h
  6257  0CF2                     u7055:
  6258  0CF2  1003               	clrc
  6259  0CF3  0CA0               	rrf	(??_lcd_add+0)+0,f
  6260  0CF4  3EFF               	addlw	-1
  6261  0CF5  1D03               	skipz
  6262  0CF6  2CF2               	goto	u7055
  6263  0CF7  10FC               	bcf	(_bit1/8),(_bit1)&7
  6264  0CF8  1C20               	btfss	0+(??_lcd_add+0)+0,0
  6265  0CF9  2CFB               	goto	u7065
  6266  0CFA  14FC               	bsf	(_bit1/8),(_bit1)&7
  6267  0CFB                     u7065:
  6268                           
  6269                           	line	224
  6270                           ;lcdV2.h: 224: bit2 = lcd_data>>2;
  6271  0CFB  1283               	bcf	status, 5	;RP0=0, select bank0
  6272  0CFC  1303               	bcf	status, 6	;RP1=0, select bank0
  6273  0CFD  0860               	movf	(_lcd_data),w
  6274  0CFE  00A0               	movwf	(??_lcd_add+0)+0
  6275  0CFF  3002               	movlw	02h
  6276  0D00                     u7075:
  6277  0D00  1003               	clrc
  6278  0D01  0CA0               	rrf	(??_lcd_add+0)+0,f
  6279  0D02  3EFF               	addlw	-1
  6280  0D03  1D03               	skipz
  6281  0D04  2D00               	goto	u7075
  6282  0D05  117C               	bcf	(_bit2/8),(_bit2)&7
  6283  0D06  1C20               	btfss	0+(??_lcd_add+0)+0,0
  6284  0D07  2D09               	goto	u7085
  6285  0D08  157C               	bsf	(_bit2/8),(_bit2)&7
  6286  0D09                     u7085:
  6287                           
  6288                           	line	225
  6289                           ;lcdV2.h: 225: bit3 = lcd_data>>3;
  6290  0D09  1283               	bcf	status, 5	;RP0=0, select bank0
  6291  0D0A  1303               	bcf	status, 6	;RP1=0, select bank0
  6292  0D0B  0860               	movf	(_lcd_data),w
  6293  0D0C  00A0               	movwf	(??_lcd_add+0)+0
  6294  0D0D  3003               	movlw	03h
  6295  0D0E                     u7095:
  6296  0D0E  1003               	clrc
  6297  0D0F  0CA0               	rrf	(??_lcd_add+0)+0,f
  6298  0D10  3EFF               	addlw	-1
  6299  0D11  1D03               	skipz
  6300  0D12  2D0E               	goto	u7095
  6301  0D13  11FC               	bcf	(_bit3/8),(_bit3)&7
  6302  0D14  1C20               	btfss	0+(??_lcd_add+0)+0,0
  6303  0D15  2D17               	goto	u7105
  6304  0D16  15FC               	bsf	(_bit3/8),(_bit3)&7
  6305  0D17                     u7105:
  6306                           
  6307                           	line	226
  6308                           ;lcdV2.h: 226: bit4 = lcd_data>>4;
  6309  0D17  1283               	bcf	status, 5	;RP0=0, select bank0
  6310  0D18  1303               	bcf	status, 6	;RP1=0, select bank0
  6311  0D19  0860               	movf	(_lcd_data),w
  6312  0D1A  00A0               	movwf	(??_lcd_add+0)+0
  6313  0D1B  3004               	movlw	04h
  6314  0D1C                     u7115:
  6315  0D1C  1003               	clrc
  6316  0D1D  0CA0               	rrf	(??_lcd_add+0)+0,f
  6317  0D1E  3EFF               	addlw	-1
  6318  0D1F  1D03               	skipz
  6319  0D20  2D1C               	goto	u7115
  6320  0D21  127C               	bcf	(_bit4/8),(_bit4)&7
  6321  0D22  1C20               	btfss	0+(??_lcd_add+0)+0,0
  6322  0D23  2D25               	goto	u7125
  6323  0D24  167C               	bsf	(_bit4/8),(_bit4)&7
  6324  0D25                     u7125:
  6325                           
  6326                           	line	227
  6327                           ;lcdV2.h: 227: bit5 = lcd_data>>5;
  6328  0D25  1283               	bcf	status, 5	;RP0=0, select bank0
  6329  0D26  1303               	bcf	status, 6	;RP1=0, select bank0
  6330  0D27  0860               	movf	(_lcd_data),w
  6331  0D28  00A0               	movwf	(??_lcd_add+0)+0
  6332  0D29  3005               	movlw	05h
  6333  0D2A                     u7135:
  6334  0D2A  1003               	clrc
  6335  0D2B  0CA0               	rrf	(??_lcd_add+0)+0,f
  6336  0D2C  3EFF               	addlw	-1
  6337  0D2D  1D03               	skipz
  6338  0D2E  2D2A               	goto	u7135
  6339  0D2F  12FC               	bcf	(_bit5/8),(_bit5)&7
  6340  0D30  1C20               	btfss	0+(??_lcd_add+0)+0,0
  6341  0D31  2D33               	goto	u7145
  6342  0D32  16FC               	bsf	(_bit5/8),(_bit5)&7
  6343  0D33                     u7145:
  6344                           
  6345                           	line	228
  6346                           ;lcdV2.h: 228: bit6 = lcd_data>>6;
  6347  0D33  1283               	bcf	status, 5	;RP0=0, select bank0
  6348  0D34  1303               	bcf	status, 6	;RP1=0, select bank0
  6349  0D35  0860               	movf	(_lcd_data),w
  6350  0D36  00A0               	movwf	(??_lcd_add+0)+0
  6351  0D37  3006               	movlw	06h
  6352  0D38                     u7155:
  6353  0D38  1003               	clrc
  6354  0D39  0CA0               	rrf	(??_lcd_add+0)+0,f
  6355  0D3A  3EFF               	addlw	-1
  6356  0D3B  1D03               	skipz
  6357  0D3C  2D38               	goto	u7155
  6358  0D3D  137C               	bcf	(_bit6/8),(_bit6)&7
  6359  0D3E  1C20               	btfss	0+(??_lcd_add+0)+0,0
  6360  0D3F  2D41               	goto	u7165
  6361  0D40  177C               	bsf	(_bit6/8),(_bit6)&7
  6362  0D41                     u7165:
  6363                           
  6364                           	line	229
  6365                           ;lcdV2.h: 229: bit7 = lcd_data>>7;
  6366  0D41  1283               	bcf	status, 5	;RP0=0, select bank0
  6367  0D42  1303               	bcf	status, 6	;RP1=0, select bank0
  6368  0D43  0860               	movf	(_lcd_data),w
  6369  0D44  00A0               	movwf	(??_lcd_add+0)+0
  6370  0D45  3007               	movlw	07h
  6371  0D46                     u7175:
  6372  0D46  1003               	clrc
  6373  0D47  0CA0               	rrf	(??_lcd_add+0)+0,f
  6374  0D48  3EFF               	addlw	-1
  6375  0D49  1D03               	skipz
  6376  0D4A  2D46               	goto	u7175
  6377  0D4B  13FC               	bcf	(_bit7/8),(_bit7)&7
  6378  0D4C  1C20               	btfss	0+(??_lcd_add+0)+0,0
  6379  0D4D  2D4F               	goto	u7185
  6380  0D4E  17FC               	bsf	(_bit7/8),(_bit7)&7
  6381  0D4F                     u7185:
  6382                           
  6383                           	line	231
  6384                           	
  6385  0D4F                     l5256:	
  6386                           ;lcdV2.h: 231: RC3 = 0;
  6387  0D4F  1283               	bcf	status, 5	;RP0=0, select bank0
  6388  0D50  1303               	bcf	status, 6	;RP1=0, select bank0
  6389  0D51  1187               	bcf	(59/8),(59)&7
  6390                           	line	232
  6391                           	
  6392  0D52                     l5258:	
  6393                           ;lcdV2.h: 232: _delay(1);
  6394                           		opt asmopt_off
  6395  0D52  0064               	clrwdt
  6396                           	opt asmopt_on
  6397                           
  6398                           	line	233
  6399                           	
  6400  0D53                     l5260:	
  6401                           ;lcdV2.h: 233: RC3 = 1;
  6402  0D53  1283               	bcf	status, 5	;RP0=0, select bank0
  6403  0D54  1303               	bcf	status, 6	;RP1=0, select bank0
  6404  0D55  1587               	bsf	(59/8),(59)&7
  6405                           	line	234
  6406                           	
  6407  0D56                     l5262:	
  6408                           ;lcdV2.h: 234: _delay(1);
  6409                           		opt asmopt_off
  6410  0D56  0064               	clrwdt
  6411                           	opt asmopt_on
  6412                           
  6413                           	line	236
  6414                           	
  6415  0D57                     l5264:	
  6416                           ;lcdV2.h: 236: RC1 = bit4;
  6417  0D57  1A7C               	btfsc	(_bit4/8),(_bit4)&7
  6418  0D58  2D5A               	goto	u7191
  6419  0D59  2D5E               	goto	u7190
  6420                           	
  6421  0D5A                     u7191:
  6422  0D5A  1283               	bcf	status, 5	;RP0=0, select bank0
  6423  0D5B  1303               	bcf	status, 6	;RP1=0, select bank0
  6424  0D5C  1487               	bsf	(57/8),(57)&7
  6425  0D5D  2D61               	goto	u7204
  6426  0D5E                     u7190:
  6427  0D5E  1283               	bcf	status, 5	;RP0=0, select bank0
  6428  0D5F  1303               	bcf	status, 6	;RP1=0, select bank0
  6429  0D60  1087               	bcf	(57/8),(57)&7
  6430  0D61                     u7204:
  6431                           	line	237
  6432                           	
  6433  0D61                     l5266:	
  6434                           ;lcdV2.h: 237: RD0 = bit5;
  6435  0D61  1AFC               	btfsc	(_bit5/8),(_bit5)&7
  6436  0D62  2D64               	goto	u7211
  6437  0D63  2D68               	goto	u7210
  6438                           	
  6439  0D64                     u7211:
  6440  0D64  1283               	bcf	status, 5	;RP0=0, select bank0
  6441  0D65  1303               	bcf	status, 6	;RP1=0, select bank0
  6442  0D66  1408               	bsf	(64/8),(64)&7
  6443  0D67  2D6B               	goto	u7224
  6444  0D68                     u7210:
  6445  0D68  1283               	bcf	status, 5	;RP0=0, select bank0
  6446  0D69  1303               	bcf	status, 6	;RP1=0, select bank0
  6447  0D6A  1008               	bcf	(64/8),(64)&7
  6448  0D6B                     u7224:
  6449                           	line	238
  6450                           	
  6451  0D6B                     l5268:	
  6452                           ;lcdV2.h: 238: RC0 = bit6;
  6453  0D6B  1B7C               	btfsc	(_bit6/8),(_bit6)&7
  6454  0D6C  2D6E               	goto	u7231
  6455  0D6D  2D72               	goto	u7230
  6456                           	
  6457  0D6E                     u7231:
  6458  0D6E  1283               	bcf	status, 5	;RP0=0, select bank0
  6459  0D6F  1303               	bcf	status, 6	;RP1=0, select bank0
  6460  0D70  1407               	bsf	(56/8),(56)&7
  6461  0D71  2D75               	goto	u7244
  6462  0D72                     u7230:
  6463  0D72  1283               	bcf	status, 5	;RP0=0, select bank0
  6464  0D73  1303               	bcf	status, 6	;RP1=0, select bank0
  6465  0D74  1007               	bcf	(56/8),(56)&7
  6466  0D75                     u7244:
  6467                           	line	239
  6468                           	
  6469  0D75                     l5270:	
  6470                           ;lcdV2.h: 239: RD1 = bit7;
  6471  0D75  1BFC               	btfsc	(_bit7/8),(_bit7)&7
  6472  0D76  2D78               	goto	u7251
  6473  0D77  2D7C               	goto	u7250
  6474                           	
  6475  0D78                     u7251:
  6476  0D78  1283               	bcf	status, 5	;RP0=0, select bank0
  6477  0D79  1303               	bcf	status, 6	;RP1=0, select bank0
  6478  0D7A  1488               	bsf	(65/8),(65)&7
  6479  0D7B  2D7F               	goto	u7264
  6480  0D7C                     u7250:
  6481  0D7C  1283               	bcf	status, 5	;RP0=0, select bank0
  6482  0D7D  1303               	bcf	status, 6	;RP1=0, select bank0
  6483  0D7E  1088               	bcf	(65/8),(65)&7
  6484  0D7F                     u7264:
  6485                           	line	241
  6486                           	
  6487  0D7F                     l5272:	
  6488                           ;lcdV2.h: 241: _delay(1);
  6489                           		opt asmopt_off
  6490  0D7F  0064               	clrwdt
  6491                           	opt asmopt_on
  6492                           
  6493                           	line	242
  6494                           	
  6495  0D80                     l5274:	
  6496                           ;lcdV2.h: 242: RC3 = 0;
  6497  0D80  1283               	bcf	status, 5	;RP0=0, select bank0
  6498  0D81  1303               	bcf	status, 6	;RP1=0, select bank0
  6499  0D82  1187               	bcf	(59/8),(59)&7
  6500                           	line	243
  6501                           	
  6502  0D83                     l5276:	
  6503                           ;lcdV2.h: 243: _delay(1);
  6504                           		opt asmopt_off
  6505  0D83  0064               	clrwdt
  6506                           	opt asmopt_on
  6507                           
  6508                           	line	247
  6509                           	
  6510  0D84                     l5278:	
  6511                           ;lcdV2.h: 247: RC3 = 0;
  6512  0D84  1283               	bcf	status, 5	;RP0=0, select bank0
  6513  0D85  1303               	bcf	status, 6	;RP1=0, select bank0
  6514  0D86  1187               	bcf	(59/8),(59)&7
  6515                           	line	248
  6516                           	
  6517  0D87                     l5280:	
  6518                           ;lcdV2.h: 248: _delay(1);
  6519                           		opt asmopt_off
  6520  0D87  0064               	clrwdt
  6521                           	opt asmopt_on
  6522                           
  6523                           	line	249
  6524                           	
  6525  0D88                     l5282:	
  6526                           ;lcdV2.h: 249: RC3 = 1;
  6527  0D88  1283               	bcf	status, 5	;RP0=0, select bank0
  6528  0D89  1303               	bcf	status, 6	;RP1=0, select bank0
  6529  0D8A  1587               	bsf	(59/8),(59)&7
  6530                           	line	250
  6531                           	
  6532  0D8B                     l5284:	
  6533                           ;lcdV2.h: 250: _delay(1);
  6534                           		opt asmopt_off
  6535  0D8B  0064               	clrwdt
  6536                           	opt asmopt_on
  6537                           
  6538                           	line	252
  6539                           	
  6540  0D8C                     l5286:	
  6541                           ;lcdV2.h: 252: RC1 = bit0;
  6542  0D8C  187C               	btfsc	(_bit0/8),(_bit0)&7
  6543  0D8D  2D8F               	goto	u7271
  6544  0D8E  2D93               	goto	u7270
  6545                           	
  6546  0D8F                     u7271:
  6547  0D8F  1283               	bcf	status, 5	;RP0=0, select bank0
  6548  0D90  1303               	bcf	status, 6	;RP1=0, select bank0
  6549  0D91  1487               	bsf	(57/8),(57)&7
  6550  0D92  2D96               	goto	u7284
  6551  0D93                     u7270:
  6552  0D93  1283               	bcf	status, 5	;RP0=0, select bank0
  6553  0D94  1303               	bcf	status, 6	;RP1=0, select bank0
  6554  0D95  1087               	bcf	(57/8),(57)&7
  6555  0D96                     u7284:
  6556                           	line	253
  6557                           	
  6558  0D96                     l5288:	
  6559                           ;lcdV2.h: 253: RD0 = bit1;
  6560  0D96  18FC               	btfsc	(_bit1/8),(_bit1)&7
  6561  0D97  2D99               	goto	u7291
  6562  0D98  2D9D               	goto	u7290
  6563                           	
  6564  0D99                     u7291:
  6565  0D99  1283               	bcf	status, 5	;RP0=0, select bank0
  6566  0D9A  1303               	bcf	status, 6	;RP1=0, select bank0
  6567  0D9B  1408               	bsf	(64/8),(64)&7
  6568  0D9C  2DA0               	goto	u7304
  6569  0D9D                     u7290:
  6570  0D9D  1283               	bcf	status, 5	;RP0=0, select bank0
  6571  0D9E  1303               	bcf	status, 6	;RP1=0, select bank0
  6572  0D9F  1008               	bcf	(64/8),(64)&7
  6573  0DA0                     u7304:
  6574                           	line	254
  6575                           	
  6576  0DA0                     l5290:	
  6577                           ;lcdV2.h: 254: RC0 = bit2;
  6578  0DA0  197C               	btfsc	(_bit2/8),(_bit2)&7
  6579  0DA1  2DA3               	goto	u7311
  6580  0DA2  2DA7               	goto	u7310
  6581                           	
  6582  0DA3                     u7311:
  6583  0DA3  1283               	bcf	status, 5	;RP0=0, select bank0
  6584  0DA4  1303               	bcf	status, 6	;RP1=0, select bank0
  6585  0DA5  1407               	bsf	(56/8),(56)&7
  6586  0DA6  2DAA               	goto	u7324
  6587  0DA7                     u7310:
  6588  0DA7  1283               	bcf	status, 5	;RP0=0, select bank0
  6589  0DA8  1303               	bcf	status, 6	;RP1=0, select bank0
  6590  0DA9  1007               	bcf	(56/8),(56)&7
  6591  0DAA                     u7324:
  6592                           	line	255
  6593                           	
  6594  0DAA                     l5292:	
  6595                           ;lcdV2.h: 255: RD1 = bit3;
  6596  0DAA  19FC               	btfsc	(_bit3/8),(_bit3)&7
  6597  0DAB  2DAD               	goto	u7331
  6598  0DAC  2DB1               	goto	u7330
  6599                           	
  6600  0DAD                     u7331:
  6601  0DAD  1283               	bcf	status, 5	;RP0=0, select bank0
  6602  0DAE  1303               	bcf	status, 6	;RP1=0, select bank0
  6603  0DAF  1488               	bsf	(65/8),(65)&7
  6604  0DB0  2DB4               	goto	u7344
  6605  0DB1                     u7330:
  6606  0DB1  1283               	bcf	status, 5	;RP0=0, select bank0
  6607  0DB2  1303               	bcf	status, 6	;RP1=0, select bank0
  6608  0DB3  1088               	bcf	(65/8),(65)&7
  6609  0DB4                     u7344:
  6610                           	line	257
  6611                           	
  6612  0DB4                     l5294:	
  6613                           ;lcdV2.h: 257: _delay(1);
  6614                           		opt asmopt_off
  6615  0DB4  0064               	clrwdt
  6616                           	opt asmopt_on
  6617                           
  6618                           	line	258
  6619                           	
  6620  0DB5                     l5296:	
  6621                           ;lcdV2.h: 258: RC3 = 0;
  6622  0DB5  1283               	bcf	status, 5	;RP0=0, select bank0
  6623  0DB6  1303               	bcf	status, 6	;RP1=0, select bank0
  6624  0DB7  1187               	bcf	(59/8),(59)&7
  6625                           	line	259
  6626                           	
  6627  0DB8                     l5298:	
  6628                           ;lcdV2.h: 259: _delay(1);
  6629                           		opt asmopt_off
  6630  0DB8  0064               	clrwdt
  6631                           	opt asmopt_on
  6632                           
  6633                           	line	260
  6634                           	
  6635  0DB9                     l817:	
  6636  0DB9  0008               	return
  6637                           	opt stack 0
  6638                           GLOBAL	__end_of_lcd_add
  6639  0DBA                     	__end_of_lcd_add:
  6640 ;; =============== function _lcd_add ends ============
  6641                           
  6642                           	signat	_lcd_add,88
  6643                           	global	___lwmod
  6644                           psect	text910,local,class=CODE,delta=2
  6645                           global __ptext910
  6646  0917                     __ptext910:
  6647                           
  6648 ;; *************** function ___lwmod *****************
  6649 ;; Defined at:
  6650 ;;		line 5 in file "C:\Program Files (x86)\HI-TECH Software\PICC\9.83\sources\lwmod.c"
  6651 ;; Parameters:    Size  Location     Type
  6652 ;;  divisor         2    8[BANK0 ] unsigned int 
  6653 ;;  dividend        2   10[BANK0 ] unsigned int 
  6654 ;; Auto vars:     Size  Location     Type
  6655 ;;  counter         1   13[BANK0 ] unsigned char 
  6656 ;; Return value:  Size  Location     Type
  6657 ;;                  2    8[BANK0 ] unsigned int 
  6658 ;; Registers used:
  6659 ;;		wreg, status,2, status,0
  6660 ;; Tracked objects:
  6661 ;;		On entry : 0/0
  6662 ;;		On exit  : 0/0
  6663 ;;		Unchanged: 0/0
  6664 ;; Data sizes:     COMMON   BANK0   BANK1   BANK3   BANK2
  6665 ;;      Params:         0       4       0       0       0
  6666 ;;      Locals:         0       1       0       0       0
  6667 ;;      Temps:          0       1       0       0       0
  6668 ;;      Totals:         0       6       0       0       0
  6669 ;;Total ram usage:        6 bytes
  6670 ;; Hardware stack levels used:    1
  6671 ;; Hardware stack levels required when called:    3
  6672 ;; This function calls:
  6673 ;;		Nothing
  6674 ;; This function is called by:
  6675 ;;		_printf
  6676 ;;		_Serial_PrintlnVal
  6677 ;; This function uses a non-reentrant model
  6678 ;;
  6679                           psect	text910
  6680                           	file	"C:\Program Files (x86)\HI-TECH Software\PICC\9.83\sources\lwmod.c"
  6681                           	line	5
  6682                           	global	__size_of___lwmod
  6683  0046                     	__size_of___lwmod	equ	__end_of___lwmod-___lwmod
  6684                           	
  6685  0917                     ___lwmod:	
  6686                           	opt	stack 3
  6687                           ; Regs used in ___lwmod: [wreg+status,2+status,0]
  6688                           	line	8
  6689                           	
  6690  0917                     l5106:	
  6691  0917  1283               	bcf	status, 5	;RP0=0, select bank0
  6692  0918  1303               	bcf	status, 6	;RP1=0, select bank0
  6693  0919  0829               	movf	(___lwmod@divisor+1),w
  6694  091A  0428               	iorwf	(___lwmod@divisor),w
  6695  091B  1903               	skipnz
  6696  091C  291E               	goto	u6451
  6697  091D  291F               	goto	u6450
  6698  091E                     u6451:
  6699  091E  2955               	goto	l5124
  6700  091F                     u6450:
  6701                           	line	9
  6702                           	
  6703  091F                     l5108:	
  6704  091F  01AD               	clrf	(___lwmod@counter)
  6705  0920  1403               	bsf	status,0
  6706  0921  0DAD               	rlf	(___lwmod@counter),f
  6707                           	line	10
  6708  0922  292F               	goto	l5114
  6709                           	
  6710  0923                     l1926:	
  6711                           	line	11
  6712                           	
  6713  0923                     l5110:	
  6714  0923  3001               	movlw	01h
  6715                           	
  6716  0924                     u6465:
  6717  0924  1003               	clrc
  6718  0925  0DA8               	rlf	(___lwmod@divisor),f
  6719  0926  0DA9               	rlf	(___lwmod@divisor+1),f
  6720  0927  3EFF               	addlw	-1
  6721  0928  1D03               	skipz
  6722  0929  2924               	goto	u6465
  6723                           	line	12
  6724                           	
  6725  092A                     l5112:	
  6726  092A  3001               	movlw	(01h)
  6727  092B  00AC               	movwf	(??___lwmod+0)+0
  6728  092C  082C               	movf	(??___lwmod+0)+0,w
  6729  092D  07AD               	addwf	(___lwmod@counter),f
  6730  092E  292F               	goto	l5114
  6731                           	line	13
  6732                           	
  6733  092F                     l1925:	
  6734                           	line	10
  6735                           	
  6736  092F                     l5114:	
  6737  092F  1FA9               	btfss	(___lwmod@divisor+1),(15)&7
  6738  0930  2932               	goto	u6471
  6739  0931  2933               	goto	u6470
  6740  0932                     u6471:
  6741  0932  2923               	goto	l5110
  6742  0933                     u6470:
  6743  0933  2935               	goto	l5116
  6744                           	
  6745  0934                     l1927:	
  6746  0934  2935               	goto	l5116
  6747                           	line	14
  6748                           	
  6749  0935                     l1928:	
  6750                           	line	15
  6751                           	
  6752  0935                     l5116:	
  6753  0935  0829               	movf	(___lwmod@divisor+1),w
  6754  0936  022B               	subwf	(___lwmod@dividend+1),w
  6755  0937  1D03               	skipz
  6756  0938  293B               	goto	u6485
  6757  0939  0828               	movf	(___lwmod@divisor),w
  6758  093A  022A               	subwf	(___lwmod@dividend),w
  6759  093B                     u6485:
  6760  093B  1C03               	skipc
  6761  093C  293E               	goto	u6481
  6762  093D  293F               	goto	u6480
  6763  093E                     u6481:
  6764  093E  2946               	goto	l5120
  6765  093F                     u6480:
  6766                           	line	16
  6767                           	
  6768  093F                     l5118:	
  6769  093F  0828               	movf	(___lwmod@divisor),w
  6770  0940  02AA               	subwf	(___lwmod@dividend),f
  6771  0941  0829               	movf	(___lwmod@divisor+1),w
  6772  0942  1C03               	skipc
  6773  0943  03AB               	decf	(___lwmod@dividend+1),f
  6774  0944  02AB               	subwf	(___lwmod@dividend+1),f
  6775  0945  2946               	goto	l5120
  6776                           	
  6777  0946                     l1929:	
  6778                           	line	17
  6779                           	
  6780  0946                     l5120:	
  6781  0946  3001               	movlw	01h
  6782                           	
  6783  0947                     u6495:
  6784  0947  1003               	clrc
  6785  0948  0CA9               	rrf	(___lwmod@divisor+1),f
  6786  0949  0CA8               	rrf	(___lwmod@divisor),f
  6787  094A  3EFF               	addlw	-1
  6788  094B  1D03               	skipz
  6789  094C  2947               	goto	u6495
  6790                           	line	18
  6791                           	
  6792  094D                     l5122:	
  6793  094D  3001               	movlw	low(01h)
  6794  094E  02AD               	subwf	(___lwmod@counter),f
  6795  094F  1D03               	btfss	status,2
  6796  0950  2952               	goto	u6501
  6797  0951  2953               	goto	u6500
  6798  0952                     u6501:
  6799  0952  2935               	goto	l5116
  6800  0953                     u6500:
  6801  0953  2955               	goto	l5124
  6802                           	
  6803  0954                     l1930:	
  6804  0954  2955               	goto	l5124
  6805                           	line	19
  6806                           	
  6807  0955                     l1924:	
  6808                           	line	20
  6809                           	
  6810  0955                     l5124:	
  6811  0955  082B               	movf	(___lwmod@dividend+1),w
  6812  0956  01A9               	clrf	(?___lwmod+1)
  6813  0957  07A9               	addwf	(?___lwmod+1)
  6814  0958  082A               	movf	(___lwmod@dividend),w
  6815  0959  01A8               	clrf	(?___lwmod)
  6816  095A  07A8               	addwf	(?___lwmod)
  6817                           
  6818  095B  295C               	goto	l1931
  6819                           	
  6820  095C                     l5126:	
  6821                           	line	21
  6822                           	
  6823  095C                     l1931:	
  6824  095C  0008               	return
  6825                           	opt stack 0
  6826                           GLOBAL	__end_of___lwmod
  6827  095D                     	__end_of___lwmod:
  6828 ;; =============== function ___lwmod ends ============
  6829                           
  6830                           	signat	___lwmod,8314
  6831                           	global	___lwdiv
  6832                           psect	text911,local,class=CODE,delta=2
  6833                           global __ptext911
  6834  002B                     __ptext911:
  6835                           
  6836 ;; *************** function ___lwdiv *****************
  6837 ;; Defined at:
  6838 ;;		line 5 in file "C:\Program Files (x86)\HI-TECH Software\PICC\9.83\sources\lwdiv.c"
  6839 ;; Parameters:    Size  Location     Type
  6840 ;;  divisor         2    0[BANK0 ] unsigned int 
  6841 ;;  dividend        2    2[BANK0 ] unsigned int 
  6842 ;; Auto vars:     Size  Location     Type
  6843 ;;  quotient        2    5[BANK0 ] unsigned int 
  6844 ;;  counter         1    7[BANK0 ] unsigned char 
  6845 ;; Return value:  Size  Location     Type
  6846 ;;                  2    0[BANK0 ] unsigned int 
  6847 ;; Registers used:
  6848 ;;		wreg, status,2, status,0
  6849 ;; Tracked objects:
  6850 ;;		On entry : 0/0
  6851 ;;		On exit  : 0/0
  6852 ;;		Unchanged: 0/0
  6853 ;; Data sizes:     COMMON   BANK0   BANK1   BANK3   BANK2
  6854 ;;      Params:         0       4       0       0       0
  6855 ;;      Locals:         0       3       0       0       0
  6856 ;;      Temps:          0       1       0       0       0
  6857 ;;      Totals:         0       8       0       0       0
  6858 ;;Total ram usage:        8 bytes
  6859 ;; Hardware stack levels used:    1
  6860 ;; Hardware stack levels required when called:    3
  6861 ;; This function calls:
  6862 ;;		Nothing
  6863 ;; This function is called by:
  6864 ;;		_printf
  6865 ;;		_Serial_PrintlnVal
  6866 ;; This function uses a non-reentrant model
  6867 ;;
  6868                           psect	text911
  6869                           	file	"C:\Program Files (x86)\HI-TECH Software\PICC\9.83\sources\lwdiv.c"
  6870                           	line	5
  6871                           	global	__size_of___lwdiv
  6872  0050                     	__size_of___lwdiv	equ	__end_of___lwdiv-___lwdiv
  6873                           	
  6874  002B                     ___lwdiv:	
  6875                           	opt	stack 3
  6876                           ; Regs used in ___lwdiv: [wreg+status,2+status,0]
  6877                           	line	9
  6878                           	
  6879  002B                     l5080:	
  6880  002B  1283               	bcf	status, 5	;RP0=0, select bank0
  6881  002C  1303               	bcf	status, 6	;RP1=0, select bank0
  6882  002D  01A5               	clrf	(___lwdiv@quotient)
  6883  002E  01A6               	clrf	(___lwdiv@quotient+1)
  6884                           	line	10
  6885                           	
  6886  002F                     l5082:	
  6887  002F  0821               	movf	(___lwdiv@divisor+1),w
  6888  0030  0420               	iorwf	(___lwdiv@divisor),w
  6889  0031  1903               	skipnz
  6890  0032  2834               	goto	u6381
  6891  0033  2835               	goto	u6380
  6892  0034                     u6381:
  6893  0034  2873               	goto	l5102
  6894  0035                     u6380:
  6895                           	line	11
  6896                           	
  6897  0035                     l5084:	
  6898  0035  01A7               	clrf	(___lwdiv@counter)
  6899  0036  1403               	bsf	status,0
  6900  0037  0DA7               	rlf	(___lwdiv@counter),f
  6901                           	line	12
  6902  0038  2845               	goto	l5090
  6903                           	
  6904  0039                     l1916:	
  6905                           	line	13
  6906                           	
  6907  0039                     l5086:	
  6908  0039  3001               	movlw	01h
  6909                           	
  6910  003A                     u6395:
  6911  003A  1003               	clrc
  6912  003B  0DA0               	rlf	(___lwdiv@divisor),f
  6913  003C  0DA1               	rlf	(___lwdiv@divisor+1),f
  6914  003D  3EFF               	addlw	-1
  6915  003E  1D03               	skipz
  6916  003F  283A               	goto	u6395
  6917                           	line	14
  6918                           	
  6919  0040                     l5088:	
  6920  0040  3001               	movlw	(01h)
  6921  0041  00A4               	movwf	(??___lwdiv+0)+0
  6922  0042  0824               	movf	(??___lwdiv+0)+0,w
  6923  0043  07A7               	addwf	(___lwdiv@counter),f
  6924  0044  2845               	goto	l5090
  6925                           	line	15
  6926                           	
  6927  0045                     l1915:	
  6928                           	line	12
  6929                           	
  6930  0045                     l5090:	
  6931  0045  1FA1               	btfss	(___lwdiv@divisor+1),(15)&7
  6932  0046  2848               	goto	u6401
  6933  0047  2849               	goto	u6400
  6934  0048                     u6401:
  6935  0048  2839               	goto	l5086
  6936  0049                     u6400:
  6937  0049  284B               	goto	l5092
  6938                           	
  6939  004A                     l1917:	
  6940  004A  284B               	goto	l5092
  6941                           	line	16
  6942                           	
  6943  004B                     l1918:	
  6944                           	line	17
  6945                           	
  6946  004B                     l5092:	
  6947  004B  3001               	movlw	01h
  6948                           	
  6949  004C                     u6415:
  6950  004C  1003               	clrc
  6951  004D  0DA5               	rlf	(___lwdiv@quotient),f
  6952  004E  0DA6               	rlf	(___lwdiv@quotient+1),f
  6953  004F  3EFF               	addlw	-1
  6954  0050  1D03               	skipz
  6955  0051  284C               	goto	u6415
  6956                           	line	18
  6957  0052  0821               	movf	(___lwdiv@divisor+1),w
  6958  0053  0223               	subwf	(___lwdiv@dividend+1),w
  6959  0054  1D03               	skipz
  6960  0055  2858               	goto	u6425
  6961  0056  0820               	movf	(___lwdiv@divisor),w
  6962  0057  0222               	subwf	(___lwdiv@dividend),w
  6963  0058                     u6425:
  6964  0058  1C03               	skipc
  6965  0059  285B               	goto	u6421
  6966  005A  285C               	goto	u6420
  6967  005B                     u6421:
  6968  005B  2864               	goto	l5098
  6969  005C                     u6420:
  6970                           	line	19
  6971                           	
  6972  005C                     l5094:	
  6973  005C  0820               	movf	(___lwdiv@divisor),w
  6974  005D  02A2               	subwf	(___lwdiv@dividend),f
  6975  005E  0821               	movf	(___lwdiv@divisor+1),w
  6976  005F  1C03               	skipc
  6977  0060  03A3               	decf	(___lwdiv@dividend+1),f
  6978  0061  02A3               	subwf	(___lwdiv@dividend+1),f
  6979                           	line	20
  6980                           	
  6981  0062                     l5096:	
  6982  0062  1425               	bsf	(___lwdiv@quotient)+(0/8),(0)&7
  6983  0063  2864               	goto	l5098
  6984                           	line	21
  6985                           	
  6986  0064                     l1919:	
  6987                           	line	22
  6988                           	
  6989  0064                     l5098:	
  6990  0064  3001               	movlw	01h
  6991                           	
  6992  0065                     u6435:
  6993  0065  1003               	clrc
  6994  0066  0CA1               	rrf	(___lwdiv@divisor+1),f
  6995  0067  0CA0               	rrf	(___lwdiv@divisor),f
  6996  0068  3EFF               	addlw	-1
  6997  0069  1D03               	skipz
  6998  006A  2865               	goto	u6435
  6999                           	line	23
  7000                           	
  7001  006B                     l5100:	
  7002  006B  3001               	movlw	low(01h)
  7003  006C  02A7               	subwf	(___lwdiv@counter),f
  7004  006D  1D03               	btfss	status,2
  7005  006E  2870               	goto	u6441
  7006  006F  2871               	goto	u6440
  7007  0070                     u6441:
  7008  0070  284B               	goto	l5092
  7009  0071                     u6440:
  7010  0071  2873               	goto	l5102
  7011                           	
  7012  0072                     l1920:	
  7013  0072  2873               	goto	l5102
  7014                           	line	24
  7015                           	
  7016  0073                     l1914:	
  7017                           	line	25
  7018                           	
  7019  0073                     l5102:	
  7020  0073  0826               	movf	(___lwdiv@quotient+1),w
  7021  0074  01A1               	clrf	(?___lwdiv+1)
  7022  0075  07A1               	addwf	(?___lwdiv+1)
  7023  0076  0825               	movf	(___lwdiv@quotient),w
  7024  0077  01A0               	clrf	(?___lwdiv)
  7025  0078  07A0               	addwf	(?___lwdiv)
  7026                           
  7027  0079  287A               	goto	l1921
  7028                           	
  7029  007A                     l5104:	
  7030                           	line	26
  7031                           	
  7032  007A                     l1921:	
  7033  007A  0008               	return
  7034                           	opt stack 0
  7035                           GLOBAL	__end_of___lwdiv
  7036  007B                     	__end_of___lwdiv:
  7037 ;; =============== function ___lwdiv ends ============
  7038                           
  7039                           	signat	___lwdiv,8314
  7040                           	global	___wmul
  7041                           psect	text912,local,class=CODE,delta=2
  7042                           global __ptext912
  7043  1761                     __ptext912:
  7044                           
  7045 ;; *************** function ___wmul *****************
  7046 ;; Defined at:
  7047 ;;		line 3 in file "C:\Program Files (x86)\HI-TECH Software\PICC\9.83\sources\wmul.c"
  7048 ;; Parameters:    Size  Location     Type
  7049 ;;  multiplier      2    0[BANK0 ] unsigned int 
  7050 ;;  multiplicand    2    2[BANK0 ] unsigned int 
  7051 ;; Auto vars:     Size  Location     Type
  7052 ;;  product         2    4[BANK0 ] unsigned int 
  7053 ;; Return value:  Size  Location     Type
  7054 ;;                  2    0[BANK0 ] unsigned int 
  7055 ;; Registers used:
  7056 ;;		wreg, status,2, status,0
  7057 ;; Tracked objects:
  7058 ;;		On entry : 0/0
  7059 ;;		On exit  : 0/0
  7060 ;;		Unchanged: 0/0
  7061 ;; Data sizes:     COMMON   BANK0   BANK1   BANK3   BANK2
  7062 ;;      Params:         0       4       0       0       0
  7063 ;;      Locals:         0       2       0       0       0
  7064 ;;      Temps:          0       0       0       0       0
  7065 ;;      Totals:         0       6       0       0       0
  7066 ;;Total ram usage:        6 bytes
  7067 ;; Hardware stack levels used:    1
  7068 ;; Hardware stack levels required when called:    3
  7069 ;; This function calls:
  7070 ;;		Nothing
  7071 ;; This function is called by:
  7072 ;;		_printf
  7073 ;; This function uses a non-reentrant model
  7074 ;;
  7075                           psect	text912
  7076                           	file	"C:\Program Files (x86)\HI-TECH Software\PICC\9.83\sources\wmul.c"
  7077                           	line	3
  7078                           	global	__size_of___wmul
  7079  002C                     	__size_of___wmul	equ	__end_of___wmul-___wmul
  7080                           	
  7081  1761                     ___wmul:	
  7082                           	opt	stack 3
  7083                           ; Regs used in ___wmul: [wreg+status,2+status,0]
  7084                           	line	4
  7085                           	
  7086  1761                     l5068:	
  7087  1761  1283               	bcf	status, 5	;RP0=0, select bank0
  7088  1762  1303               	bcf	status, 6	;RP1=0, select bank0
  7089  1763  01A4               	clrf	(___wmul@product)
  7090  1764  01A5               	clrf	(___wmul@product+1)
  7091  1765  2F66               	goto	l5070
  7092                           	line	6
  7093                           	
  7094  1766                     l1908:	
  7095                           	line	7
  7096                           	
  7097  1766                     l5070:	
  7098  1766  1C20               	btfss	(___wmul@multiplier),(0)&7
  7099  1767  2F69               	goto	u6341
  7100  1768  2F6A               	goto	u6340
  7101  1769                     u6341:
  7102  1769  2F70               	goto	l1909
  7103  176A                     u6340:
  7104                           	line	8
  7105                           	
  7106  176A                     l5072:	
  7107  176A  0822               	movf	(___wmul@multiplicand),w
  7108  176B  07A4               	addwf	(___wmul@product),f
  7109  176C  1803               	skipnc
  7110  176D  0AA5               	incf	(___wmul@product+1),f
  7111  176E  0823               	movf	(___wmul@multiplicand+1),w
  7112  176F  07A5               	addwf	(___wmul@product+1),f
  7113                           	
  7114  1770                     l1909:	
  7115                           	line	9
  7116  1770  3001               	movlw	01h
  7117                           	
  7118  1771                     u6355:
  7119  1771  1003               	clrc
  7120  1772  0DA2               	rlf	(___wmul@multiplicand),f
  7121  1773  0DA3               	rlf	(___wmul@multiplicand+1),f
  7122  1774  3EFF               	addlw	-1
  7123  1775  1D03               	skipz
  7124  1776  2F71               	goto	u6355
  7125                           	line	10
  7126                           	
  7127  1777                     l5074:	
  7128  1777  3001               	movlw	01h
  7129                           	
  7130  1778                     u6365:
  7131  1778  1003               	clrc
  7132  1779  0CA1               	rrf	(___wmul@multiplier+1),f
  7133  177A  0CA0               	rrf	(___wmul@multiplier),f
  7134  177B  3EFF               	addlw	-1
  7135  177C  1D03               	skipz
  7136  177D  2F78               	goto	u6365
  7137                           	line	11
  7138  177E  0821               	movf	((___wmul@multiplier+1)),w
  7139  177F  0420               	iorwf	((___wmul@multiplier)),w
  7140  1780  1D03               	skipz
  7141  1781  2F83               	goto	u6371
  7142  1782  2F84               	goto	u6370
  7143  1783                     u6371:
  7144  1783  2F66               	goto	l5070
  7145  1784                     u6370:
  7146  1784  2F85               	goto	l5076
  7147                           	
  7148  1785                     l1910:	
  7149                           	line	12
  7150                           	
  7151  1785                     l5076:	
  7152  1785  0825               	movf	(___wmul@product+1),w
  7153  1786  01A1               	clrf	(?___wmul+1)
  7154  1787  07A1               	addwf	(?___wmul+1)
  7155  1788  0824               	movf	(___wmul@product),w
  7156  1789  01A0               	clrf	(?___wmul)
  7157  178A  07A0               	addwf	(?___wmul)
  7158                           
  7159  178B  2F8C               	goto	l1911
  7160                           	
  7161  178C                     l5078:	
  7162                           	line	13
  7163                           	
  7164  178C                     l1911:	
  7165  178C  0008               	return
  7166                           	opt stack 0
  7167                           GLOBAL	__end_of___wmul
  7168  178D                     	__end_of___wmul:
  7169 ;; =============== function ___wmul ends ============
  7170                           
  7171                           	signat	___wmul,8314
  7172                           	global	___bmul
  7173                           psect	text913,local,class=CODE,delta=2
  7174                           global __ptext913
  7175  1685                     __ptext913:
  7176                           
  7177 ;; *************** function ___bmul *****************
  7178 ;; Defined at:
  7179 ;;		line 3 in file "C:\Program Files (x86)\HI-TECH Software\PICC\9.83\sources\bmul.c"
  7180 ;; Parameters:    Size  Location     Type
  7181 ;;  multiplier      1    wreg     unsigned char 
  7182 ;;  multiplicand    1    0[BANK0 ] unsigned char 
  7183 ;; Auto vars:     Size  Location     Type
  7184 ;;  multiplier      1    3[BANK0 ] unsigned char 
  7185 ;;  product         1    2[BANK0 ] unsigned char 
  7186 ;; Return value:  Size  Location     Type
  7187 ;;                  1    wreg      unsigned char 
  7188 ;; Registers used:
  7189 ;;		wreg, status,2, status,0
  7190 ;; Tracked objects:
  7191 ;;		On entry : 0/0
  7192 ;;		On exit  : 0/0
  7193 ;;		Unchanged: 0/0
  7194 ;; Data sizes:     COMMON   BANK0   BANK1   BANK3   BANK2
  7195 ;;      Params:         0       1       0       0       0
  7196 ;;      Locals:         0       2       0       0       0
  7197 ;;      Temps:          0       1       0       0       0
  7198 ;;      Totals:         0       4       0       0       0
  7199 ;;Total ram usage:        4 bytes
  7200 ;; Hardware stack levels used:    1
  7201 ;; Hardware stack levels required when called:    3
  7202 ;; This function calls:
  7203 ;;		Nothing
  7204 ;; This function is called by:
  7205 ;;		_printf
  7206 ;; This function uses a non-reentrant model
  7207 ;;
  7208                           psect	text913
  7209                           	file	"C:\Program Files (x86)\HI-TECH Software\PICC\9.83\sources\bmul.c"
  7210                           	line	3
  7211                           	global	__size_of___bmul
  7212  001A                     	__size_of___bmul	equ	__end_of___bmul-___bmul
  7213                           	
  7214  1685                     ___bmul:	
  7215                           	opt	stack 3
  7216                           ; Regs used in ___bmul: [wreg+status,2+status,0]
  7217                           ;___bmul@multiplier stored from wreg
  7218  1685  1283               	bcf	status, 5	;RP0=0, select bank0
  7219  1686  1303               	bcf	status, 6	;RP1=0, select bank0
  7220  1687  00A3               	movwf	(___bmul@multiplier)
  7221                           	line	4
  7222                           	
  7223  1688                     l5054:	
  7224  1688  01A2               	clrf	(___bmul@product)
  7225                           	line	6
  7226                           	
  7227  1689                     l1902:	
  7228                           	line	7
  7229  1689  1C23               	btfss	(___bmul@multiplier),(0)&7
  7230  168A  2E8C               	goto	u6321
  7231  168B  2E8D               	goto	u6320
  7232  168C                     u6321:
  7233  168C  2E92               	goto	l5058
  7234  168D                     u6320:
  7235                           	line	8
  7236                           	
  7237  168D                     l5056:	
  7238  168D  0820               	movf	(___bmul@multiplicand),w
  7239  168E  00A1               	movwf	(??___bmul+0)+0
  7240  168F  0821               	movf	(??___bmul+0)+0,w
  7241  1690  07A2               	addwf	(___bmul@product),f
  7242  1691  2E92               	goto	l5058
  7243                           	
  7244  1692                     l1903:	
  7245                           	line	9
  7246                           	
  7247  1692                     l5058:	
  7248  1692  1003               	clrc
  7249  1693  0DA0               	rlf	(___bmul@multiplicand),f
  7250                           
  7251                           	line	10
  7252                           	
  7253  1694                     l5060:	
  7254  1694  1003               	clrc
  7255  1695  0CA3               	rrf	(___bmul@multiplier),f
  7256                           
  7257                           	line	11
  7258                           	
  7259  1696                     l5062:	
  7260  1696  08A3               	movf	(___bmul@multiplier),f
  7261  1697  1D03               	skipz
  7262  1698  2E9A               	goto	u6331
  7263  1699  2E9B               	goto	u6330
  7264  169A                     u6331:
  7265  169A  2E89               	goto	l1902
  7266  169B                     u6330:
  7267  169B  2E9C               	goto	l5064
  7268                           	
  7269  169C                     l1904:	
  7270                           	line	12
  7271                           	
  7272  169C                     l5064:	
  7273  169C  0822               	movf	(___bmul@product),w
  7274  169D  2E9E               	goto	l1905
  7275                           	
  7276  169E                     l5066:	
  7277                           	line	13
  7278                           	
  7279  169E                     l1905:	
  7280  169E  0008               	return
  7281                           	opt stack 0
  7282                           GLOBAL	__end_of___bmul
  7283  169F                     	__end_of___bmul:
  7284 ;; =============== function ___bmul ends ============
  7285                           
  7286                           	signat	___bmul,8313
  7287                           	global	_isdigit
  7288                           psect	text914,local,class=CODE,delta=2
  7289                           global __ptext914
  7290  166E                     __ptext914:
  7291                           
  7292 ;; *************** function _isdigit *****************
  7293 ;; Defined at:
  7294 ;;		line 13 in file "C:\Program Files (x86)\HI-TECH Software\PICC\9.83\sources\isdigit.c"
  7295 ;; Parameters:    Size  Location     Type
  7296 ;;  c               1    wreg     unsigned char 
  7297 ;; Auto vars:     Size  Location     Type
  7298 ;;  c               1    1[BANK0 ] unsigned char 
  7299 ;; Return value:  Size  Location     Type
  7300 ;;		None               void
  7301 ;; Registers used:
  7302 ;;		wreg, status,2, status,0
  7303 ;; Tracked objects:
  7304 ;;		On entry : 0/0
  7305 ;;		On exit  : 0/0
  7306 ;;		Unchanged: 0/0
  7307 ;; Data sizes:     COMMON   BANK0   BANK1   BANK3   BANK2
  7308 ;;      Params:         0       0       0       0       0
  7309 ;;      Locals:         0       2       0       0       0
  7310 ;;      Temps:          0       0       0       0       0
  7311 ;;      Totals:         0       2       0       0       0
  7312 ;;Total ram usage:        2 bytes
  7313 ;; Hardware stack levels used:    1
  7314 ;; Hardware stack levels required when called:    3
  7315 ;; This function calls:
  7316 ;;		Nothing
  7317 ;; This function is called by:
  7318 ;;		_printf
  7319 ;; This function uses a non-reentrant model
  7320 ;;
  7321                           psect	text914
  7322                           	file	"C:\Program Files (x86)\HI-TECH Software\PICC\9.83\sources\isdigit.c"
  7323                           	global	__size_of_isdigit
  7324  0017                     	__size_of_isdigit	equ	__end_of_isdigit-_isdigit
  7325                           	
  7326  166E                     _isdigit:	
  7327                           	opt	stack 3
  7328                           ; Regs used in _isdigit: [wreg+status,2+status,0]
  7329                           ;isdigit@c stored from wreg
  7330  166E  1283               	bcf	status, 5	;RP0=0, select bank0
  7331  166F  1303               	bcf	status, 6	;RP1=0, select bank0
  7332  1670  00A1               	movwf	(isdigit@c)
  7333                           	line	14
  7334                           	
  7335  1671                     l5042:	
  7336  1671  01A0               	clrf	(_isdigit$1773)
  7337                           	
  7338  1672                     l5044:	
  7339  1672  303A               	movlw	(03Ah)
  7340  1673  0221               	subwf	(isdigit@c),w
  7341  1674  1803               	skipnc
  7342  1675  2E77               	goto	u6301
  7343  1676  2E78               	goto	u6300
  7344  1677                     u6301:
  7345  1677  2E82               	goto	l5050
  7346  1678                     u6300:
  7347                           	
  7348  1678                     l5046:	
  7349  1678  3030               	movlw	(030h)
  7350  1679  0221               	subwf	(isdigit@c),w
  7351  167A  1C03               	skipc
  7352  167B  2E7D               	goto	u6311
  7353  167C  2E7E               	goto	u6310
  7354  167D                     u6311:
  7355  167D  2E82               	goto	l5050
  7356  167E                     u6310:
  7357                           	
  7358  167E                     l5048:	
  7359  167E  01A0               	clrf	(_isdigit$1773)
  7360  167F  1403               	bsf	status,0
  7361  1680  0DA0               	rlf	(_isdigit$1773),f
  7362  1681  2E82               	goto	l5050
  7363                           	
  7364  1682                     l1898:	
  7365                           	
  7366  1682                     l5050:	
  7367  1682  0C20               	rrf	(_isdigit$1773),w
  7368                           	
  7369  1683  2E84               	goto	l1899
  7370                           	
  7371  1684                     l5052:	
  7372                           	line	15
  7373                           	
  7374  1684                     l1899:	
  7375  1684  0008               	return
  7376                           	opt stack 0
  7377                           GLOBAL	__end_of_isdigit
  7378  1685                     	__end_of_isdigit:
  7379 ;; =============== function _isdigit ends ============
  7380                           
  7381                           	signat	_isdigit,4216
  7382                           	global	_RowNo
  7383                           psect	text915,local,class=CODE,delta=2
  7384                           global __ptext915
  7385  178D                     __ptext915:
  7386                           
  7387 ;; *************** function _RowNo *****************
  7388 ;; Defined at:
  7389 ;;		line 296 in file "D:\ELECTRONIC\2016\1. Automated Solar Panel Orientation Setter\Firmware\ver2\Automated Solar Panel
        Orientation Setter.c"
  7390 ;; Parameters:    Size  Location     Type
  7391 ;;		None
  7392 ;; Auto vars:     Size  Location     Type
  7393 ;;  row             2    2[BANK0 ] int 
  7394 ;; Return value:  Size  Location     Type
  7395 ;;                  2    0[BANK0 ] int 
  7396 ;; Registers used:
  7397 ;;		wreg, status,2, status,0
  7398 ;; Tracked objects:
  7399 ;;		On entry : 0/0
  7400 ;;		On exit  : 0/0
  7401 ;;		Unchanged: 0/0
  7402 ;; Data sizes:     COMMON   BANK0   BANK1   BANK3   BANK2
  7403 ;;      Params:         0       2       0       0       0
  7404 ;;      Locals:         0       2       0       0       0
  7405 ;;      Temps:          0       0       0       0       0
  7406 ;;      Totals:         0       4       0       0       0
  7407 ;;Total ram usage:        4 bytes
  7408 ;; Hardware stack levels used:    1
  7409 ;; Hardware stack levels required when called:    3
  7410 ;; This function calls:
  7411 ;;		Nothing
  7412 ;; This function is called by:
  7413 ;;		_CheckKeyPad
  7414 ;; This function uses a non-reentrant model
  7415 ;;
  7416                           psect	text915
  7417                           	file	"D:\ELECTRONIC\2016\1. Automated Solar Panel Orientation Setter\Firmware\ver2\Auto
                                 mated Solar Panel Orientation Setter.c"
  7418                           	line	296
  7419                           	global	__size_of_RowNo
  7420  0034                     	__size_of_RowNo	equ	__end_of_RowNo-_RowNo
  7421                           	
  7422  178D                     _RowNo:	
  7423                           	opt	stack 3
  7424                           ; Regs used in _RowNo: [wreg+status,2+status,0]
  7425                           	line	298
  7426                           	
  7427  178D                     l4848:	
  7428                           ;Automated Solar Panel Orientation Setter.c: 297: int row;
  7429                           ;Automated Solar Panel Orientation Setter.c: 298: if( RD2!=1){
  7430  178D  1283               	bcf	status, 5	;RP0=0, select bank0
  7431  178E  1303               	bcf	status, 6	;RP1=0, select bank0
  7432  178F  1908               	btfsc	(66/8),(66)&7
  7433  1790  2F92               	goto	u5811
  7434  1791  2F93               	goto	u5810
  7435  1792                     u5811:
  7436  1792  2F98               	goto	l988
  7437  1793                     u5810:
  7438                           	line	299
  7439                           	
  7440  1793                     l4850:	
  7441                           ;Automated Solar Panel Orientation Setter.c: 299: row = 1;
  7442  1793  3001               	movlw	low(01h)
  7443  1794  00A2               	movwf	(RowNo@row)
  7444  1795  3000               	movlw	high(01h)
  7445  1796  00A3               	movwf	((RowNo@row))+1
  7446                           	line	300
  7447                           ;Automated Solar Panel Orientation Setter.c: 300: }
  7448  1797  2FB9               	goto	l4860
  7449                           	line	301
  7450                           	
  7451  1798                     l988:	
  7452                           ;Automated Solar Panel Orientation Setter.c: 301: else if( RD7!=1 ){
  7453  1798  1B88               	btfsc	(71/8),(71)&7
  7454  1799  2F9B               	goto	u5821
  7455  179A  2F9C               	goto	u5820
  7456  179B                     u5821:
  7457  179B  2FA1               	goto	l990
  7458  179C                     u5820:
  7459                           	line	302
  7460                           	
  7461  179C                     l4852:	
  7462                           ;Automated Solar Panel Orientation Setter.c: 302: row = 2;
  7463  179C  3002               	movlw	low(02h)
  7464  179D  00A2               	movwf	(RowNo@row)
  7465  179E  3000               	movlw	high(02h)
  7466  179F  00A3               	movwf	((RowNo@row))+1
  7467                           	line	303
  7468                           ;Automated Solar Panel Orientation Setter.c: 303: }
  7469  17A0  2FB9               	goto	l4860
  7470                           	line	304
  7471                           	
  7472  17A1                     l990:	
  7473                           ;Automated Solar Panel Orientation Setter.c: 304: else if( RD3!=1 ){
  7474  17A1  1988               	btfsc	(67/8),(67)&7
  7475  17A2  2FA4               	goto	u5831
  7476  17A3  2FA5               	goto	u5830
  7477  17A4                     u5831:
  7478  17A4  2FAA               	goto	l992
  7479  17A5                     u5830:
  7480                           	line	305
  7481                           	
  7482  17A5                     l4854:	
  7483                           ;Automated Solar Panel Orientation Setter.c: 305: row = 3;
  7484  17A5  3003               	movlw	low(03h)
  7485  17A6  00A2               	movwf	(RowNo@row)
  7486  17A7  3000               	movlw	high(03h)
  7487  17A8  00A3               	movwf	((RowNo@row))+1
  7488                           	line	306
  7489                           ;Automated Solar Panel Orientation Setter.c: 306: }
  7490  17A9  2FB9               	goto	l4860
  7491                           	line	307
  7492                           	
  7493  17AA                     l992:	
  7494                           ;Automated Solar Panel Orientation Setter.c: 307: else if( RD6!=1 ){
  7495  17AA  1B08               	btfsc	(70/8),(70)&7
  7496  17AB  2FAD               	goto	u5841
  7497  17AC  2FAE               	goto	u5840
  7498  17AD                     u5841:
  7499  17AD  2FB3               	goto	l4858
  7500  17AE                     u5840:
  7501                           	line	308
  7502                           	
  7503  17AE                     l4856:	
  7504                           ;Automated Solar Panel Orientation Setter.c: 308: row = 4;
  7505  17AE  3004               	movlw	low(04h)
  7506  17AF  00A2               	movwf	(RowNo@row)
  7507  17B0  3000               	movlw	high(04h)
  7508  17B1  00A3               	movwf	((RowNo@row))+1
  7509                           	line	309
  7510                           ;Automated Solar Panel Orientation Setter.c: 309: }
  7511  17B2  2FB9               	goto	l4860
  7512                           	line	310
  7513                           	
  7514  17B3                     l994:	
  7515                           	line	311
  7516                           	
  7517  17B3                     l4858:	
  7518                           ;Automated Solar Panel Orientation Setter.c: 310: else{
  7519                           ;Automated Solar Panel Orientation Setter.c: 311: row = 0;
  7520  17B3  01A2               	clrf	(RowNo@row)
  7521  17B4  01A3               	clrf	(RowNo@row+1)
  7522  17B5  2FB9               	goto	l4860
  7523                           	line	312
  7524                           	
  7525  17B6                     l995:	
  7526  17B6  2FB9               	goto	l4860
  7527                           	
  7528  17B7                     l993:	
  7529  17B7  2FB9               	goto	l4860
  7530                           	
  7531  17B8                     l991:	
  7532  17B8  2FB9               	goto	l4860
  7533                           	
  7534  17B9                     l989:	
  7535                           	line	313
  7536                           	
  7537  17B9                     l4860:	
  7538                           ;Automated Solar Panel Orientation Setter.c: 312: }
  7539                           ;Automated Solar Panel Orientation Setter.c: 313: return row;
  7540  17B9  0823               	movf	(RowNo@row+1),w
  7541  17BA  01A1               	clrf	(?_RowNo+1)
  7542  17BB  07A1               	addwf	(?_RowNo+1)
  7543  17BC  0822               	movf	(RowNo@row),w
  7544  17BD  01A0               	clrf	(?_RowNo)
  7545  17BE  07A0               	addwf	(?_RowNo)
  7546                           
  7547  17BF  2FC0               	goto	l996
  7548                           	
  7549  17C0                     l4862:	
  7550                           	line	314
  7551                           	
  7552  17C0                     l996:	
  7553  17C0  0008               	return
  7554                           	opt stack 0
  7555                           GLOBAL	__end_of_RowNo
  7556  17C1                     	__end_of_RowNo:
  7557 ;; =============== function _RowNo ends ============
  7558                           
  7559                           	signat	_RowNo,90
  7560                           	global	_Timer1_Init
  7561                           psect	text916,local,class=CODE,delta=2
  7562                           global __ptext916
  7563  165F                     __ptext916:
  7564                           
  7565 ;; *************** function _Timer1_Init *****************
  7566 ;; Defined at:
  7567 ;;		line 4 in file "D:\ELECTRONIC\2016\1. Automated Solar Panel Orientation Setter\Firmware\ver2\timer1.h"
  7568 ;; Parameters:    Size  Location     Type
  7569 ;;		None
  7570 ;; Auto vars:     Size  Location     Type
  7571 ;;		None
  7572 ;; Return value:  Size  Location     Type
  7573 ;;		None               void
  7574 ;; Registers used:
  7575 ;;		wreg
  7576 ;; Tracked objects:
  7577 ;;		On entry : 0/0
  7578 ;;		On exit  : 0/0
  7579 ;;		Unchanged: 0/0
  7580 ;; Data sizes:     COMMON   BANK0   BANK1   BANK3   BANK2
  7581 ;;      Params:         0       0       0       0       0
  7582 ;;      Locals:         0       0       0       0       0
  7583 ;;      Temps:          0       0       0       0       0
  7584 ;;      Totals:         0       0       0       0       0
  7585 ;;Total ram usage:        0 bytes
  7586 ;; Hardware stack levels used:    1
  7587 ;; Hardware stack levels required when called:    3
  7588 ;; This function calls:
  7589 ;;		Nothing
  7590 ;; This function is called by:
  7591 ;;		_main
  7592 ;; This function uses a non-reentrant model
  7593 ;;
  7594                           psect	text916
  7595                           	file	"D:\ELECTRONIC\2016\1. Automated Solar Panel Orientation Setter\Firmware\ver2\time
                                 r1.h"
  7596                           	line	4
  7597                           	global	__size_of_Timer1_Init
  7598  000F                     	__size_of_Timer1_Init	equ	__end_of_Timer1_Init-_Timer1_Init
  7599                           	
  7600  165F                     _Timer1_Init:	
  7601                           	opt	stack 4
  7602                           ; Regs used in _Timer1_Init: [wreg]
  7603                           	line	6
  7604                           	
  7605  165F                     l4842:	
  7606                           ;timer1.h: 6: T1CKPS1 = 0;
  7607  165F  1283               	bcf	status, 5	;RP0=0, select bank0
  7608  1660  1303               	bcf	status, 6	;RP1=0, select bank0
  7609  1661  1290               	bcf	(133/8),(133)&7
  7610                           	line	7
  7611                           ;timer1.h: 7: T1CKPS0 = 1;
  7612  1662  1610               	bsf	(132/8),(132)&7
  7613                           	line	8
  7614                           ;timer1.h: 8: TMR1CS = 0;
  7615  1663  1090               	bcf	(129/8),(129)&7
  7616                           	line	9
  7617                           ;timer1.h: 9: TMR1ON = 1;
  7618  1664  1410               	bsf	(128/8),(128)&7
  7619                           	line	10
  7620                           ;timer1.h: 10: T1OSCEN = 0;
  7621  1665  1190               	bcf	(131/8),(131)&7
  7622                           	line	11
  7623                           	
  7624  1666                     l4844:	
  7625                           ;timer1.h: 11: TMR1L = 0xB0;
  7626  1666  30B0               	movlw	(0B0h)
  7627  1667  008E               	movwf	(14)	;volatile
  7628                           	line	12
  7629                           ;timer1.h: 12: TMR1H = 60;
  7630  1668  303C               	movlw	(03Ch)
  7631  1669  008F               	movwf	(15)	;volatile
  7632                           	line	13
  7633                           	
  7634  166A                     l4846:	
  7635                           ;timer1.h: 13: TMR1IE = 1;
  7636  166A  1683               	bsf	status, 5	;RP0=1, select bank1
  7637  166B  1303               	bcf	status, 6	;RP1=0, select bank1
  7638  166C  140C               	bsf	(1120/8)^080h,(1120)&7
  7639                           	line	14
  7640                           	
  7641  166D                     l886:	
  7642  166D  0008               	return
  7643                           	opt stack 0
  7644                           GLOBAL	__end_of_Timer1_Init
  7645  166E                     	__end_of_Timer1_Init:
  7646 ;; =============== function _Timer1_Init ends ============
  7647                           
  7648                           	signat	_Timer1_Init,88
  7649                           	global	_enableInterrupt
  7650                           psect	text917,local,class=CODE,delta=2
  7651                           global __ptext917
  7652  0018                     __ptext917:
  7653                           
  7654 ;; *************** function _enableInterrupt *****************
  7655 ;; Defined at:
  7656 ;;		line 7 in file "D:\ELECTRONIC\2016\1. Automated Solar Panel Orientation Setter\Firmware\ver2\interrupts.h"
  7657 ;; Parameters:    Size  Location     Type
  7658 ;;		None
  7659 ;; Auto vars:     Size  Location     Type
  7660 ;;		None
  7661 ;; Return value:  Size  Location     Type
  7662 ;;		None               void
  7663 ;; Registers used:
  7664 ;;		None
  7665 ;; Tracked objects:
  7666 ;;		On entry : 0/0
  7667 ;;		On exit  : 0/0
  7668 ;;		Unchanged: 0/0
  7669 ;; Data sizes:     COMMON   BANK0   BANK1   BANK3   BANK2
  7670 ;;      Params:         0       0       0       0       0
  7671 ;;      Locals:         0       0       0       0       0
  7672 ;;      Temps:          0       0       0       0       0
  7673 ;;      Totals:         0       0       0       0       0
  7674 ;;Total ram usage:        0 bytes
  7675 ;; Hardware stack levels used:    1
  7676 ;; Hardware stack levels required when called:    3
  7677 ;; This function calls:
  7678 ;;		Nothing
  7679 ;; This function is called by:
  7680 ;;		_main
  7681 ;; This function uses a non-reentrant model
  7682 ;;
  7683                           psect	text917
  7684                           	file	"D:\ELECTRONIC\2016\1. Automated Solar Panel Orientation Setter\Firmware\ver2\inte
                                 rrupts.h"
  7685                           	line	7
  7686                           	global	__size_of_enableInterrupt
  7687  0013                     	__size_of_enableInterrupt	equ	__end_of_enableInterrupt-_enableInterrupt
  7688                           	
  7689  0018                     _enableInterrupt:	
  7690                           	opt	stack 4
  7691                           ; Regs used in _enableInterrupt: []
  7692                           	line	9
  7693                           	
  7694  0018                     l4840:	
  7695                           ;interrupts.h: 9: RBIE = 0;
  7696  0018  118B               	bcf	(91/8),(91)&7
  7697                           	line	10
  7698                           ;interrupts.h: 10: INTE = 0;
  7699  0019  120B               	bcf	(92/8),(92)&7
  7700                           	line	12
  7701                           ;interrupts.h: 12: PSPIE = 0;
  7702  001A  1683               	bsf	status, 5	;RP0=1, select bank1
  7703  001B  1303               	bcf	status, 6	;RP1=0, select bank1
  7704  001C  138C               	bcf	(1127/8)^080h,(1127)&7
  7705                           	line	13
  7706                           ;interrupts.h: 13: ADIE = 0;
  7707  001D  130C               	bcf	(1126/8)^080h,(1126)&7
  7708                           	line	15
  7709                           ;interrupts.h: 15: TXIE = 0;
  7710  001E  120C               	bcf	(1124/8)^080h,(1124)&7
  7711                           	line	16
  7712                           ;interrupts.h: 16: RCIE = 1;
  7713  001F  168C               	bsf	(1125/8)^080h,(1125)&7
  7714                           	line	18
  7715                           ;interrupts.h: 18: SSPIE = 0;
  7716  0020  118C               	bcf	(1123/8)^080h,(1123)&7
  7717                           	line	19
  7718                           ;interrupts.h: 19: CCP1IE = 0;
  7719  0021  110C               	bcf	(1122/8)^080h,(1122)&7
  7720                           	line	21
  7721                           ;interrupts.h: 21: TMR1IE = 1;
  7722  0022  140C               	bsf	(1120/8)^080h,(1120)&7
  7723                           	line	22
  7724                           ;interrupts.h: 22: TMR2IE = 0;
  7725  0023  108C               	bcf	(1121/8)^080h,(1121)&7
  7726                           	line	23
  7727                           ;interrupts.h: 23: T0IE = 0;
  7728  0024  128B               	bcf	(93/8),(93)&7
  7729                           	line	25
  7730                           ;interrupts.h: 25: EEIE = 0;
  7731  0025  120D               	bcf	(1132/8)^080h,(1132)&7
  7732                           	line	26
  7733                           ;interrupts.h: 26: BCLIE = 0;
  7734  0026  118D               	bcf	(1131/8)^080h,(1131)&7
  7735                           	line	27
  7736                           ;interrupts.h: 27: CCP2IE = 0;
  7737  0027  100D               	bcf	(1128/8)^080h,(1128)&7
  7738                           	line	30
  7739                           ;interrupts.h: 30: GIE = 1;
  7740  0028  178B               	bsf	(95/8),(95)&7
  7741                           	line	31
  7742                           ;interrupts.h: 31: PEIE = 1;
  7743  0029  170B               	bsf	(94/8),(94)&7
  7744                           	line	32
  7745                           	
  7746  002A                     l883:	
  7747  002A  0008               	return
  7748                           	opt stack 0
  7749                           GLOBAL	__end_of_enableInterrupt
  7750  002B                     	__end_of_enableInterrupt:
  7751 ;; =============== function _enableInterrupt ends ============
  7752                           
  7753                           	signat	_enableInterrupt,88
  7754                           	global	_atod_init
  7755                           psect	text918,local,class=CODE,delta=2
  7756                           global __ptext918
  7757  1656                     __ptext918:
  7758                           
  7759 ;; *************** function _atod_init *****************
  7760 ;; Defined at:
  7761 ;;		line 9 in file "D:\ELECTRONIC\2016\1. Automated Solar Panel Orientation Setter\Firmware\ver2\a2d.h"
  7762 ;; Parameters:    Size  Location     Type
  7763 ;;		None
  7764 ;; Auto vars:     Size  Location     Type
  7765 ;;		None
  7766 ;; Return value:  Size  Location     Type
  7767 ;;		None               void
  7768 ;; Registers used:
  7769 ;;		wreg
  7770 ;; Tracked objects:
  7771 ;;		On entry : 0/0
  7772 ;;		On exit  : 0/0
  7773 ;;		Unchanged: 0/0
  7774 ;; Data sizes:     COMMON   BANK0   BANK1   BANK3   BANK2
  7775 ;;      Params:         0       0       0       0       0
  7776 ;;      Locals:         0       0       0       0       0
  7777 ;;      Temps:          0       0       0       0       0
  7778 ;;      Totals:         0       0       0       0       0
  7779 ;;Total ram usage:        0 bytes
  7780 ;; Hardware stack levels used:    1
  7781 ;; Hardware stack levels required when called:    3
  7782 ;; This function calls:
  7783 ;;		Nothing
  7784 ;; This function is called by:
  7785 ;;		_main
  7786 ;; This function uses a non-reentrant model
  7787 ;;
  7788                           psect	text918
  7789                           	file	"D:\ELECTRONIC\2016\1. Automated Solar Panel Orientation Setter\Firmware\ver2\a2d.
                                 h"
  7790                           	line	9
  7791                           	global	__size_of_atod_init
  7792  0009                     	__size_of_atod_init	equ	__end_of_atod_init-_atod_init
  7793                           	
  7794  1656                     _atod_init:	
  7795                           	opt	stack 4
  7796                           ; Regs used in _atod_init: [wreg]
  7797                           	line	10
  7798                           	
  7799  1656                     l4796:	
  7800                           ;a2d.h: 10: ADCON0 = 0b01000000;
  7801  1656  3040               	movlw	(040h)
  7802  1657  1283               	bcf	status, 5	;RP0=0, select bank0
  7803  1658  1303               	bcf	status, 6	;RP1=0, select bank0
  7804  1659  009F               	movwf	(31)	;volatile
  7805                           	line	11
  7806                           ;a2d.h: 11: ADCON1 = 0b10000100;
  7807  165A  3084               	movlw	(084h)
  7808  165B  1683               	bsf	status, 5	;RP0=1, select bank1
  7809  165C  1303               	bcf	status, 6	;RP1=0, select bank1
  7810  165D  009F               	movwf	(159)^080h	;volatile
  7811                           	line	12
  7812                           	
  7813  165E                     l823:	
  7814  165E  0008               	return
  7815                           	opt stack 0
  7816                           GLOBAL	__end_of_atod_init
  7817  165F                     	__end_of_atod_init:
  7818 ;; =============== function _atod_init ends ============
  7819                           
  7820                           	signat	_atod_init,88
  7821                           	global	_lcd_init
  7822                           psect	text919,local,class=CODE,delta=2
  7823                           global __ptext919
  7824  0A1E                     __ptext919:
  7825                           
  7826 ;; *************** function _lcd_init *****************
  7827 ;; Defined at:
  7828 ;;		line 60 in file "D:\ELECTRONIC\2016\1. Automated Solar Panel Orientation Setter\Firmware\ver2\lcdV2.h"
  7829 ;; Parameters:    Size  Location     Type
  7830 ;;		None
  7831 ;; Auto vars:     Size  Location     Type
  7832 ;;  DelayLCD        2    0[BANK0 ] unsigned int 
  7833 ;; Return value:  Size  Location     Type
  7834 ;;		None               void
  7835 ;; Registers used:
  7836 ;;		wreg, status,2
  7837 ;; Tracked objects:
  7838 ;;		On entry : 0/0
  7839 ;;		On exit  : 0/0
  7840 ;;		Unchanged: 0/0
  7841 ;; Data sizes:     COMMON   BANK0   BANK1   BANK3   BANK2
  7842 ;;      Params:         0       0       0       0       0
  7843 ;;      Locals:         0       2       0       0       0
  7844 ;;      Temps:          0       0       0       0       0
  7845 ;;      Totals:         0       2       0       0       0
  7846 ;;Total ram usage:        2 bytes
  7847 ;; Hardware stack levels used:    1
  7848 ;; Hardware stack levels required when called:    3
  7849 ;; This function calls:
  7850 ;;		Nothing
  7851 ;; This function is called by:
  7852 ;;		_main
  7853 ;; This function uses a non-reentrant model
  7854 ;;
  7855                           psect	text919
  7856                           	file	"D:\ELECTRONIC\2016\1. Automated Solar Panel Orientation Setter\Firmware\ver2\lcdV
                                 2.h"
  7857                           	line	60
  7858                           	global	__size_of_lcd_init
  7859  00D2                     	__size_of_lcd_init	equ	__end_of_lcd_init-_lcd_init
  7860                           	
  7861  0A1E                     _lcd_init:	
  7862                           	opt	stack 4
  7863                           ; Regs used in _lcd_init: [wreg+status,2]
  7864                           	line	62
  7865                           	
  7866  0A1E                     l4738:	
  7867                           ;lcdV2.h: 62: RC3 = 0;
  7868  0A1E  1283               	bcf	status, 5	;RP0=0, select bank0
  7869  0A1F  1303               	bcf	status, 6	;RP1=0, select bank0
  7870  0A20  1187               	bcf	(59/8),(59)&7
  7871                           	line	66
  7872                           ;lcdV2.h: 64: unsigned int DelayLCD;
  7873                           ;lcdV2.h: 66: RC2 = 0;
  7874  0A21  1107               	bcf	(58/8),(58)&7
  7875                           	line	67
  7876                           ;lcdV2.h: 67: RD1 = 0;
  7877  0A22  1088               	bcf	(65/8),(65)&7
  7878                           	line	68
  7879                           ;lcdV2.h: 68: RC0 = 0;
  7880  0A23  1007               	bcf	(56/8),(56)&7
  7881                           	line	69
  7882                           ;lcdV2.h: 69: RD0 = 1;
  7883  0A24  1408               	bsf	(64/8),(64)&7
  7884                           	line	70
  7885                           ;lcdV2.h: 70: RC1 = 0;
  7886  0A25  1087               	bcf	(57/8),(57)&7
  7887                           	line	71
  7888                           ;lcdV2.h: 71: RC3 = 1;
  7889  0A26  1587               	bsf	(59/8),(59)&7
  7890                           	line	72
  7891                           ;lcdV2.h: 72: RC3 = 0;
  7892  0A27  1187               	bcf	(59/8),(59)&7
  7893                           	line	73
  7894                           ;lcdV2.h: 73: RD1 = 1;
  7895  0A28  1488               	bsf	(65/8),(65)&7
  7896                           	line	74
  7897                           ;lcdV2.h: 74: RC0 = 0;
  7898  0A29  1007               	bcf	(56/8),(56)&7
  7899                           	line	75
  7900                           ;lcdV2.h: 75: RD0 = 0;
  7901  0A2A  1008               	bcf	(64/8),(64)&7
  7902                           	line	76
  7903                           ;lcdV2.h: 76: RC1 = 0;
  7904  0A2B  1087               	bcf	(57/8),(57)&7
  7905                           	line	77
  7906                           ;lcdV2.h: 77: RC3 = 1;
  7907  0A2C  1587               	bsf	(59/8),(59)&7
  7908                           	line	78
  7909                           ;lcdV2.h: 78: RC3 = 0;
  7910  0A2D  1187               	bcf	(59/8),(59)&7
  7911                           	line	79
  7912                           	
  7913  0A2E                     l4740:	
  7914                           ;lcdV2.h: 79: for(DelayLCD=0;DelayLCD<2500;DelayLCD++);
  7915  0A2E  01A0               	clrf	(lcd_init@DelayLCD)
  7916  0A2F  01A1               	clrf	(lcd_init@DelayLCD+1)
  7917                           	
  7918  0A30                     l4742:	
  7919  0A30  3009               	movlw	high(09C4h)
  7920  0A31  0221               	subwf	(lcd_init@DelayLCD+1),w
  7921  0A32  30C4               	movlw	low(09C4h)
  7922  0A33  1903               	skipnz
  7923  0A34  0220               	subwf	(lcd_init@DelayLCD),w
  7924  0A35  1C03               	skipc
  7925  0A36  2A38               	goto	u5611
  7926  0A37  2A39               	goto	u5610
  7927  0A38                     u5611:
  7928  0A38  2A3B               	goto	l4746
  7929  0A39                     u5610:
  7930  0A39  2A4A               	goto	l783
  7931                           	
  7932  0A3A                     l4744:	
  7933  0A3A  2A4A               	goto	l783
  7934                           	
  7935  0A3B                     l782:	
  7936                           	
  7937  0A3B                     l4746:	
  7938  0A3B  3001               	movlw	low(01h)
  7939  0A3C  07A0               	addwf	(lcd_init@DelayLCD),f
  7940  0A3D  1803               	skipnc
  7941  0A3E  0AA1               	incf	(lcd_init@DelayLCD+1),f
  7942  0A3F  3000               	movlw	high(01h)
  7943  0A40  07A1               	addwf	(lcd_init@DelayLCD+1),f
  7944  0A41  3009               	movlw	high(09C4h)
  7945  0A42  0221               	subwf	(lcd_init@DelayLCD+1),w
  7946  0A43  30C4               	movlw	low(09C4h)
  7947  0A44  1903               	skipnz
  7948  0A45  0220               	subwf	(lcd_init@DelayLCD),w
  7949  0A46  1C03               	skipc
  7950  0A47  2A49               	goto	u5621
  7951  0A48  2A4A               	goto	u5620
  7952  0A49                     u5621:
  7953  0A49  2A3B               	goto	l4746
  7954  0A4A                     u5620:
  7955                           	
  7956  0A4A                     l783:	
  7957                           	line	82
  7958                           ;lcdV2.h: 82: RC2 = 0;
  7959  0A4A  1107               	bcf	(58/8),(58)&7
  7960                           	line	83
  7961                           ;lcdV2.h: 83: RD1 = 0;
  7962  0A4B  1088               	bcf	(65/8),(65)&7
  7963                           	line	84
  7964                           ;lcdV2.h: 84: RC0 = 0;
  7965  0A4C  1007               	bcf	(56/8),(56)&7
  7966                           	line	85
  7967                           ;lcdV2.h: 85: RD0 = 1;
  7968  0A4D  1408               	bsf	(64/8),(64)&7
  7969                           	line	86
  7970                           ;lcdV2.h: 86: RC1 = 0;
  7971  0A4E  1087               	bcf	(57/8),(57)&7
  7972                           	line	87
  7973                           ;lcdV2.h: 87: RC3 = 1;
  7974  0A4F  1587               	bsf	(59/8),(59)&7
  7975                           	line	88
  7976                           ;lcdV2.h: 88: RC3 = 0;
  7977  0A50  1187               	bcf	(59/8),(59)&7
  7978                           	line	89
  7979                           ;lcdV2.h: 89: RD1 = 1;
  7980  0A51  1488               	bsf	(65/8),(65)&7
  7981                           	line	90
  7982                           ;lcdV2.h: 90: RC0 = 0;
  7983  0A52  1007               	bcf	(56/8),(56)&7
  7984                           	line	91
  7985                           ;lcdV2.h: 91: RD0 = 0;
  7986  0A53  1008               	bcf	(64/8),(64)&7
  7987                           	line	92
  7988                           ;lcdV2.h: 92: RC1 = 0;
  7989  0A54  1087               	bcf	(57/8),(57)&7
  7990                           	line	93
  7991                           ;lcdV2.h: 93: RC3 = 1;
  7992  0A55  1587               	bsf	(59/8),(59)&7
  7993                           	line	94
  7994                           ;lcdV2.h: 94: RC3 = 0;
  7995  0A56  1187               	bcf	(59/8),(59)&7
  7996                           	line	95
  7997                           	
  7998  0A57                     l4748:	
  7999                           ;lcdV2.h: 95: for(DelayLCD=0;DelayLCD<2500;DelayLCD++);
  8000  0A57  01A0               	clrf	(lcd_init@DelayLCD)
  8001  0A58  01A1               	clrf	(lcd_init@DelayLCD+1)
  8002                           	
  8003  0A59                     l4750:	
  8004  0A59  3009               	movlw	high(09C4h)
  8005  0A5A  0221               	subwf	(lcd_init@DelayLCD+1),w
  8006  0A5B  30C4               	movlw	low(09C4h)
  8007  0A5C  1903               	skipnz
  8008  0A5D  0220               	subwf	(lcd_init@DelayLCD),w
  8009  0A5E  1C03               	skipc
  8010  0A5F  2A61               	goto	u5631
  8011  0A60  2A62               	goto	u5630
  8012  0A61                     u5631:
  8013  0A61  2A64               	goto	l4754
  8014  0A62                     u5630:
  8015  0A62  2A73               	goto	l785
  8016                           	
  8017  0A63                     l4752:	
  8018  0A63  2A73               	goto	l785
  8019                           	
  8020  0A64                     l784:	
  8021                           	
  8022  0A64                     l4754:	
  8023  0A64  3001               	movlw	low(01h)
  8024  0A65  07A0               	addwf	(lcd_init@DelayLCD),f
  8025  0A66  1803               	skipnc
  8026  0A67  0AA1               	incf	(lcd_init@DelayLCD+1),f
  8027  0A68  3000               	movlw	high(01h)
  8028  0A69  07A1               	addwf	(lcd_init@DelayLCD+1),f
  8029  0A6A  3009               	movlw	high(09C4h)
  8030  0A6B  0221               	subwf	(lcd_init@DelayLCD+1),w
  8031  0A6C  30C4               	movlw	low(09C4h)
  8032  0A6D  1903               	skipnz
  8033  0A6E  0220               	subwf	(lcd_init@DelayLCD),w
  8034  0A6F  1C03               	skipc
  8035  0A70  2A72               	goto	u5641
  8036  0A71  2A73               	goto	u5640
  8037  0A72                     u5641:
  8038  0A72  2A64               	goto	l4754
  8039  0A73                     u5640:
  8040                           	
  8041  0A73                     l785:	
  8042                           	line	98
  8043                           ;lcdV2.h: 98: RC2 = 0;
  8044  0A73  1107               	bcf	(58/8),(58)&7
  8045                           	line	99
  8046                           ;lcdV2.h: 99: RD1 = 0;
  8047  0A74  1088               	bcf	(65/8),(65)&7
  8048                           	line	100
  8049                           ;lcdV2.h: 100: RC0 = 0;
  8050  0A75  1007               	bcf	(56/8),(56)&7
  8051                           	line	101
  8052                           ;lcdV2.h: 101: RD0 = 0;
  8053  0A76  1008               	bcf	(64/8),(64)&7
  8054                           	line	102
  8055                           ;lcdV2.h: 102: RC1 = 0;
  8056  0A77  1087               	bcf	(57/8),(57)&7
  8057                           	line	103
  8058                           ;lcdV2.h: 103: RC3 = 1;
  8059  0A78  1587               	bsf	(59/8),(59)&7
  8060                           	line	104
  8061                           ;lcdV2.h: 104: RC3 = 0;
  8062  0A79  1187               	bcf	(59/8),(59)&7
  8063                           	line	105
  8064                           ;lcdV2.h: 105: RD1 = 0;
  8065  0A7A  1088               	bcf	(65/8),(65)&7
  8066                           	line	106
  8067                           ;lcdV2.h: 106: RC0 = 1;
  8068  0A7B  1407               	bsf	(56/8),(56)&7
  8069                           	line	107
  8070                           ;lcdV2.h: 107: RD0 = 1;
  8071  0A7C  1408               	bsf	(64/8),(64)&7
  8072                           	line	108
  8073                           ;lcdV2.h: 108: RC1 = 0;
  8074  0A7D  1087               	bcf	(57/8),(57)&7
  8075                           	line	109
  8076                           ;lcdV2.h: 109: RC3 = 1;
  8077  0A7E  1587               	bsf	(59/8),(59)&7
  8078                           	line	110
  8079                           ;lcdV2.h: 110: RC3 = 0;
  8080  0A7F  1187               	bcf	(59/8),(59)&7
  8081                           	line	111
  8082                           	
  8083  0A80                     l4756:	
  8084                           ;lcdV2.h: 111: for(DelayLCD=0;DelayLCD<2500;DelayLCD++);
  8085  0A80  01A0               	clrf	(lcd_init@DelayLCD)
  8086  0A81  01A1               	clrf	(lcd_init@DelayLCD+1)
  8087                           	
  8088  0A82                     l4758:	
  8089  0A82  3009               	movlw	high(09C4h)
  8090  0A83  0221               	subwf	(lcd_init@DelayLCD+1),w
  8091  0A84  30C4               	movlw	low(09C4h)
  8092  0A85  1903               	skipnz
  8093  0A86  0220               	subwf	(lcd_init@DelayLCD),w
  8094  0A87  1C03               	skipc
  8095  0A88  2A8A               	goto	u5651
  8096  0A89  2A8B               	goto	u5650
  8097  0A8A                     u5651:
  8098  0A8A  2A8D               	goto	l4762
  8099  0A8B                     u5650:
  8100  0A8B  2A9C               	goto	l787
  8101                           	
  8102  0A8C                     l4760:	
  8103  0A8C  2A9C               	goto	l787
  8104                           	
  8105  0A8D                     l786:	
  8106                           	
  8107  0A8D                     l4762:	
  8108  0A8D  3001               	movlw	low(01h)
  8109  0A8E  07A0               	addwf	(lcd_init@DelayLCD),f
  8110  0A8F  1803               	skipnc
  8111  0A90  0AA1               	incf	(lcd_init@DelayLCD+1),f
  8112  0A91  3000               	movlw	high(01h)
  8113  0A92  07A1               	addwf	(lcd_init@DelayLCD+1),f
  8114  0A93  3009               	movlw	high(09C4h)
  8115  0A94  0221               	subwf	(lcd_init@DelayLCD+1),w
  8116  0A95  30C4               	movlw	low(09C4h)
  8117  0A96  1903               	skipnz
  8118  0A97  0220               	subwf	(lcd_init@DelayLCD),w
  8119  0A98  1C03               	skipc
  8120  0A99  2A9B               	goto	u5661
  8121  0A9A  2A9C               	goto	u5660
  8122  0A9B                     u5661:
  8123  0A9B  2A8D               	goto	l4762
  8124  0A9C                     u5660:
  8125                           	
  8126  0A9C                     l787:	
  8127                           	line	114
  8128                           ;lcdV2.h: 114: RC2 = 0;
  8129  0A9C  1107               	bcf	(58/8),(58)&7
  8130                           	line	115
  8131                           ;lcdV2.h: 115: RD1 = 0;
  8132  0A9D  1088               	bcf	(65/8),(65)&7
  8133                           	line	116
  8134                           ;lcdV2.h: 116: RC0 = 0;
  8135  0A9E  1007               	bcf	(56/8),(56)&7
  8136                           	line	117
  8137                           ;lcdV2.h: 117: RD0 = 0;
  8138  0A9F  1008               	bcf	(64/8),(64)&7
  8139                           	line	118
  8140                           ;lcdV2.h: 118: RC1 = 0;
  8141  0AA0  1087               	bcf	(57/8),(57)&7
  8142                           	line	119
  8143                           ;lcdV2.h: 119: RC3 = 1;
  8144  0AA1  1587               	bsf	(59/8),(59)&7
  8145                           	line	120
  8146                           ;lcdV2.h: 120: RC3 = 0;
  8147  0AA2  1187               	bcf	(59/8),(59)&7
  8148                           	line	121
  8149                           ;lcdV2.h: 121: RD1 = 1;
  8150  0AA3  1488               	bsf	(65/8),(65)&7
  8151                           	line	122
  8152                           ;lcdV2.h: 122: RC0 = 1;
  8153  0AA4  1407               	bsf	(56/8),(56)&7
  8154                           	line	123
  8155                           ;lcdV2.h: 123: RD0 = 0;
  8156  0AA5  1008               	bcf	(64/8),(64)&7
  8157                           	line	124
  8158                           ;lcdV2.h: 124: RC1 = 1;
  8159  0AA6  1487               	bsf	(57/8),(57)&7
  8160                           	line	125
  8161                           ;lcdV2.h: 125: RC3 = 1;
  8162  0AA7  1587               	bsf	(59/8),(59)&7
  8163                           	line	126
  8164                           ;lcdV2.h: 126: RC3 = 0;
  8165  0AA8  1187               	bcf	(59/8),(59)&7
  8166                           	line	127
  8167                           	
  8168  0AA9                     l4764:	
  8169                           ;lcdV2.h: 127: for(DelayLCD=0;DelayLCD<2500;DelayLCD++);
  8170  0AA9  01A0               	clrf	(lcd_init@DelayLCD)
  8171  0AAA  01A1               	clrf	(lcd_init@DelayLCD+1)
  8172                           	
  8173  0AAB                     l4766:	
  8174  0AAB  3009               	movlw	high(09C4h)
  8175  0AAC  0221               	subwf	(lcd_init@DelayLCD+1),w
  8176  0AAD  30C4               	movlw	low(09C4h)
  8177  0AAE  1903               	skipnz
  8178  0AAF  0220               	subwf	(lcd_init@DelayLCD),w
  8179  0AB0  1C03               	skipc
  8180  0AB1  2AB3               	goto	u5671
  8181  0AB2  2AB4               	goto	u5670
  8182  0AB3                     u5671:
  8183  0AB3  2AB6               	goto	l4770
  8184  0AB4                     u5670:
  8185  0AB4  2AC5               	goto	l789
  8186                           	
  8187  0AB5                     l4768:	
  8188  0AB5  2AC5               	goto	l789
  8189                           	
  8190  0AB6                     l788:	
  8191                           	
  8192  0AB6                     l4770:	
  8193  0AB6  3001               	movlw	low(01h)
  8194  0AB7  07A0               	addwf	(lcd_init@DelayLCD),f
  8195  0AB8  1803               	skipnc
  8196  0AB9  0AA1               	incf	(lcd_init@DelayLCD+1),f
  8197  0ABA  3000               	movlw	high(01h)
  8198  0ABB  07A1               	addwf	(lcd_init@DelayLCD+1),f
  8199  0ABC  3009               	movlw	high(09C4h)
  8200  0ABD  0221               	subwf	(lcd_init@DelayLCD+1),w
  8201  0ABE  30C4               	movlw	low(09C4h)
  8202  0ABF  1903               	skipnz
  8203  0AC0  0220               	subwf	(lcd_init@DelayLCD),w
  8204  0AC1  1C03               	skipc
  8205  0AC2  2AC4               	goto	u5681
  8206  0AC3  2AC5               	goto	u5680
  8207  0AC4                     u5681:
  8208  0AC4  2AB6               	goto	l4770
  8209  0AC5                     u5680:
  8210                           	
  8211  0AC5                     l789:	
  8212                           	line	130
  8213                           ;lcdV2.h: 130: RC2 = 0;
  8214  0AC5  1107               	bcf	(58/8),(58)&7
  8215                           	line	131
  8216                           ;lcdV2.h: 131: RD1 = 0;
  8217  0AC6  1088               	bcf	(65/8),(65)&7
  8218                           	line	132
  8219                           ;lcdV2.h: 132: RC0 = 0;
  8220  0AC7  1007               	bcf	(56/8),(56)&7
  8221                           	line	133
  8222                           ;lcdV2.h: 133: RD0 = 0;
  8223  0AC8  1008               	bcf	(64/8),(64)&7
  8224                           	line	134
  8225                           ;lcdV2.h: 134: RC1 = 0;
  8226  0AC9  1087               	bcf	(57/8),(57)&7
  8227                           	line	135
  8228                           ;lcdV2.h: 135: RC3 = 1;
  8229  0ACA  1587               	bsf	(59/8),(59)&7
  8230                           	line	136
  8231                           ;lcdV2.h: 136: RC3 = 0;
  8232  0ACB  1187               	bcf	(59/8),(59)&7
  8233                           	line	137
  8234                           ;lcdV2.h: 137: RD1 = 0;
  8235  0ACC  1088               	bcf	(65/8),(65)&7
  8236                           	line	138
  8237                           ;lcdV2.h: 138: RC0 = 0;
  8238  0ACD  1007               	bcf	(56/8),(56)&7
  8239                           	line	139
  8240                           ;lcdV2.h: 139: RD0 = 0;
  8241  0ACE  1008               	bcf	(64/8),(64)&7
  8242                           	line	140
  8243                           ;lcdV2.h: 140: RC1 = 1;
  8244  0ACF  1487               	bsf	(57/8),(57)&7
  8245                           	line	141
  8246                           ;lcdV2.h: 141: RC3 = 1;
  8247  0AD0  1587               	bsf	(59/8),(59)&7
  8248                           	line	142
  8249                           ;lcdV2.h: 142: RC3 = 0;
  8250  0AD1  1187               	bcf	(59/8),(59)&7
  8251                           	line	143
  8252                           	
  8253  0AD2                     l4772:	
  8254                           ;lcdV2.h: 143: for(DelayLCD=0;DelayLCD<2500;DelayLCD++);
  8255  0AD2  01A0               	clrf	(lcd_init@DelayLCD)
  8256  0AD3  01A1               	clrf	(lcd_init@DelayLCD+1)
  8257                           	
  8258  0AD4                     l4774:	
  8259  0AD4  3009               	movlw	high(09C4h)
  8260  0AD5  0221               	subwf	(lcd_init@DelayLCD+1),w
  8261  0AD6  30C4               	movlw	low(09C4h)
  8262  0AD7  1903               	skipnz
  8263  0AD8  0220               	subwf	(lcd_init@DelayLCD),w
  8264  0AD9  1C03               	skipc
  8265  0ADA  2ADC               	goto	u5691
  8266  0ADB  2ADD               	goto	u5690
  8267  0ADC                     u5691:
  8268  0ADC  2ADF               	goto	l4778
  8269  0ADD                     u5690:
  8270  0ADD  2AEF               	goto	l792
  8271                           	
  8272  0ADE                     l4776:	
  8273  0ADE  2AEF               	goto	l792
  8274                           	
  8275  0ADF                     l790:	
  8276                           	
  8277  0ADF                     l4778:	
  8278  0ADF  3001               	movlw	low(01h)
  8279  0AE0  07A0               	addwf	(lcd_init@DelayLCD),f
  8280  0AE1  1803               	skipnc
  8281  0AE2  0AA1               	incf	(lcd_init@DelayLCD+1),f
  8282  0AE3  3000               	movlw	high(01h)
  8283  0AE4  07A1               	addwf	(lcd_init@DelayLCD+1),f
  8284  0AE5  3009               	movlw	high(09C4h)
  8285  0AE6  0221               	subwf	(lcd_init@DelayLCD+1),w
  8286  0AE7  30C4               	movlw	low(09C4h)
  8287  0AE8  1903               	skipnz
  8288  0AE9  0220               	subwf	(lcd_init@DelayLCD),w
  8289  0AEA  1C03               	skipc
  8290  0AEB  2AED               	goto	u5701
  8291  0AEC  2AEE               	goto	u5700
  8292  0AED                     u5701:
  8293  0AED  2ADF               	goto	l4778
  8294  0AEE                     u5700:
  8295  0AEE  2AEF               	goto	l792
  8296                           	
  8297  0AEF                     l791:	
  8298                           	line	146
  8299                           	
  8300  0AEF                     l792:	
  8301  0AEF  0008               	return
  8302                           	opt stack 0
  8303                           GLOBAL	__end_of_lcd_init
  8304  0AF0                     	__end_of_lcd_init:
  8305 ;; =============== function _lcd_init ends ============
  8306                           
  8307                           	signat	_lcd_init,88
  8308                           	global	_Setup_IOports
  8309                           psect	text920,local,class=CODE,delta=2
  8310                           global __ptext920
  8311  173D                     __ptext920:
  8312                           
  8313 ;; *************** function _Setup_IOports *****************
  8314 ;; Defined at:
  8315 ;;		line 50 in file "D:\ELECTRONIC\2016\1. Automated Solar Panel Orientation Setter\Firmware\ver2\setup.h"
  8316 ;; Parameters:    Size  Location     Type
  8317 ;;		None
  8318 ;; Auto vars:     Size  Location     Type
  8319 ;;		None
  8320 ;; Return value:  Size  Location     Type
  8321 ;;		None               void
  8322 ;; Registers used:
  8323 ;;		wreg, status,2
  8324 ;; Tracked objects:
  8325 ;;		On entry : 0/0
  8326 ;;		On exit  : 0/0
  8327 ;;		Unchanged: 0/0
  8328 ;; Data sizes:     COMMON   BANK0   BANK1   BANK3   BANK2
  8329 ;;      Params:         0       0       0       0       0
  8330 ;;      Locals:         0       0       0       0       0
  8331 ;;      Temps:          0       0       0       0       0
  8332 ;;      Totals:         0       0       0       0       0
  8333 ;;Total ram usage:        0 bytes
  8334 ;; Hardware stack levels used:    1
  8335 ;; Hardware stack levels required when called:    3
  8336 ;; This function calls:
  8337 ;;		Nothing
  8338 ;; This function is called by:
  8339 ;;		_main
  8340 ;; This function uses a non-reentrant model
  8341 ;;
  8342                           psect	text920
  8343                           	file	"D:\ELECTRONIC\2016\1. Automated Solar Panel Orientation Setter\Firmware\ver2\setu
                                 p.h"
  8344                           	line	50
  8345                           	global	__size_of_Setup_IOports
  8346  0024                     	__size_of_Setup_IOports	equ	__end_of_Setup_IOports-_Setup_IOports
  8347                           	
  8348  173D                     _Setup_IOports:	
  8349                           	opt	stack 4
  8350                           ; Regs used in _Setup_IOports: [wreg+status,2]
  8351                           	line	52
  8352                           	
  8353  173D                     l4724:	
  8354                           ;setup.h: 52: TRISA = 0b11111111;
  8355  173D  30FF               	movlw	(0FFh)
  8356  173E  1683               	bsf	status, 5	;RP0=1, select bank1
  8357  173F  1303               	bcf	status, 6	;RP1=0, select bank1
  8358  1740  0085               	movwf	(133)^080h	;volatile
  8359                           	line	53
  8360                           	
  8361  1741                     l4726:	
  8362                           ;setup.h: 53: PORTA = 0b00000000;
  8363  1741  1283               	bcf	status, 5	;RP0=0, select bank0
  8364  1742  1303               	bcf	status, 6	;RP1=0, select bank0
  8365  1743  0185               	clrf	(5)	;volatile
  8366                           	line	55
  8367                           	
  8368  1744                     l4728:	
  8369                           ;setup.h: 55: TRISB = 0b11000000;
  8370  1744  30C0               	movlw	(0C0h)
  8371  1745  1683               	bsf	status, 5	;RP0=1, select bank1
  8372  1746  1303               	bcf	status, 6	;RP1=0, select bank1
  8373  1747  0086               	movwf	(134)^080h	;volatile
  8374                           	line	56
  8375                           ;setup.h: 56: PORTB = 0b00000000;
  8376  1748  1283               	bcf	status, 5	;RP0=0, select bank0
  8377  1749  1303               	bcf	status, 6	;RP1=0, select bank0
  8378  174A  0186               	clrf	(6)	;volatile
  8379                           	line	58
  8380                           	
  8381  174B                     l4730:	
  8382                           ;setup.h: 58: TRISC = 0b10000000;
  8383  174B  3080               	movlw	(080h)
  8384  174C  1683               	bsf	status, 5	;RP0=1, select bank1
  8385  174D  1303               	bcf	status, 6	;RP1=0, select bank1
  8386  174E  0087               	movwf	(135)^080h	;volatile
  8387                           	line	59
  8388                           	
  8389  174F                     l4732:	
  8390                           ;setup.h: 59: PORTC = 0b00000000;
  8391  174F  1283               	bcf	status, 5	;RP0=0, select bank0
  8392  1750  1303               	bcf	status, 6	;RP1=0, select bank0
  8393  1751  0187               	clrf	(7)	;volatile
  8394                           	line	61
  8395                           ;setup.h: 61: TRISD = 0b11001100;
  8396  1752  30CC               	movlw	(0CCh)
  8397  1753  1683               	bsf	status, 5	;RP0=1, select bank1
  8398  1754  1303               	bcf	status, 6	;RP1=0, select bank1
  8399  1755  0088               	movwf	(136)^080h	;volatile
  8400                           	line	62
  8401                           	
  8402  1756                     l4734:	
  8403                           ;setup.h: 62: PORTD = 0b00000000;
  8404  1756  1283               	bcf	status, 5	;RP0=0, select bank0
  8405  1757  1303               	bcf	status, 6	;RP1=0, select bank0
  8406  1758  0188               	clrf	(8)	;volatile
  8407                           	line	64
  8408                           	
  8409  1759                     l4736:	
  8410                           ;setup.h: 64: TRISE = 0b10000000;
  8411  1759  3080               	movlw	(080h)
  8412  175A  1683               	bsf	status, 5	;RP0=1, select bank1
  8413  175B  1303               	bcf	status, 6	;RP1=0, select bank1
  8414  175C  0089               	movwf	(137)^080h	;volatile
  8415                           	line	65
  8416                           ;setup.h: 65: PORTE = 0b00000000;
  8417  175D  1283               	bcf	status, 5	;RP0=0, select bank0
  8418  175E  1303               	bcf	status, 6	;RP1=0, select bank0
  8419  175F  0189               	clrf	(9)	;volatile
  8420                           	line	66
  8421                           	
  8422  1760                     l779:	
  8423  1760  0008               	return
  8424                           	opt stack 0
  8425                           GLOBAL	__end_of_Setup_IOports
  8426  1761                     	__end_of_Setup_IOports:
  8427 ;; =============== function _Setup_IOports ends ============
  8428                           
  8429                           	signat	_Setup_IOports,88
  8430                           	global	_isr
  8431                           psect	text921,local,class=CODE,delta=2
  8432                           global __ptext921
  8433  095D                     __ptext921:
  8434                           
  8435 ;; *************** function _isr *****************
  8436 ;; Defined at:
  8437 ;;		line 363 in file "D:\ELECTRONIC\2016\1. Automated Solar Panel Orientation Setter\Firmware\ver2\Automated Solar Panel
        Orientation Setter.c"
  8438 ;; Parameters:    Size  Location     Type
  8439 ;;		None
  8440 ;; Auto vars:     Size  Location     Type
  8441 ;;		None
  8442 ;; Return value:  Size  Location     Type
  8443 ;;		None               void
  8444 ;; Registers used:
  8445 ;;		wreg, fsr0l, fsr0h, status,2, status,0, pclath, cstack
  8446 ;; Tracked objects:
  8447 ;;		On entry : 0/0
  8448 ;;		On exit  : 0/0
  8449 ;;		Unchanged: 0/0
  8450 ;; Data sizes:     COMMON   BANK0   BANK1   BANK3   BANK2
  8451 ;;      Params:         0       0       0       0       0
  8452 ;;      Locals:         0       0       0       0       0
  8453 ;;      Temps:          5       0       0       0       0
  8454 ;;      Totals:         5       0       0       0       0
  8455 ;;Total ram usage:        5 bytes
  8456 ;; Hardware stack levels used:    1
  8457 ;; Hardware stack levels required when called:    2
  8458 ;; This function calls:
  8459 ;;		i1_lcd_init
  8460 ;;		i1_clr_display
  8461 ;;		i1___lwmod
  8462 ;; This function is called by:
  8463 ;;		Interrupt level 1
  8464 ;; This function uses a non-reentrant model
  8465 ;;
  8466                           psect	text921
  8467                           	file	"D:\ELECTRONIC\2016\1. Automated Solar Panel Orientation Setter\Firmware\ver2\Auto
                                 mated Solar Panel Orientation Setter.c"
  8468                           	line	363
  8469                           	global	__size_of_isr
  8470  00C1                     	__size_of_isr	equ	__end_of_isr-_isr
  8471                           	
  8472  095D                     _isr:	
  8473                           	opt	stack 2
  8474                           ; Regs used in _isr: [wreg-fsr0h+status,2+status,0+pclath+cstack]
  8475                           psect	intentry,class=CODE,delta=2
  8476                           global __pintentry
  8477  0004                     __pintentry:
  8478                           global interrupt_function
  8479  0004                     interrupt_function:
  8480                           	global saved_w
  8481  007E                     	saved_w	set	btemp+0
  8482  0004  00FE               	movwf	saved_w
  8483  0005  0E03               	swapf	status,w
  8484  0006  00F8               	movwf	(??_isr+1)
  8485  0007  0804               	movf	fsr0,w
  8486  0008  00F9               	movwf	(??_isr+2)
  8487  0009  080A               	movf	pclath,w
  8488  000A  00FA               	movwf	(??_isr+3)
  8489  000B  1283               	bcf	status, 5	;RP0=0, select bank0
  8490  000C  1303               	bcf	status, 6	;RP1=0, select bank0
  8491  000D  087F               	movf	btemp+1,w
  8492  000E  00FB               	movwf	(??_isr+4)
  8493  000F  120A  158A  295D   	ljmp	_isr
  8494                           psect	text921
  8495                           	line	364
  8496                           	
  8497  095D                     i1l4872:	
  8498                           ;Automated Solar Panel Orientation Setter.c: 364: if(TMR1IF==1){
  8499  095D  1C0C               	btfss	(96/8),(96)&7
  8500  095E  2960               	goto	u585_21
  8501  095F  2961               	goto	u585_20
  8502  0960                     u585_21:
  8503  0960  29CB               	goto	i1l4908
  8504  0961                     u585_20:
  8505                           	line	365
  8506                           	
  8507  0961                     i1l4874:	
  8508                           ;Automated Solar Panel Orientation Setter.c: 365: msecond ++;
  8509  0961  3001               	movlw	low(01h)
  8510  0962  07DA               	addwf	(_msecond),f
  8511  0963  1803               	skipnc
  8512  0964  0ADB               	incf	(_msecond+1),f
  8513  0965  3000               	movlw	high(01h)
  8514  0966  07DB               	addwf	(_msecond+1),f
  8515                           	line	366
  8516                           ;Automated Solar Panel Orientation Setter.c: 366: if(msecond == 10){
  8517  0967  300A               	movlw	0Ah
  8518  0968  065A               	xorwf	(_msecond),w
  8519  0969  045B               	iorwf	(_msecond+1),w
  8520  096A  1D03               	skipz
  8521  096B  296D               	goto	u586_21
  8522  096C  296E               	goto	u586_20
  8523  096D                     u586_21:
  8524  096D  29C5               	goto	i1l1026
  8525  096E                     u586_20:
  8526                           	line	367
  8527                           	
  8528  096E                     i1l4876:	
  8529                           ;Automated Solar Panel Orientation Setter.c: 367: second ++;
  8530  096E  3001               	movlw	low(01h)
  8531  096F  07DC               	addwf	(_second),f
  8532  0970  1803               	skipnc
  8533  0971  0ADD               	incf	(_second+1),f
  8534  0972  3000               	movlw	high(01h)
  8535  0973  07DD               	addwf	(_second+1),f
  8536                           	line	370
  8537                           ;Automated Solar Panel Orientation Setter.c: 370: RD6 = !RD6;
  8538  0974  3040               	movlw	1<<((70)&7)
  8539  0975  0688               	xorwf	((70)/8),f
  8540                           	line	371
  8541                           	
  8542  0976                     i1l4878:	
  8543                           ;Automated Solar Panel Orientation Setter.c: 371: msecond = 0;
  8544  0976  01DA               	clrf	(_msecond)
  8545  0977  01DB               	clrf	(_msecond+1)
  8546                           	line	372
  8547                           	
  8548  0978                     i1l4880:	
  8549                           ;Automated Solar Panel Orientation Setter.c: 372: if( second == 60){
  8550  0978  303C               	movlw	03Ch
  8551  0979  065C               	xorwf	(_second),w
  8552  097A  045D               	iorwf	(_second+1),w
  8553  097B  1D03               	skipz
  8554  097C  297E               	goto	u587_21
  8555  097D  297F               	goto	u587_20
  8556  097E                     u587_21:
  8557  097E  29C5               	goto	i1l1026
  8558  097F                     u587_20:
  8559                           	line	373
  8560                           	
  8561  097F                     i1l4882:	
  8562                           ;Automated Solar Panel Orientation Setter.c: 373: HeartRate = HeartRateCount;
  8563  097F  084D               	movf	(_HeartRateCount+1),w
  8564  0980  01CB               	clrf	(_HeartRate+1)
  8565  0981  07CB               	addwf	(_HeartRate+1)
  8566  0982  084C               	movf	(_HeartRateCount),w
  8567  0983  01CA               	clrf	(_HeartRate)
  8568  0984  07CA               	addwf	(_HeartRate)
  8569                           
  8570                           	line	374
  8571                           	
  8572  0985                     i1l4884:	
  8573                           ;Automated Solar Panel Orientation Setter.c: 374: HeartRateCount = 0;
  8574  0985  01CC               	clrf	(_HeartRateCount)
  8575  0986  01CD               	clrf	(_HeartRateCount+1)
  8576                           	line	375
  8577                           	
  8578  0987                     i1l4886:	
  8579                           ;Automated Solar Panel Orientation Setter.c: 375: minute ++;
  8580  0987  3001               	movlw	low(01h)
  8581  0988  07D8               	addwf	(_minute),f
  8582  0989  1803               	skipnc
  8583  098A  0AD9               	incf	(_minute+1),f
  8584  098B  3000               	movlw	high(01h)
  8585  098C  07D9               	addwf	(_minute+1),f
  8586                           	line	376
  8587                           	
  8588  098D                     i1l4888:	
  8589                           ;Automated Solar Panel Orientation Setter.c: 376: lcd_init();
  8590  098D  120A  158A  22F0   	fcall	i1_lcd_init
              120A  158A         
  8591                           	line	377
  8592                           	
  8593  0992                     i1l4890:	
  8594                           ;Automated Solar Panel Orientation Setter.c: 377: clr_display();
  8595  0992  160A  118A  26BA   	fcall	i1_clr_display
              120A  158A         
  8596                           	line	378
  8597                           	
  8598  0997                     i1l4892:	
  8599                           ;Automated Solar Panel Orientation Setter.c: 378: second = 0;
  8600  0997  1283               	bcf	status, 5	;RP0=0, select bank0
  8601  0998  1303               	bcf	status, 6	;RP1=0, select bank0
  8602  0999  01DC               	clrf	(_second)
  8603  099A  01DD               	clrf	(_second+1)
  8604                           	line	380
  8605                           	
  8606  099B                     i1l4894:	
  8607                           ;Automated Solar Panel Orientation Setter.c: 380: x = minute%30 ;
  8608  099B  301E               	movlw	low(01Eh)
  8609  099C  00F1               	movwf	(?i1___lwmod)
  8610  099D  3000               	movlw	high(01Eh)
  8611  099E  00F2               	movwf	((?i1___lwmod))+1
  8612  099F  0859               	movf	(_minute+1),w
  8613  09A0  01F4               	clrf	1+(?i1___lwmod)+02h
  8614  09A1  07F4               	addwf	1+(?i1___lwmod)+02h
  8615  09A2  0858               	movf	(_minute),w
  8616  09A3  01F3               	clrf	0+(?i1___lwmod)+02h
  8617  09A4  07F3               	addwf	0+(?i1___lwmod)+02h
  8618                           
  8619  09A5  120A  158A  20D3   	fcall	i1___lwmod
              120A  158A         
  8620  09AA  0871               	movf	(0+(?i1___lwmod)),w
  8621  09AB  00F7               	movwf	(??_isr+0)+0
  8622  09AC  0877               	movf	(??_isr+0)+0,w
  8623  09AD  1283               	bcf	status, 5	;RP0=0, select bank0
  8624  09AE  1303               	bcf	status, 6	;RP1=0, select bank0
  8625  09AF  00E7               	movwf	(_x)
  8626  09B0  29B2               	goto	i1l4898
  8627                           	line	381
  8628                           	
  8629  09B1                     i1l4896:	
  8630  09B1  29B2               	goto	i1l4898
  8631                           	line	384
  8632                           	
  8633  09B2                     i1l1028:	
  8634                           	line	387
  8635                           	
  8636  09B2                     i1l4898:	
  8637                           ;Automated Solar Panel Orientation Setter.c: 384: }
  8638                           ;Automated Solar Panel Orientation Setter.c: 387: if( minute == 60){
  8639  09B2  303C               	movlw	03Ch
  8640  09B3  0658               	xorwf	(_minute),w
  8641  09B4  0459               	iorwf	(_minute+1),w
  8642  09B5  1D03               	skipz
  8643  09B6  29B8               	goto	u588_21
  8644  09B7  29B9               	goto	u588_20
  8645  09B8                     u588_21:
  8646  09B8  29C5               	goto	i1l1026
  8647  09B9                     u588_20:
  8648                           	line	388
  8649                           	
  8650  09B9                     i1l4900:	
  8651                           ;Automated Solar Panel Orientation Setter.c: 388: minute = 0;
  8652  09B9  01D8               	clrf	(_minute)
  8653  09BA  01D9               	clrf	(_minute+1)
  8654                           	line	389
  8655                           	
  8656  09BB                     i1l4902:	
  8657                           ;Automated Solar Panel Orientation Setter.c: 389: hour ++;
  8658  09BB  3001               	movlw	low(01h)
  8659  09BC  07D2               	addwf	(_hour),f
  8660  09BD  1803               	skipnc
  8661  09BE  0AD3               	incf	(_hour+1),f
  8662  09BF  3000               	movlw	high(01h)
  8663  09C0  07D3               	addwf	(_hour+1),f
  8664  09C1  29C5               	goto	i1l1026
  8665                           	line	390
  8666                           	
  8667  09C2                     i1l4904:	
  8668  09C2  29C5               	goto	i1l1026
  8669                           	
  8670  09C3                     i1l1030:	
  8671  09C3  29C5               	goto	i1l1026
  8672                           	line	391
  8673                           	
  8674  09C4                     i1l1029:	
  8675  09C4  29C5               	goto	i1l1026
  8676                           	line	392
  8677                           	
  8678  09C5                     i1l1027:	
  8679                           	line	393
  8680                           	
  8681  09C5                     i1l1026:	
  8682                           	line	394
  8683                           ;Automated Solar Panel Orientation Setter.c: 391: }
  8684                           ;Automated Solar Panel Orientation Setter.c: 392: }
  8685                           ;Automated Solar Panel Orientation Setter.c: 393: }
  8686                           ;Automated Solar Panel Orientation Setter.c: 394: TMR1IF = 0;
  8687  09C5  100C               	bcf	(96/8),(96)&7
  8688                           	line	395
  8689                           	
  8690  09C6                     i1l4906:	
  8691                           ;Automated Solar Panel Orientation Setter.c: 395: TMR1L = 0xB0;
  8692  09C6  30B0               	movlw	(0B0h)
  8693  09C7  008E               	movwf	(14)	;volatile
  8694                           	line	396
  8695                           ;Automated Solar Panel Orientation Setter.c: 396: TMR1H = 0x3C;
  8696  09C8  303C               	movlw	(03Ch)
  8697  09C9  008F               	movwf	(15)	;volatile
  8698  09CA  29CB               	goto	i1l4908
  8699                           	line	397
  8700                           	
  8701  09CB                     i1l1025:	
  8702                           	line	398
  8703                           	
  8704  09CB                     i1l4908:	
  8705                           ;Automated Solar Panel Orientation Setter.c: 397: }
  8706                           ;Automated Solar Panel Orientation Setter.c: 398: if( RCIF == 1){
  8707  09CB  1E8C               	btfss	(101/8),(101)&7
  8708  09CC  29CE               	goto	u589_21
  8709  09CD  29CF               	goto	u589_20
  8710  09CE                     u589_21:
  8711  09CE  2A04               	goto	i1l4928
  8712  09CF                     u589_20:
  8713                           	line	399
  8714                           	
  8715  09CF                     i1l4910:	
  8716                           ;Automated Solar Panel Orientation Setter.c: 399: if ((FERR == 0) && (OERR == 0))
  8717  09CF  1918               	btfsc	(194/8),(194)&7
  8718  09D0  29D2               	goto	u590_21
  8719  09D1  29D3               	goto	u590_20
  8720  09D2                     u590_21:
  8721  09D2  29F6               	goto	i1l1032
  8722  09D3                     u590_20:
  8723                           	
  8724  09D3                     i1l4912:	
  8725  09D3  1898               	btfsc	(193/8),(193)&7
  8726  09D4  29D6               	goto	u591_21
  8727  09D5  29D7               	goto	u591_20
  8728  09D6                     u591_21:
  8729  09D6  29F6               	goto	i1l1032
  8730  09D7                     u591_20:
  8731                           	line	401
  8732                           	
  8733  09D7                     i1l4914:	
  8734                           ;Automated Solar Panel Orientation Setter.c: 400: {
  8735                           ;Automated Solar Panel Orientation Setter.c: 401: wtmp = RCREG;
  8736  09D7  081A               	movf	(26),w	;volatile
  8737  09D8  00F7               	movwf	(??_isr+0)+0
  8738  09D9  0877               	movf	(??_isr+0)+0,w
  8739  09DA  00E6               	movwf	(_wtmp)
  8740                           	line	402
  8741                           ;Automated Solar Panel Orientation Setter.c: 402: if( RCREG=='*' || j > 20-1 ){
  8742  09DB  081A               	movf	(26),w	;volatile
  8743  09DC  3A2A               	xorlw	02Ah
  8744  09DD  1903               	skipnz
  8745  09DE  29E0               	goto	u592_21
  8746  09DF  29E1               	goto	u592_20
  8747  09E0                     u592_21:
  8748  09E0  29E7               	goto	i1l1035
  8749  09E1                     u592_20:
  8750                           	
  8751  09E1                     i1l4916:	
  8752  09E1  3014               	movlw	(014h)
  8753  09E2  025E               	subwf	(_j),w
  8754  09E3  1C03               	skipc
  8755  09E4  29E6               	goto	u593_21
  8756  09E5  29E7               	goto	u593_20
  8757  09E6                     u593_21:
  8758  09E6  29E9               	goto	i1l4918
  8759  09E7                     u593_20:
  8760                           	
  8761  09E7                     i1l1035:	
  8762                           	line	403
  8763                           ;Automated Solar Panel Orientation Setter.c: 403: j=0;
  8764  09E7  01DE               	clrf	(_j)
  8765  09E8  29E9               	goto	i1l4918
  8766                           	line	404
  8767                           	
  8768  09E9                     i1l1033:	
  8769                           	line	405
  8770                           	
  8771  09E9                     i1l4918:	
  8772                           ;Automated Solar Panel Orientation Setter.c: 404: }
  8773                           ;Automated Solar Panel Orientation Setter.c: 405: buffer[j] = RCREG;
  8774  09E9  081A               	movf	(26),w	;volatile
  8775  09EA  00F7               	movwf	(??_isr+0)+0
  8776  09EB  085E               	movf	(_j),w
  8777  09EC  3EA0               	addlw	_buffer&0ffh
  8778  09ED  0084               	movwf	fsr0
  8779  09EE  0877               	movf	(??_isr+0)+0,w
  8780  09EF  1383               	bcf	status, 7	;select IRP bank1
  8781  09F0  0080               	movwf	indf
  8782                           	line	406
  8783                           	
  8784  09F1                     i1l4920:	
  8785                           ;Automated Solar Panel Orientation Setter.c: 406: j ++;
  8786  09F1  3001               	movlw	(01h)
  8787  09F2  00F7               	movwf	(??_isr+0)+0
  8788  09F3  0877               	movf	(??_isr+0)+0,w
  8789  09F4  07DE               	addwf	(_j),f
  8790                           	line	407
  8791                           ;Automated Solar Panel Orientation Setter.c: 407: }
  8792  09F5  2A02               	goto	i1l4926
  8793                           	line	408
  8794                           	
  8795  09F6                     i1l1032:	
  8796                           	line	410
  8797                           ;Automated Solar Panel Orientation Setter.c: 408: else
  8798                           ;Automated Solar Panel Orientation Setter.c: 409: {
  8799                           ;Automated Solar Panel Orientation Setter.c: 410: CREN = 0;
  8800  09F6  1218               	bcf	(196/8),(196)&7
  8801                           	line	411
  8802                           ;Automated Solar Panel Orientation Setter.c: 411: FERR = 0;
  8803  09F7  1118               	bcf	(194/8),(194)&7
  8804                           	line	412
  8805                           	
  8806  09F8                     i1l4922:	
  8807                           ;Automated Solar Panel Orientation Setter.c: 412: wtmp = RCREG;
  8808  09F8  081A               	movf	(26),w	;volatile
  8809  09F9  00F7               	movwf	(??_isr+0)+0
  8810  09FA  0877               	movf	(??_isr+0)+0,w
  8811  09FB  00E6               	movwf	(_wtmp)
  8812                           	line	413
  8813                           ;Automated Solar Panel Orientation Setter.c: 413: wtmp = RCREG;
  8814  09FC  081A               	movf	(26),w	;volatile
  8815  09FD  00F7               	movwf	(??_isr+0)+0
  8816  09FE  0877               	movf	(??_isr+0)+0,w
  8817  09FF  00E6               	movwf	(_wtmp)
  8818                           	line	414
  8819                           	
  8820  0A00                     i1l4924:	
  8821                           ;Automated Solar Panel Orientation Setter.c: 414: CREN = 1;
  8822  0A00  1618               	bsf	(196/8),(196)&7
  8823  0A01  2A02               	goto	i1l4926
  8824                           	line	415
  8825                           	
  8826  0A02                     i1l1036:	
  8827                           	line	416
  8828                           	
  8829  0A02                     i1l4926:	
  8830                           ;Automated Solar Panel Orientation Setter.c: 415: }
  8831                           ;Automated Solar Panel Orientation Setter.c: 416: RCIF = 0;
  8832  0A02  128C               	bcf	(101/8),(101)&7
  8833  0A03  2A04               	goto	i1l4928
  8834                           	line	417
  8835                           	
  8836  0A04                     i1l1031:	
  8837                           	line	418
  8838                           	
  8839  0A04                     i1l4928:	
  8840                           ;Automated Solar Panel Orientation Setter.c: 417: }
  8841                           ;Automated Solar Panel Orientation Setter.c: 418: if(OERR == 1)
  8842  0A04  1C98               	btfss	(193/8),(193)&7
  8843  0A05  2A07               	goto	u594_21
  8844  0A06  2A08               	goto	u594_20
  8845  0A07                     u594_21:
  8846  0A07  2A13               	goto	i1l1038
  8847  0A08                     u594_20:
  8848                           	line	420
  8849                           	
  8850  0A08                     i1l4930:	
  8851                           ;Automated Solar Panel Orientation Setter.c: 419: {
  8852                           ;Automated Solar Panel Orientation Setter.c: 420: CREN = 0;
  8853  0A08  1218               	bcf	(196/8),(196)&7
  8854                           	line	422
  8855                           	
  8856  0A09                     i1l4932:	
  8857                           ;Automated Solar Panel Orientation Setter.c: 422: wtmp = RCREG;
  8858  0A09  081A               	movf	(26),w	;volatile
  8859  0A0A  00F7               	movwf	(??_isr+0)+0
  8860  0A0B  0877               	movf	(??_isr+0)+0,w
  8861  0A0C  00E6               	movwf	(_wtmp)
  8862                           	line	423
  8863                           ;Automated Solar Panel Orientation Setter.c: 423: wtmp = RCREG;
  8864  0A0D  081A               	movf	(26),w	;volatile
  8865  0A0E  00F7               	movwf	(??_isr+0)+0
  8866  0A0F  0877               	movf	(??_isr+0)+0,w
  8867  0A10  00E6               	movwf	(_wtmp)
  8868                           	line	424
  8869                           	
  8870  0A11                     i1l4934:	
  8871                           ;Automated Solar Panel Orientation Setter.c: 424: CREN = 1;
  8872  0A11  1618               	bsf	(196/8),(196)&7
  8873  0A12  2A13               	goto	i1l1038
  8874                           	line	425
  8875                           	
  8876  0A13                     i1l1037:	
  8877                           	line	427
  8878                           	
  8879  0A13                     i1l1038:	
  8880  0A13  087B               	movf	(??_isr+4),w
  8881  0A14  00FF               	movwf	btemp+1
  8882  0A15  087A               	movf	(??_isr+3),w
  8883  0A16  008A               	movwf	pclath
  8884  0A17  0879               	movf	(??_isr+2),w
  8885  0A18  0084               	movwf	fsr0
  8886  0A19  0E78               	swapf	(??_isr+1)^0FFFFFF80h,w
  8887  0A1A  0083               	movwf	status
  8888  0A1B  0EFE               	swapf	saved_w,f
  8889  0A1C  0E7E               	swapf	saved_w,w
  8890  0A1D  0009               	retfie
  8891                           	opt stack 0
  8892                           GLOBAL	__end_of_isr
  8893  0A1E                     	__end_of_isr:
  8894 ;; =============== function _isr ends ============
  8895                           
  8896                           	signat	_isr,88
  8897                           	global	i1_clr_display
  8898                           psect	text922,local,class=CODE,delta=2
  8899                           global __ptext922
  8900  16BA                     __ptext922:
  8901                           
  8902 ;; *************** function i1_clr_display *****************
  8903 ;; Defined at:
  8904 ;;		line 176 in file "D:\ELECTRONIC\2016\1. Automated Solar Panel Orientation Setter\Firmware\ver2\lcdV2.h"
  8905 ;; Parameters:    Size  Location     Type
  8906 ;;		None
  8907 ;; Auto vars:     Size  Location     Type
  8908 ;;		None
  8909 ;; Return value:  Size  Location     Type
  8910 ;;		None               void
  8911 ;; Registers used:
  8912 ;;		wreg, status,2, status,0, pclath, cstack
  8913 ;; Tracked objects:
  8914 ;;		On entry : 0/0
  8915 ;;		On exit  : 0/0
  8916 ;;		Unchanged: 0/0
  8917 ;; Data sizes:     COMMON   BANK0   BANK1   BANK3   BANK2
  8918 ;;      Params:         0       0       0       0       0
  8919 ;;      Locals:         0       0       0       0       0
  8920 ;;      Temps:          2       0       0       0       0
  8921 ;;      Totals:         2       0       0       0       0
  8922 ;;Total ram usage:        2 bytes
  8923 ;; Hardware stack levels used:    1
  8924 ;; Hardware stack levels required when called:    1
  8925 ;; This function calls:
  8926 ;;		i1_lcd_add
  8927 ;; This function is called by:
  8928 ;;		_isr
  8929 ;; This function uses a non-reentrant model
  8930 ;;
  8931                           psect	text922
  8932                           	file	"D:\ELECTRONIC\2016\1. Automated Solar Panel Orientation Setter\Firmware\ver2\lcdV
                                 2.h"
  8933                           	line	176
  8934                           	global	__size_ofi1_clr_display
  8935  001F                     	__size_ofi1_clr_display	equ	__end_ofi1_clr_display-i1_clr_display
  8936                           	
  8937  16BA                     i1_clr_display:	
  8938                           	opt	stack 2
  8939                           ; Regs used in i1_clr_display: [wreg+status,2+status,0+pclath+cstack]
  8940                           	line	177
  8941                           	
  8942  16BA                     i1l5170:	
  8943                           ;lcdV2.h: 177: RC2 = 0;
  8944  16BA  1283               	bcf	status, 5	;RP0=0, select bank0
  8945  16BB  1303               	bcf	status, 6	;RP1=0, select bank0
  8946  16BC  1107               	bcf	(58/8),(58)&7
  8947                           	line	178
  8948                           	
  8949  16BD                     i1l5172:	
  8950                           ;lcdV2.h: 178: _delay(20);
  8951                           	opt asmopt_off
  8952  16BD  3006               movlw	6
  8953  16BE  00F3               movwf	(??i1_clr_display+0)+0,f
  8954  16BF                     u901_27:
  8955  16BF  0BF3               decfsz	(??i1_clr_display+0)+0,f
  8956  16C0  2EBF               	goto	u901_27
  8957  16C1  0064               	clrwdt
  8958                           opt asmopt_on
  8959                           
  8960                           	line	179
  8961                           	
  8962  16C2                     i1l5174:	
  8963                           ;lcdV2.h: 179: lcd_data = 0b00000001;
  8964  16C2  1283               	bcf	status, 5	;RP0=0, select bank0
  8965  16C3  1303               	bcf	status, 6	;RP1=0, select bank0
  8966  16C4  01E0               	clrf	(_lcd_data)
  8967  16C5  1403               	bsf	status,0
  8968  16C6  0DE0               	rlf	(_lcd_data),f
  8969                           	line	180
  8970                           	
  8971  16C7                     i1l5176:	
  8972                           ;lcdV2.h: 180: lcd_add();
  8973  16C7  120A  158A  23CA   	fcall	i1_lcd_add
              160A  118A         
  8974                           	line	181
  8975                           	
  8976  16CC                     i1l5178:	
  8977                           ;lcdV2.h: 181: _delay((unsigned long)((10)*(4000000/4000.0)));
  8978                           	opt asmopt_off
  8979  16CC  300D               movlw	13
  8980  16CD  00F4               movwf	((??i1_clr_display+0)+0+1),f
  8981  16CE  30FB               	movlw	251
  8982  16CF  00F3               movwf	((??i1_clr_display+0)+0),f
  8983  16D0                     u902_27:
  8984  16D0  0BF3               	decfsz	((??i1_clr_display+0)+0),f
  8985  16D1  2ED0               	goto	u902_27
  8986  16D2  0BF4               	decfsz	((??i1_clr_display+0)+0+1),f
  8987  16D3  2ED0               	goto	u902_27
  8988  16D4  2ED5               	nop2
  8989                           opt asmopt_on
  8990                           
  8991                           	line	182
  8992                           	
  8993  16D5                     i1l5180:	
  8994                           ;lcdV2.h: 182: RC2 = 1;
  8995  16D5  1283               	bcf	status, 5	;RP0=0, select bank0
  8996  16D6  1303               	bcf	status, 6	;RP1=0, select bank0
  8997  16D7  1507               	bsf	(58/8),(58)&7
  8998                           	line	183
  8999                           	
  9000  16D8                     i1l804:	
  9001  16D8  0008               	return
  9002                           	opt stack 0
  9003                           GLOBAL	__end_ofi1_clr_display
  9004  16D9                     	__end_ofi1_clr_display:
  9005 ;; =============== function i1_clr_display ends ============
  9006                           
  9007                           	signat	i1_clr_display,88
  9008                           	global	i1_lcd_add
  9009                           psect	text923,local,class=CODE,delta=2
  9010                           global __ptext923
  9011  0BCA                     __ptext923:
  9012                           
  9013 ;; *************** function i1_lcd_add *****************
  9014 ;; Defined at:
  9015 ;;		line 217 in file "D:\ELECTRONIC\2016\1. Automated Solar Panel Orientation Setter\Firmware\ver2\lcdV2.h"
  9016 ;; Parameters:    Size  Location     Type
  9017 ;;		None
  9018 ;; Auto vars:     Size  Location     Type
  9019 ;;		None
  9020 ;; Return value:  Size  Location     Type
  9021 ;;		None               void
  9022 ;; Registers used:
  9023 ;;		wreg, status,2, status,0
  9024 ;; Tracked objects:
  9025 ;;		On entry : 0/0
  9026 ;;		On exit  : 0/0
  9027 ;;		Unchanged: 0/0
  9028 ;; Data sizes:     COMMON   BANK0   BANK1   BANK3   BANK2
  9029 ;;      Params:         0       0       0       0       0
  9030 ;;      Locals:         0       0       0       0       0
  9031 ;;      Temps:          2       0       0       0       0
  9032 ;;      Totals:         2       0       0       0       0
  9033 ;;Total ram usage:        2 bytes
  9034 ;; Hardware stack levels used:    1
  9035 ;; This function calls:
  9036 ;;		Nothing
  9037 ;; This function is called by:
  9038 ;;		i1_clr_display
  9039 ;; This function uses a non-reentrant model
  9040 ;;
  9041                           psect	text923
  9042                           	file	"D:\ELECTRONIC\2016\1. Automated Solar Panel Orientation Setter\Firmware\ver2\lcdV
                                 2.h"
  9043                           	line	217
  9044                           	global	__size_ofi1_lcd_add
  9045  00F8                     	__size_ofi1_lcd_add	equ	__end_ofi1_lcd_add-i1_lcd_add
  9046                           	
  9047  0BCA                     i1_lcd_add:	
  9048                           	opt	stack 2
  9049                           ; Regs used in i1_lcd_add: [wreg+status,2+status,0]
  9050                           	line	218
  9051                           	
  9052  0BCA                     i1l5182:	
  9053                           ;lcdV2.h: 218: lcd_data_high = lcd_data >> 4;
  9054  0BCA  1283               	bcf	status, 5	;RP0=0, select bank0
  9055  0BCB  1303               	bcf	status, 6	;RP1=0, select bank0
  9056  0BCC  0860               	movf	(_lcd_data),w
  9057  0BCD  00F1               	movwf	(??i1_lcd_add+0)+0
  9058  0BCE  3004               	movlw	04h
  9059  0BCF                     u661_25:
  9060  0BCF  1003               	clrc
  9061  0BD0  0CF1               	rrf	(??i1_lcd_add+0)+0,f
  9062  0BD1  3EFF               	addlw	-1
  9063  0BD2  1D03               	skipz
  9064  0BD3  2BCF               	goto	u661_25
  9065  0BD4  0871               	movf	0+(??i1_lcd_add+0)+0,w
  9066  0BD5  00F2               	movwf	(??i1_lcd_add+1)+0
  9067  0BD6  0872               	movf	(??i1_lcd_add+1)+0,w
  9068  0BD7  00E1               	movwf	(_lcd_data_high)
  9069                           	line	219
  9070                           ;lcdV2.h: 219: lcd_data_low = lcd_data << 4;
  9071  0BD8  0860               	movf	(_lcd_data),w
  9072  0BD9  00F1               	movwf	(??i1_lcd_add+0)+0
  9073  0BDA  3003               	movlw	(04h)-1
  9074  0BDB                     u662_25:
  9075  0BDB  1003               	clrc
  9076  0BDC  0DF1               	rlf	(??i1_lcd_add+0)+0,f
  9077  0BDD  3EFF               	addlw	-1
  9078  0BDE  1D03               	skipz
  9079  0BDF  2BDB               	goto	u662_25
  9080  0BE0  1003               	clrc
  9081  0BE1  0D71               	rlf	(??i1_lcd_add+0)+0,w
  9082  0BE2  00F2               	movwf	(??i1_lcd_add+1)+0
  9083  0BE3  0872               	movf	(??i1_lcd_add+1)+0,w
  9084  0BE4  00E2               	movwf	(_lcd_data_low)
  9085                           	line	220
  9086                           ;lcdV2.h: 220: lcd_data_low = lcd_data_low >> 4;
  9087  0BE5  0862               	movf	(_lcd_data_low),w
  9088  0BE6  00F1               	movwf	(??i1_lcd_add+0)+0
  9089  0BE7  3004               	movlw	04h
  9090  0BE8                     u663_25:
  9091  0BE8  1003               	clrc
  9092  0BE9  0CF1               	rrf	(??i1_lcd_add+0)+0,f
  9093  0BEA  3EFF               	addlw	-1
  9094  0BEB  1D03               	skipz
  9095  0BEC  2BE8               	goto	u663_25
  9096  0BED  0871               	movf	0+(??i1_lcd_add+0)+0,w
  9097  0BEE  00F2               	movwf	(??i1_lcd_add+1)+0
  9098  0BEF  0872               	movf	(??i1_lcd_add+1)+0,w
  9099  0BF0  00E2               	movwf	(_lcd_data_low)
  9100                           	line	222
  9101                           	
  9102  0BF1                     i1l5184:	
  9103                           ;lcdV2.h: 222: bit0 = lcd_data;
  9104  0BF1  107C               	bcf	(_bit0/8),(_bit0)&7
  9105  0BF2  1C60               	btfss	(_lcd_data),0
  9106  0BF3  2BF5               	goto	u664_25
  9107  0BF4  147C               	bsf	(_bit0/8),(_bit0)&7
  9108  0BF5                     u664_25:
  9109                           
  9110                           	line	223
  9111                           ;lcdV2.h: 223: bit1 = lcd_data>>1;
  9112  0BF5  1283               	bcf	status, 5	;RP0=0, select bank0
  9113  0BF6  1303               	bcf	status, 6	;RP1=0, select bank0
  9114  0BF7  0860               	movf	(_lcd_data),w
  9115  0BF8  00F1               	movwf	(??i1_lcd_add+0)+0
  9116  0BF9  3001               	movlw	01h
  9117  0BFA                     u665_25:
  9118  0BFA  1003               	clrc
  9119  0BFB  0CF1               	rrf	(??i1_lcd_add+0)+0,f
  9120  0BFC  3EFF               	addlw	-1
  9121  0BFD  1D03               	skipz
  9122  0BFE  2BFA               	goto	u665_25
  9123  0BFF  10FC               	bcf	(_bit1/8),(_bit1)&7
  9124  0C00  1C71               	btfss	0+(??i1_lcd_add+0)+0,0
  9125  0C01  2C03               	goto	u666_25
  9126  0C02  14FC               	bsf	(_bit1/8),(_bit1)&7
  9127  0C03                     u666_25:
  9128                           
  9129                           	line	224
  9130                           ;lcdV2.h: 224: bit2 = lcd_data>>2;
  9131  0C03  1283               	bcf	status, 5	;RP0=0, select bank0
  9132  0C04  1303               	bcf	status, 6	;RP1=0, select bank0
  9133  0C05  0860               	movf	(_lcd_data),w
  9134  0C06  00F1               	movwf	(??i1_lcd_add+0)+0
  9135  0C07  3002               	movlw	02h
  9136  0C08                     u667_25:
  9137  0C08  1003               	clrc
  9138  0C09  0CF1               	rrf	(??i1_lcd_add+0)+0,f
  9139  0C0A  3EFF               	addlw	-1
  9140  0C0B  1D03               	skipz
  9141  0C0C  2C08               	goto	u667_25
  9142  0C0D  117C               	bcf	(_bit2/8),(_bit2)&7
  9143  0C0E  1C71               	btfss	0+(??i1_lcd_add+0)+0,0
  9144  0C0F  2C11               	goto	u668_25
  9145  0C10  157C               	bsf	(_bit2/8),(_bit2)&7
  9146  0C11                     u668_25:
  9147                           
  9148                           	line	225
  9149                           ;lcdV2.h: 225: bit3 = lcd_data>>3;
  9150  0C11  1283               	bcf	status, 5	;RP0=0, select bank0
  9151  0C12  1303               	bcf	status, 6	;RP1=0, select bank0
  9152  0C13  0860               	movf	(_lcd_data),w
  9153  0C14  00F1               	movwf	(??i1_lcd_add+0)+0
  9154  0C15  3003               	movlw	03h
  9155  0C16                     u669_25:
  9156  0C16  1003               	clrc
  9157  0C17  0CF1               	rrf	(??i1_lcd_add+0)+0,f
  9158  0C18  3EFF               	addlw	-1
  9159  0C19  1D03               	skipz
  9160  0C1A  2C16               	goto	u669_25
  9161  0C1B  11FC               	bcf	(_bit3/8),(_bit3)&7
  9162  0C1C  1C71               	btfss	0+(??i1_lcd_add+0)+0,0
  9163  0C1D  2C1F               	goto	u670_25
  9164  0C1E  15FC               	bsf	(_bit3/8),(_bit3)&7
  9165  0C1F                     u670_25:
  9166                           
  9167                           	line	226
  9168                           ;lcdV2.h: 226: bit4 = lcd_data>>4;
  9169  0C1F  1283               	bcf	status, 5	;RP0=0, select bank0
  9170  0C20  1303               	bcf	status, 6	;RP1=0, select bank0
  9171  0C21  0860               	movf	(_lcd_data),w
  9172  0C22  00F1               	movwf	(??i1_lcd_add+0)+0
  9173  0C23  3004               	movlw	04h
  9174  0C24                     u671_25:
  9175  0C24  1003               	clrc
  9176  0C25  0CF1               	rrf	(??i1_lcd_add+0)+0,f
  9177  0C26  3EFF               	addlw	-1
  9178  0C27  1D03               	skipz
  9179  0C28  2C24               	goto	u671_25
  9180  0C29  127C               	bcf	(_bit4/8),(_bit4)&7
  9181  0C2A  1C71               	btfss	0+(??i1_lcd_add+0)+0,0
  9182  0C2B  2C2D               	goto	u672_25
  9183  0C2C  167C               	bsf	(_bit4/8),(_bit4)&7
  9184  0C2D                     u672_25:
  9185                           
  9186                           	line	227
  9187                           ;lcdV2.h: 227: bit5 = lcd_data>>5;
  9188  0C2D  1283               	bcf	status, 5	;RP0=0, select bank0
  9189  0C2E  1303               	bcf	status, 6	;RP1=0, select bank0
  9190  0C2F  0860               	movf	(_lcd_data),w
  9191  0C30  00F1               	movwf	(??i1_lcd_add+0)+0
  9192  0C31  3005               	movlw	05h
  9193  0C32                     u673_25:
  9194  0C32  1003               	clrc
  9195  0C33  0CF1               	rrf	(??i1_lcd_add+0)+0,f
  9196  0C34  3EFF               	addlw	-1
  9197  0C35  1D03               	skipz
  9198  0C36  2C32               	goto	u673_25
  9199  0C37  12FC               	bcf	(_bit5/8),(_bit5)&7
  9200  0C38  1C71               	btfss	0+(??i1_lcd_add+0)+0,0
  9201  0C39  2C3B               	goto	u674_25
  9202  0C3A  16FC               	bsf	(_bit5/8),(_bit5)&7
  9203  0C3B                     u674_25:
  9204                           
  9205                           	line	228
  9206                           ;lcdV2.h: 228: bit6 = lcd_data>>6;
  9207  0C3B  1283               	bcf	status, 5	;RP0=0, select bank0
  9208  0C3C  1303               	bcf	status, 6	;RP1=0, select bank0
  9209  0C3D  0860               	movf	(_lcd_data),w
  9210  0C3E  00F1               	movwf	(??i1_lcd_add+0)+0
  9211  0C3F  3006               	movlw	06h
  9212  0C40                     u675_25:
  9213  0C40  1003               	clrc
  9214  0C41  0CF1               	rrf	(??i1_lcd_add+0)+0,f
  9215  0C42  3EFF               	addlw	-1
  9216  0C43  1D03               	skipz
  9217  0C44  2C40               	goto	u675_25
  9218  0C45  137C               	bcf	(_bit6/8),(_bit6)&7
  9219  0C46  1C71               	btfss	0+(??i1_lcd_add+0)+0,0
  9220  0C47  2C49               	goto	u676_25
  9221  0C48  177C               	bsf	(_bit6/8),(_bit6)&7
  9222  0C49                     u676_25:
  9223                           
  9224                           	line	229
  9225                           ;lcdV2.h: 229: bit7 = lcd_data>>7;
  9226  0C49  1283               	bcf	status, 5	;RP0=0, select bank0
  9227  0C4A  1303               	bcf	status, 6	;RP1=0, select bank0
  9228  0C4B  0860               	movf	(_lcd_data),w
  9229  0C4C  00F1               	movwf	(??i1_lcd_add+0)+0
  9230  0C4D  3007               	movlw	07h
  9231  0C4E                     u677_25:
  9232  0C4E  1003               	clrc
  9233  0C4F  0CF1               	rrf	(??i1_lcd_add+0)+0,f
  9234  0C50  3EFF               	addlw	-1
  9235  0C51  1D03               	skipz
  9236  0C52  2C4E               	goto	u677_25
  9237  0C53  13FC               	bcf	(_bit7/8),(_bit7)&7
  9238  0C54  1C71               	btfss	0+(??i1_lcd_add+0)+0,0
  9239  0C55  2C57               	goto	u678_25
  9240  0C56  17FC               	bsf	(_bit7/8),(_bit7)&7
  9241  0C57                     u678_25:
  9242                           
  9243                           	line	231
  9244                           	
  9245  0C57                     i1l5186:	
  9246                           ;lcdV2.h: 231: RC3 = 0;
  9247  0C57  1283               	bcf	status, 5	;RP0=0, select bank0
  9248  0C58  1303               	bcf	status, 6	;RP1=0, select bank0
  9249  0C59  1187               	bcf	(59/8),(59)&7
  9250                           	line	232
  9251                           	
  9252  0C5A                     i1l5188:	
  9253                           ;lcdV2.h: 232: _delay(1);
  9254                           		opt asmopt_off
  9255  0C5A  0064               	clrwdt
  9256                           	opt asmopt_on
  9257                           
  9258                           	line	233
  9259                           	
  9260  0C5B                     i1l5190:	
  9261                           ;lcdV2.h: 233: RC3 = 1;
  9262  0C5B  1283               	bcf	status, 5	;RP0=0, select bank0
  9263  0C5C  1303               	bcf	status, 6	;RP1=0, select bank0
  9264  0C5D  1587               	bsf	(59/8),(59)&7
  9265                           	line	234
  9266                           	
  9267  0C5E                     i1l5192:	
  9268                           ;lcdV2.h: 234: _delay(1);
  9269                           		opt asmopt_off
  9270  0C5E  0064               	clrwdt
  9271                           	opt asmopt_on
  9272                           
  9273                           	line	236
  9274                           	
  9275  0C5F                     i1l5194:	
  9276                           ;lcdV2.h: 236: RC1 = bit4;
  9277  0C5F  1A7C               	btfsc	(_bit4/8),(_bit4)&7
  9278  0C60  2C62               	goto	u679_21
  9279  0C61  2C66               	goto	u679_20
  9280                           	
  9281  0C62                     u679_21:
  9282  0C62  1283               	bcf	status, 5	;RP0=0, select bank0
  9283  0C63  1303               	bcf	status, 6	;RP1=0, select bank0
  9284  0C64  1487               	bsf	(57/8),(57)&7
  9285  0C65  2C69               	goto	u680_24
  9286  0C66                     u679_20:
  9287  0C66  1283               	bcf	status, 5	;RP0=0, select bank0
  9288  0C67  1303               	bcf	status, 6	;RP1=0, select bank0
  9289  0C68  1087               	bcf	(57/8),(57)&7
  9290  0C69                     u680_24:
  9291                           	line	237
  9292                           	
  9293  0C69                     i1l5196:	
  9294                           ;lcdV2.h: 237: RD0 = bit5;
  9295  0C69  1AFC               	btfsc	(_bit5/8),(_bit5)&7
  9296  0C6A  2C6C               	goto	u681_21
  9297  0C6B  2C70               	goto	u681_20
  9298                           	
  9299  0C6C                     u681_21:
  9300  0C6C  1283               	bcf	status, 5	;RP0=0, select bank0
  9301  0C6D  1303               	bcf	status, 6	;RP1=0, select bank0
  9302  0C6E  1408               	bsf	(64/8),(64)&7
  9303  0C6F  2C73               	goto	u682_24
  9304  0C70                     u681_20:
  9305  0C70  1283               	bcf	status, 5	;RP0=0, select bank0
  9306  0C71  1303               	bcf	status, 6	;RP1=0, select bank0
  9307  0C72  1008               	bcf	(64/8),(64)&7
  9308  0C73                     u682_24:
  9309                           	line	238
  9310                           	
  9311  0C73                     i1l5198:	
  9312                           ;lcdV2.h: 238: RC0 = bit6;
  9313  0C73  1B7C               	btfsc	(_bit6/8),(_bit6)&7
  9314  0C74  2C76               	goto	u683_21
  9315  0C75  2C7A               	goto	u683_20
  9316                           	
  9317  0C76                     u683_21:
  9318  0C76  1283               	bcf	status, 5	;RP0=0, select bank0
  9319  0C77  1303               	bcf	status, 6	;RP1=0, select bank0
  9320  0C78  1407               	bsf	(56/8),(56)&7
  9321  0C79  2C7D               	goto	u684_24
  9322  0C7A                     u683_20:
  9323  0C7A  1283               	bcf	status, 5	;RP0=0, select bank0
  9324  0C7B  1303               	bcf	status, 6	;RP1=0, select bank0
  9325  0C7C  1007               	bcf	(56/8),(56)&7
  9326  0C7D                     u684_24:
  9327                           	line	239
  9328                           	
  9329  0C7D                     i1l5200:	
  9330                           ;lcdV2.h: 239: RD1 = bit7;
  9331  0C7D  1BFC               	btfsc	(_bit7/8),(_bit7)&7
  9332  0C7E  2C80               	goto	u685_21
  9333  0C7F  2C84               	goto	u685_20
  9334                           	
  9335  0C80                     u685_21:
  9336  0C80  1283               	bcf	status, 5	;RP0=0, select bank0
  9337  0C81  1303               	bcf	status, 6	;RP1=0, select bank0
  9338  0C82  1488               	bsf	(65/8),(65)&7
  9339  0C83  2C87               	goto	u686_24
  9340  0C84                     u685_20:
  9341  0C84  1283               	bcf	status, 5	;RP0=0, select bank0
  9342  0C85  1303               	bcf	status, 6	;RP1=0, select bank0
  9343  0C86  1088               	bcf	(65/8),(65)&7
  9344  0C87                     u686_24:
  9345                           	line	241
  9346                           	
  9347  0C87                     i1l5202:	
  9348                           ;lcdV2.h: 241: _delay(1);
  9349                           		opt asmopt_off
  9350  0C87  0064               	clrwdt
  9351                           	opt asmopt_on
  9352                           
  9353                           	line	242
  9354                           	
  9355  0C88                     i1l5204:	
  9356                           ;lcdV2.h: 242: RC3 = 0;
  9357  0C88  1283               	bcf	status, 5	;RP0=0, select bank0
  9358  0C89  1303               	bcf	status, 6	;RP1=0, select bank0
  9359  0C8A  1187               	bcf	(59/8),(59)&7
  9360                           	line	243
  9361                           	
  9362  0C8B                     i1l5206:	
  9363                           ;lcdV2.h: 243: _delay(1);
  9364                           		opt asmopt_off
  9365  0C8B  0064               	clrwdt
  9366                           	opt asmopt_on
  9367                           
  9368                           	line	247
  9369                           	
  9370  0C8C                     i1l5208:	
  9371                           ;lcdV2.h: 247: RC3 = 0;
  9372  0C8C  1283               	bcf	status, 5	;RP0=0, select bank0
  9373  0C8D  1303               	bcf	status, 6	;RP1=0, select bank0
  9374  0C8E  1187               	bcf	(59/8),(59)&7
  9375                           	line	248
  9376                           	
  9377  0C8F                     i1l5210:	
  9378                           ;lcdV2.h: 248: _delay(1);
  9379                           		opt asmopt_off
  9380  0C8F  0064               	clrwdt
  9381                           	opt asmopt_on
  9382                           
  9383                           	line	249
  9384                           	
  9385  0C90                     i1l5212:	
  9386                           ;lcdV2.h: 249: RC3 = 1;
  9387  0C90  1283               	bcf	status, 5	;RP0=0, select bank0
  9388  0C91  1303               	bcf	status, 6	;RP1=0, select bank0
  9389  0C92  1587               	bsf	(59/8),(59)&7
  9390                           	line	250
  9391                           	
  9392  0C93                     i1l5214:	
  9393                           ;lcdV2.h: 250: _delay(1);
  9394                           		opt asmopt_off
  9395  0C93  0064               	clrwdt
  9396                           	opt asmopt_on
  9397                           
  9398                           	line	252
  9399                           	
  9400  0C94                     i1l5216:	
  9401                           ;lcdV2.h: 252: RC1 = bit0;
  9402  0C94  187C               	btfsc	(_bit0/8),(_bit0)&7
  9403  0C95  2C97               	goto	u687_21
  9404  0C96  2C9B               	goto	u687_20
  9405                           	
  9406  0C97                     u687_21:
  9407  0C97  1283               	bcf	status, 5	;RP0=0, select bank0
  9408  0C98  1303               	bcf	status, 6	;RP1=0, select bank0
  9409  0C99  1487               	bsf	(57/8),(57)&7
  9410  0C9A  2C9E               	goto	u688_24
  9411  0C9B                     u687_20:
  9412  0C9B  1283               	bcf	status, 5	;RP0=0, select bank0
  9413  0C9C  1303               	bcf	status, 6	;RP1=0, select bank0
  9414  0C9D  1087               	bcf	(57/8),(57)&7
  9415  0C9E                     u688_24:
  9416                           	line	253
  9417                           	
  9418  0C9E                     i1l5218:	
  9419                           ;lcdV2.h: 253: RD0 = bit1;
  9420  0C9E  18FC               	btfsc	(_bit1/8),(_bit1)&7
  9421  0C9F  2CA1               	goto	u689_21
  9422  0CA0  2CA5               	goto	u689_20
  9423                           	
  9424  0CA1                     u689_21:
  9425  0CA1  1283               	bcf	status, 5	;RP0=0, select bank0
  9426  0CA2  1303               	bcf	status, 6	;RP1=0, select bank0
  9427  0CA3  1408               	bsf	(64/8),(64)&7
  9428  0CA4  2CA8               	goto	u690_24
  9429  0CA5                     u689_20:
  9430  0CA5  1283               	bcf	status, 5	;RP0=0, select bank0
  9431  0CA6  1303               	bcf	status, 6	;RP1=0, select bank0
  9432  0CA7  1008               	bcf	(64/8),(64)&7
  9433  0CA8                     u690_24:
  9434                           	line	254
  9435                           	
  9436  0CA8                     i1l5220:	
  9437                           ;lcdV2.h: 254: RC0 = bit2;
  9438  0CA8  197C               	btfsc	(_bit2/8),(_bit2)&7
  9439  0CA9  2CAB               	goto	u691_21
  9440  0CAA  2CAF               	goto	u691_20
  9441                           	
  9442  0CAB                     u691_21:
  9443  0CAB  1283               	bcf	status, 5	;RP0=0, select bank0
  9444  0CAC  1303               	bcf	status, 6	;RP1=0, select bank0
  9445  0CAD  1407               	bsf	(56/8),(56)&7
  9446  0CAE  2CB2               	goto	u692_24
  9447  0CAF                     u691_20:
  9448  0CAF  1283               	bcf	status, 5	;RP0=0, select bank0
  9449  0CB0  1303               	bcf	status, 6	;RP1=0, select bank0
  9450  0CB1  1007               	bcf	(56/8),(56)&7
  9451  0CB2                     u692_24:
  9452                           	line	255
  9453                           	
  9454  0CB2                     i1l5222:	
  9455                           ;lcdV2.h: 255: RD1 = bit3;
  9456  0CB2  19FC               	btfsc	(_bit3/8),(_bit3)&7
  9457  0CB3  2CB5               	goto	u693_21
  9458  0CB4  2CB9               	goto	u693_20
  9459                           	
  9460  0CB5                     u693_21:
  9461  0CB5  1283               	bcf	status, 5	;RP0=0, select bank0
  9462  0CB6  1303               	bcf	status, 6	;RP1=0, select bank0
  9463  0CB7  1488               	bsf	(65/8),(65)&7
  9464  0CB8  2CBC               	goto	u694_24
  9465  0CB9                     u693_20:
  9466  0CB9  1283               	bcf	status, 5	;RP0=0, select bank0
  9467  0CBA  1303               	bcf	status, 6	;RP1=0, select bank0
  9468  0CBB  1088               	bcf	(65/8),(65)&7
  9469  0CBC                     u694_24:
  9470                           	line	257
  9471                           	
  9472  0CBC                     i1l5224:	
  9473                           ;lcdV2.h: 257: _delay(1);
  9474                           		opt asmopt_off
  9475  0CBC  0064               	clrwdt
  9476                           	opt asmopt_on
  9477                           
  9478                           	line	258
  9479                           	
  9480  0CBD                     i1l5226:	
  9481                           ;lcdV2.h: 258: RC3 = 0;
  9482  0CBD  1283               	bcf	status, 5	;RP0=0, select bank0
  9483  0CBE  1303               	bcf	status, 6	;RP1=0, select bank0
  9484  0CBF  1187               	bcf	(59/8),(59)&7
  9485                           	line	259
  9486                           	
  9487  0CC0                     i1l5228:	
  9488                           ;lcdV2.h: 259: _delay(1);
  9489                           		opt asmopt_off
  9490  0CC0  0064               	clrwdt
  9491                           	opt asmopt_on
  9492                           
  9493                           	line	260
  9494                           	
  9495  0CC1                     i1l817:	
  9496  0CC1  0008               	return
  9497                           	opt stack 0
  9498                           GLOBAL	__end_ofi1_lcd_add
  9499  0CC2                     	__end_ofi1_lcd_add:
  9500 ;; =============== function i1_lcd_add ends ============
  9501                           
  9502                           	signat	i1_lcd_add,88
  9503                           	global	i1___lwmod
  9504                           psect	text924,local,class=CODE,delta=2
  9505                           global __ptext924
  9506  08D3                     __ptext924:
  9507                           
  9508 ;; *************** function i1___lwmod *****************
  9509 ;; Defined at:
  9510 ;;		line 5 in file "C:\Program Files (x86)\HI-TECH Software\PICC\9.83\sources\lwmod.c"
  9511 ;; Parameters:    Size  Location     Type
  9512 ;;  __lwmod         2    0[COMMON] unsigned int 
  9513 ;;  __lwmod         2    2[COMMON] unsigned int 
  9514 ;; Auto vars:     Size  Location     Type
  9515 ;;  __lwmod         1    5[COMMON] unsigned char 
  9516 ;; Return value:  Size  Location     Type
  9517 ;;                  2    0[COMMON] unsigned int 
  9518 ;; Registers used:
  9519 ;;		wreg, status,2, status,0
  9520 ;; Tracked objects:
  9521 ;;		On entry : 0/0
  9522 ;;		On exit  : 0/0
  9523 ;;		Unchanged: 0/0
  9524 ;; Data sizes:     COMMON   BANK0   BANK1   BANK3   BANK2
  9525 ;;      Params:         4       0       0       0       0
  9526 ;;      Locals:         1       0       0       0       0
  9527 ;;      Temps:          1       0       0       0       0
  9528 ;;      Totals:         6       0       0       0       0
  9529 ;;Total ram usage:        6 bytes
  9530 ;; Hardware stack levels used:    1
  9531 ;; This function calls:
  9532 ;;		Nothing
  9533 ;; This function is called by:
  9534 ;;		_isr
  9535 ;; This function uses a non-reentrant model
  9536 ;;
  9537                           psect	text924
  9538                           	file	"C:\Program Files (x86)\HI-TECH Software\PICC\9.83\sources\lwmod.c"
  9539                           	line	5
  9540                           	global	__size_ofi1___lwmod
  9541  0044                     	__size_ofi1___lwmod	equ	__end_ofi1___lwmod-i1___lwmod
  9542                           	
  9543  08D3                     i1___lwmod:	
  9544                           	opt	stack 3
  9545                           ; Regs used in i1___lwmod: [wreg+status,2+status,0]
  9546                           	line	8
  9547                           	
  9548  08D3                     i1l5230:	
  9549  08D3  0872               	movf	(i1___lwmod@divisor+1),w
  9550  08D4  0471               	iorwf	(i1___lwmod@divisor),w
  9551  08D5  1903               	skipnz
  9552  08D6  28D8               	goto	u695_21
  9553  08D7  28D9               	goto	u695_20
  9554  08D8                     u695_21:
  9555  08D8  290F               	goto	i1l5248
  9556  08D9                     u695_20:
  9557                           	line	9
  9558                           	
  9559  08D9                     i1l5232:	
  9560  08D9  01F6               	clrf	(i1___lwmod@counter)
  9561  08DA  1403               	bsf	status,0
  9562  08DB  0DF6               	rlf	(i1___lwmod@counter),f
  9563                           	line	10
  9564  08DC  28E9               	goto	i1l5238
  9565                           	
  9566  08DD                     i1l1926:	
  9567                           	line	11
  9568                           	
  9569  08DD                     i1l5234:	
  9570  08DD  3001               	movlw	01h
  9571                           	
  9572  08DE                     u696_25:
  9573  08DE  1003               	clrc
  9574  08DF  0DF1               	rlf	(i1___lwmod@divisor),f
  9575  08E0  0DF2               	rlf	(i1___lwmod@divisor+1),f
  9576  08E1  3EFF               	addlw	-1
  9577  08E2  1D03               	skipz
  9578  08E3  28DE               	goto	u696_25
  9579                           	line	12
  9580                           	
  9581  08E4                     i1l5236:	
  9582  08E4  3001               	movlw	(01h)
  9583  08E5  00F5               	movwf	(??i1___lwmod+0)+0
  9584  08E6  0875               	movf	(??i1___lwmod+0)+0,w
  9585  08E7  07F6               	addwf	(i1___lwmod@counter),f
  9586  08E8  28E9               	goto	i1l5238
  9587                           	line	13
  9588                           	
  9589  08E9                     i1l1925:	
  9590                           	line	10
  9591                           	
  9592  08E9                     i1l5238:	
  9593  08E9  1FF2               	btfss	(i1___lwmod@divisor+1),(15)&7
  9594  08EA  28EC               	goto	u697_21
  9595  08EB  28ED               	goto	u697_20
  9596  08EC                     u697_21:
  9597  08EC  28DD               	goto	i1l5234
  9598  08ED                     u697_20:
  9599  08ED  28EF               	goto	i1l5240
  9600                           	
  9601  08EE                     i1l1927:	
  9602  08EE  28EF               	goto	i1l5240
  9603                           	line	14
  9604                           	
  9605  08EF                     i1l1928:	
  9606                           	line	15
  9607                           	
  9608  08EF                     i1l5240:	
  9609  08EF  0872               	movf	(i1___lwmod@divisor+1),w
  9610  08F0  0274               	subwf	(i1___lwmod@dividend+1),w
  9611  08F1  1D03               	skipz
  9612  08F2  28F5               	goto	u698_25
  9613  08F3  0871               	movf	(i1___lwmod@divisor),w
  9614  08F4  0273               	subwf	(i1___lwmod@dividend),w
  9615  08F5                     u698_25:
  9616  08F5  1C03               	skipc
  9617  08F6  28F8               	goto	u698_21
  9618  08F7  28F9               	goto	u698_20
  9619  08F8                     u698_21:
  9620  08F8  2900               	goto	i1l5244
  9621  08F9                     u698_20:
  9622                           	line	16
  9623                           	
  9624  08F9                     i1l5242:	
  9625  08F9  0871               	movf	(i1___lwmod@divisor),w
  9626  08FA  02F3               	subwf	(i1___lwmod@dividend),f
  9627  08FB  0872               	movf	(i1___lwmod@divisor+1),w
  9628  08FC  1C03               	skipc
  9629  08FD  03F4               	decf	(i1___lwmod@dividend+1),f
  9630  08FE  02F4               	subwf	(i1___lwmod@dividend+1),f
  9631  08FF  2900               	goto	i1l5244
  9632                           	
  9633  0900                     i1l1929:	
  9634                           	line	17
  9635                           	
  9636  0900                     i1l5244:	
  9637  0900  3001               	movlw	01h
  9638                           	
  9639  0901                     u699_25:
  9640  0901  1003               	clrc
  9641  0902  0CF2               	rrf	(i1___lwmod@divisor+1),f
  9642  0903  0CF1               	rrf	(i1___lwmod@divisor),f
  9643  0904  3EFF               	addlw	-1
  9644  0905  1D03               	skipz
  9645  0906  2901               	goto	u699_25
  9646                           	line	18
  9647                           	
  9648  0907                     i1l5246:	
  9649  0907  3001               	movlw	low(01h)
  9650  0908  02F6               	subwf	(i1___lwmod@counter),f
  9651  0909  1D03               	btfss	status,2
  9652  090A  290C               	goto	u700_21
  9653  090B  290D               	goto	u700_20
  9654  090C                     u700_21:
  9655  090C  28EF               	goto	i1l5240
  9656  090D                     u700_20:
  9657  090D  290F               	goto	i1l5248
  9658                           	
  9659  090E                     i1l1930:	
  9660  090E  290F               	goto	i1l5248
  9661                           	line	19
  9662                           	
  9663  090F                     i1l1924:	
  9664                           	line	20
  9665                           	
  9666  090F                     i1l5248:	
  9667  090F  0874               	movf	(i1___lwmod@dividend+1),w
  9668  0910  01F2               	clrf	(?i1___lwmod+1)
  9669  0911  07F2               	addwf	(?i1___lwmod+1)
  9670  0912  0873               	movf	(i1___lwmod@dividend),w
  9671  0913  01F1               	clrf	(?i1___lwmod)
  9672  0914  07F1               	addwf	(?i1___lwmod)
  9673                           
  9674  0915  2916               	goto	i1l1931
  9675                           	
  9676  0916                     i1l5250:	
  9677                           	line	21
  9678                           	
  9679  0916                     i1l1931:	
  9680  0916  0008               	return
  9681                           	opt stack 0
  9682                           GLOBAL	__end_ofi1___lwmod
  9683  0917                     	__end_ofi1___lwmod:
  9684 ;; =============== function i1___lwmod ends ============
  9685                           
  9686                           	signat	i1___lwmod,90
  9687                           	global	i1_lcd_init
  9688                           psect	text925,local,class=CODE,delta=2
  9689                           global __ptext925
  9690  0AF0                     __ptext925:
  9691                           
  9692 ;; *************** function i1_lcd_init *****************
  9693 ;; Defined at:
  9694 ;;		line 60 in file "D:\ELECTRONIC\2016\1. Automated Solar Panel Orientation Setter\Firmware\ver2\lcdV2.h"
  9695 ;; Parameters:    Size  Location     Type
  9696 ;;		None
  9697 ;; Auto vars:     Size  Location     Type
  9698 ;;  lcd_init        2    0[COMMON] unsigned int 
  9699 ;; Return value:  Size  Location     Type
  9700 ;;		None               void
  9701 ;; Registers used:
  9702 ;;		wreg, status,2
  9703 ;; Tracked objects:
  9704 ;;		On entry : 0/0
  9705 ;;		On exit  : 0/0
  9706 ;;		Unchanged: 0/0
  9707 ;; Data sizes:     COMMON   BANK0   BANK1   BANK3   BANK2
  9708 ;;      Params:         0       0       0       0       0
  9709 ;;      Locals:         2       0       0       0       0
  9710 ;;      Temps:          0       0       0       0       0
  9711 ;;      Totals:         2       0       0       0       0
  9712 ;;Total ram usage:        2 bytes
  9713 ;; Hardware stack levels used:    1
  9714 ;; This function calls:
  9715 ;;		Nothing
  9716 ;; This function is called by:
  9717 ;;		_isr
  9718 ;; This function uses a non-reentrant model
  9719 ;;
  9720                           psect	text925
  9721                           	file	"D:\ELECTRONIC\2016\1. Automated Solar Panel Orientation Setter\Firmware\ver2\lcdV
                                 2.h"
  9722                           	line	60
  9723                           	global	__size_ofi1_lcd_init
  9724  00DA                     	__size_ofi1_lcd_init	equ	__end_ofi1_lcd_init-i1_lcd_init
  9725                           	
  9726  0AF0                     i1_lcd_init:	
  9727                           	opt	stack 3
  9728                           ; Regs used in i1_lcd_init: [wreg+status,2]
  9729                           	line	62
  9730                           	
  9731  0AF0                     i1l5128:	
  9732                           ;lcdV2.h: 62: RC3 = 0;
  9733  0AF0  1283               	bcf	status, 5	;RP0=0, select bank0
  9734  0AF1  1303               	bcf	status, 6	;RP1=0, select bank0
  9735  0AF2  1187               	bcf	(59/8),(59)&7
  9736                           	line	66
  9737                           ;lcdV2.h: 64: unsigned int DelayLCD;
  9738                           ;lcdV2.h: 66: RC2 = 0;
  9739  0AF3  1107               	bcf	(58/8),(58)&7
  9740                           	line	67
  9741                           ;lcdV2.h: 67: RD1 = 0;
  9742  0AF4  1088               	bcf	(65/8),(65)&7
  9743                           	line	68
  9744                           ;lcdV2.h: 68: RC0 = 0;
  9745  0AF5  1007               	bcf	(56/8),(56)&7
  9746                           	line	69
  9747                           ;lcdV2.h: 69: RD0 = 1;
  9748  0AF6  1408               	bsf	(64/8),(64)&7
  9749                           	line	70
  9750                           ;lcdV2.h: 70: RC1 = 0;
  9751  0AF7  1087               	bcf	(57/8),(57)&7
  9752                           	line	71
  9753                           ;lcdV2.h: 71: RC3 = 1;
  9754  0AF8  1587               	bsf	(59/8),(59)&7
  9755                           	line	72
  9756                           ;lcdV2.h: 72: RC3 = 0;
  9757  0AF9  1187               	bcf	(59/8),(59)&7
  9758                           	line	73
  9759                           ;lcdV2.h: 73: RD1 = 1;
  9760  0AFA  1488               	bsf	(65/8),(65)&7
  9761                           	line	74
  9762                           ;lcdV2.h: 74: RC0 = 0;
  9763  0AFB  1007               	bcf	(56/8),(56)&7
  9764                           	line	75
  9765                           ;lcdV2.h: 75: RD0 = 0;
  9766  0AFC  1008               	bcf	(64/8),(64)&7
  9767                           	line	76
  9768                           ;lcdV2.h: 76: RC1 = 0;
  9769  0AFD  1087               	bcf	(57/8),(57)&7
  9770                           	line	77
  9771                           ;lcdV2.h: 77: RC3 = 1;
  9772  0AFE  1587               	bsf	(59/8),(59)&7
  9773                           	line	78
  9774                           ;lcdV2.h: 78: RC3 = 0;
  9775  0AFF  1187               	bcf	(59/8),(59)&7
  9776                           	line	79
  9777                           	
  9778  0B00                     i1l5130:	
  9779                           ;lcdV2.h: 79: for(DelayLCD=0;DelayLCD<2500;DelayLCD++);
  9780  0B00  01F1               	clrf	(i1lcd_init@DelayLCD)
  9781  0B01  01F2               	clrf	(i1lcd_init@DelayLCD+1)
  9782                           	
  9783  0B02                     i1l5132:	
  9784  0B02  3009               	movlw	high(09C4h)
  9785  0B03  0272               	subwf	(i1lcd_init@DelayLCD+1),w
  9786  0B04  30C4               	movlw	low(09C4h)
  9787  0B05  1903               	skipnz
  9788  0B06  0271               	subwf	(i1lcd_init@DelayLCD),w
  9789  0B07  1C03               	skipc
  9790  0B08  2B0A               	goto	u651_21
  9791  0B09  2B0B               	goto	u651_20
  9792  0B0A                     u651_21:
  9793  0B0A  2B0D               	goto	i1l5136
  9794  0B0B                     u651_20:
  9795  0B0B  2B1C               	goto	i1l783
  9796                           	
  9797  0B0C                     i1l5134:	
  9798  0B0C  2B1C               	goto	i1l783
  9799                           	
  9800  0B0D                     i1l782:	
  9801                           	
  9802  0B0D                     i1l5136:	
  9803  0B0D  3001               	movlw	low(01h)
  9804  0B0E  07F1               	addwf	(i1lcd_init@DelayLCD),f
  9805  0B0F  1803               	skipnc
  9806  0B10  0AF2               	incf	(i1lcd_init@DelayLCD+1),f
  9807  0B11  3000               	movlw	high(01h)
  9808  0B12  07F2               	addwf	(i1lcd_init@DelayLCD+1),f
  9809  0B13  3009               	movlw	high(09C4h)
  9810  0B14  0272               	subwf	(i1lcd_init@DelayLCD+1),w
  9811  0B15  30C4               	movlw	low(09C4h)
  9812  0B16  1903               	skipnz
  9813  0B17  0271               	subwf	(i1lcd_init@DelayLCD),w
  9814  0B18  1C03               	skipc
  9815  0B19  2B1B               	goto	u652_21
  9816  0B1A  2B1C               	goto	u652_20
  9817  0B1B                     u652_21:
  9818  0B1B  2B0D               	goto	i1l5136
  9819  0B1C                     u652_20:
  9820                           	
  9821  0B1C                     i1l783:	
  9822                           	line	82
  9823                           ;lcdV2.h: 82: RC2 = 0;
  9824  0B1C  1283               	bcf	status, 5	;RP0=0, select bank0
  9825  0B1D  1303               	bcf	status, 6	;RP1=0, select bank0
  9826  0B1E  1107               	bcf	(58/8),(58)&7
  9827                           	line	83
  9828                           ;lcdV2.h: 83: RD1 = 0;
  9829  0B1F  1088               	bcf	(65/8),(65)&7
  9830                           	line	84
  9831                           ;lcdV2.h: 84: RC0 = 0;
  9832  0B20  1007               	bcf	(56/8),(56)&7
  9833                           	line	85
  9834                           ;lcdV2.h: 85: RD0 = 1;
  9835  0B21  1408               	bsf	(64/8),(64)&7
  9836                           	line	86
  9837                           ;lcdV2.h: 86: RC1 = 0;
  9838  0B22  1087               	bcf	(57/8),(57)&7
  9839                           	line	87
  9840                           ;lcdV2.h: 87: RC3 = 1;
  9841  0B23  1587               	bsf	(59/8),(59)&7
  9842                           	line	88
  9843                           ;lcdV2.h: 88: RC3 = 0;
  9844  0B24  1187               	bcf	(59/8),(59)&7
  9845                           	line	89
  9846                           ;lcdV2.h: 89: RD1 = 1;
  9847  0B25  1488               	bsf	(65/8),(65)&7
  9848                           	line	90
  9849                           ;lcdV2.h: 90: RC0 = 0;
  9850  0B26  1007               	bcf	(56/8),(56)&7
  9851                           	line	91
  9852                           ;lcdV2.h: 91: RD0 = 0;
  9853  0B27  1008               	bcf	(64/8),(64)&7
  9854                           	line	92
  9855                           ;lcdV2.h: 92: RC1 = 0;
  9856  0B28  1087               	bcf	(57/8),(57)&7
  9857                           	line	93
  9858                           ;lcdV2.h: 93: RC3 = 1;
  9859  0B29  1587               	bsf	(59/8),(59)&7
  9860                           	line	94
  9861                           ;lcdV2.h: 94: RC3 = 0;
  9862  0B2A  1187               	bcf	(59/8),(59)&7
  9863                           	line	95
  9864                           	
  9865  0B2B                     i1l5138:	
  9866                           ;lcdV2.h: 95: for(DelayLCD=0;DelayLCD<2500;DelayLCD++);
  9867  0B2B  01F1               	clrf	(i1lcd_init@DelayLCD)
  9868  0B2C  01F2               	clrf	(i1lcd_init@DelayLCD+1)
  9869                           	
  9870  0B2D                     i1l5140:	
  9871  0B2D  3009               	movlw	high(09C4h)
  9872  0B2E  0272               	subwf	(i1lcd_init@DelayLCD+1),w
  9873  0B2F  30C4               	movlw	low(09C4h)
  9874  0B30  1903               	skipnz
  9875  0B31  0271               	subwf	(i1lcd_init@DelayLCD),w
  9876  0B32  1C03               	skipc
  9877  0B33  2B35               	goto	u653_21
  9878  0B34  2B36               	goto	u653_20
  9879  0B35                     u653_21:
  9880  0B35  2B38               	goto	i1l5144
  9881  0B36                     u653_20:
  9882  0B36  2B47               	goto	i1l785
  9883                           	
  9884  0B37                     i1l5142:	
  9885  0B37  2B47               	goto	i1l785
  9886                           	
  9887  0B38                     i1l784:	
  9888                           	
  9889  0B38                     i1l5144:	
  9890  0B38  3001               	movlw	low(01h)
  9891  0B39  07F1               	addwf	(i1lcd_init@DelayLCD),f
  9892  0B3A  1803               	skipnc
  9893  0B3B  0AF2               	incf	(i1lcd_init@DelayLCD+1),f
  9894  0B3C  3000               	movlw	high(01h)
  9895  0B3D  07F2               	addwf	(i1lcd_init@DelayLCD+1),f
  9896  0B3E  3009               	movlw	high(09C4h)
  9897  0B3F  0272               	subwf	(i1lcd_init@DelayLCD+1),w
  9898  0B40  30C4               	movlw	low(09C4h)
  9899  0B41  1903               	skipnz
  9900  0B42  0271               	subwf	(i1lcd_init@DelayLCD),w
  9901  0B43  1C03               	skipc
  9902  0B44  2B46               	goto	u654_21
  9903  0B45  2B47               	goto	u654_20
  9904  0B46                     u654_21:
  9905  0B46  2B38               	goto	i1l5144
  9906  0B47                     u654_20:
  9907                           	
  9908  0B47                     i1l785:	
  9909                           	line	98
  9910                           ;lcdV2.h: 98: RC2 = 0;
  9911  0B47  1283               	bcf	status, 5	;RP0=0, select bank0
  9912  0B48  1303               	bcf	status, 6	;RP1=0, select bank0
  9913  0B49  1107               	bcf	(58/8),(58)&7
  9914                           	line	99
  9915                           ;lcdV2.h: 99: RD1 = 0;
  9916  0B4A  1088               	bcf	(65/8),(65)&7
  9917                           	line	100
  9918                           ;lcdV2.h: 100: RC0 = 0;
  9919  0B4B  1007               	bcf	(56/8),(56)&7
  9920                           	line	101
  9921                           ;lcdV2.h: 101: RD0 = 0;
  9922  0B4C  1008               	bcf	(64/8),(64)&7
  9923                           	line	102
  9924                           ;lcdV2.h: 102: RC1 = 0;
  9925  0B4D  1087               	bcf	(57/8),(57)&7
  9926                           	line	103
  9927                           ;lcdV2.h: 103: RC3 = 1;
  9928  0B4E  1587               	bsf	(59/8),(59)&7
  9929                           	line	104
  9930                           ;lcdV2.h: 104: RC3 = 0;
  9931  0B4F  1187               	bcf	(59/8),(59)&7
  9932                           	line	105
  9933                           ;lcdV2.h: 105: RD1 = 0;
  9934  0B50  1088               	bcf	(65/8),(65)&7
  9935                           	line	106
  9936                           ;lcdV2.h: 106: RC0 = 1;
  9937  0B51  1407               	bsf	(56/8),(56)&7
  9938                           	line	107
  9939                           ;lcdV2.h: 107: RD0 = 1;
  9940  0B52  1408               	bsf	(64/8),(64)&7
  9941                           	line	108
  9942                           ;lcdV2.h: 108: RC1 = 0;
  9943  0B53  1087               	bcf	(57/8),(57)&7
  9944                           	line	109
  9945                           ;lcdV2.h: 109: RC3 = 1;
  9946  0B54  1587               	bsf	(59/8),(59)&7
  9947                           	line	110
  9948                           ;lcdV2.h: 110: RC3 = 0;
  9949  0B55  1187               	bcf	(59/8),(59)&7
  9950                           	line	111
  9951                           	
  9952  0B56                     i1l5146:	
  9953                           ;lcdV2.h: 111: for(DelayLCD=0;DelayLCD<2500;DelayLCD++);
  9954  0B56  01F1               	clrf	(i1lcd_init@DelayLCD)
  9955  0B57  01F2               	clrf	(i1lcd_init@DelayLCD+1)
  9956                           	
  9957  0B58                     i1l5148:	
  9958  0B58  3009               	movlw	high(09C4h)
  9959  0B59  0272               	subwf	(i1lcd_init@DelayLCD+1),w
  9960  0B5A  30C4               	movlw	low(09C4h)
  9961  0B5B  1903               	skipnz
  9962  0B5C  0271               	subwf	(i1lcd_init@DelayLCD),w
  9963  0B5D  1C03               	skipc
  9964  0B5E  2B60               	goto	u655_21
  9965  0B5F  2B61               	goto	u655_20
  9966  0B60                     u655_21:
  9967  0B60  2B63               	goto	i1l5152
  9968  0B61                     u655_20:
  9969  0B61  2B72               	goto	i1l787
  9970                           	
  9971  0B62                     i1l5150:	
  9972  0B62  2B72               	goto	i1l787
  9973                           	
  9974  0B63                     i1l786:	
  9975                           	
  9976  0B63                     i1l5152:	
  9977  0B63  3001               	movlw	low(01h)
  9978  0B64  07F1               	addwf	(i1lcd_init@DelayLCD),f
  9979  0B65  1803               	skipnc
  9980  0B66  0AF2               	incf	(i1lcd_init@DelayLCD+1),f
  9981  0B67  3000               	movlw	high(01h)
  9982  0B68  07F2               	addwf	(i1lcd_init@DelayLCD+1),f
  9983  0B69  3009               	movlw	high(09C4h)
  9984  0B6A  0272               	subwf	(i1lcd_init@DelayLCD+1),w
  9985  0B6B  30C4               	movlw	low(09C4h)
  9986  0B6C  1903               	skipnz
  9987  0B6D  0271               	subwf	(i1lcd_init@DelayLCD),w
  9988  0B6E  1C03               	skipc
  9989  0B6F  2B71               	goto	u656_21
  9990  0B70  2B72               	goto	u656_20
  9991  0B71                     u656_21:
  9992  0B71  2B63               	goto	i1l5152
  9993  0B72                     u656_20:
  9994                           	
  9995  0B72                     i1l787:	
  9996                           	line	114
  9997                           ;lcdV2.h: 114: RC2 = 0;
  9998  0B72  1283               	bcf	status, 5	;RP0=0, select bank0
  9999  0B73  1303               	bcf	status, 6	;RP1=0, select bank0
 10000  0B74  1107               	bcf	(58/8),(58)&7
 10001                           	line	115
 10002                           ;lcdV2.h: 115: RD1 = 0;
 10003  0B75  1088               	bcf	(65/8),(65)&7
 10004                           	line	116
 10005                           ;lcdV2.h: 116: RC0 = 0;
 10006  0B76  1007               	bcf	(56/8),(56)&7
 10007                           	line	117
 10008                           ;lcdV2.h: 117: RD0 = 0;
 10009  0B77  1008               	bcf	(64/8),(64)&7
 10010                           	line	118
 10011                           ;lcdV2.h: 118: RC1 = 0;
 10012  0B78  1087               	bcf	(57/8),(57)&7
 10013                           	line	119
 10014                           ;lcdV2.h: 119: RC3 = 1;
 10015  0B79  1587               	bsf	(59/8),(59)&7
 10016                           	line	120
 10017                           ;lcdV2.h: 120: RC3 = 0;
 10018  0B7A  1187               	bcf	(59/8),(59)&7
 10019                           	line	121
 10020                           ;lcdV2.h: 121: RD1 = 1;
 10021  0B7B  1488               	bsf	(65/8),(65)&7
 10022                           	line	122
 10023                           ;lcdV2.h: 122: RC0 = 1;
 10024  0B7C  1407               	bsf	(56/8),(56)&7
 10025                           	line	123
 10026                           ;lcdV2.h: 123: RD0 = 0;
 10027  0B7D  1008               	bcf	(64/8),(64)&7
 10028                           	line	124
 10029                           ;lcdV2.h: 124: RC1 = 1;
 10030  0B7E  1487               	bsf	(57/8),(57)&7
 10031                           	line	125
 10032                           ;lcdV2.h: 125: RC3 = 1;
 10033  0B7F  1587               	bsf	(59/8),(59)&7
 10034                           	line	126
 10035                           ;lcdV2.h: 126: RC3 = 0;
 10036  0B80  1187               	bcf	(59/8),(59)&7
 10037                           	line	127
 10038                           	
 10039  0B81                     i1l5154:	
 10040                           ;lcdV2.h: 127: for(DelayLCD=0;DelayLCD<2500;DelayLCD++);
 10041  0B81  01F1               	clrf	(i1lcd_init@DelayLCD)
 10042  0B82  01F2               	clrf	(i1lcd_init@DelayLCD+1)
 10043                           	
 10044  0B83                     i1l5156:	
 10045  0B83  3009               	movlw	high(09C4h)
 10046  0B84  0272               	subwf	(i1lcd_init@DelayLCD+1),w
 10047  0B85  30C4               	movlw	low(09C4h)
 10048  0B86  1903               	skipnz
 10049  0B87  0271               	subwf	(i1lcd_init@DelayLCD),w
 10050  0B88  1C03               	skipc
 10051  0B89  2B8B               	goto	u657_21
 10052  0B8A  2B8C               	goto	u657_20
 10053  0B8B                     u657_21:
 10054  0B8B  2B8E               	goto	i1l5160
 10055  0B8C                     u657_20:
 10056  0B8C  2B9D               	goto	i1l789
 10057                           	
 10058  0B8D                     i1l5158:	
 10059  0B8D  2B9D               	goto	i1l789
 10060                           	
 10061  0B8E                     i1l788:	
 10062                           	
 10063  0B8E                     i1l5160:	
 10064  0B8E  3001               	movlw	low(01h)
 10065  0B8F  07F1               	addwf	(i1lcd_init@DelayLCD),f
 10066  0B90  1803               	skipnc
 10067  0B91  0AF2               	incf	(i1lcd_init@DelayLCD+1),f
 10068  0B92  3000               	movlw	high(01h)
 10069  0B93  07F2               	addwf	(i1lcd_init@DelayLCD+1),f
 10070  0B94  3009               	movlw	high(09C4h)
 10071  0B95  0272               	subwf	(i1lcd_init@DelayLCD+1),w
 10072  0B96  30C4               	movlw	low(09C4h)
 10073  0B97  1903               	skipnz
 10074  0B98  0271               	subwf	(i1lcd_init@DelayLCD),w
 10075  0B99  1C03               	skipc
 10076  0B9A  2B9C               	goto	u658_21
 10077  0B9B  2B9D               	goto	u658_20
 10078  0B9C                     u658_21:
 10079  0B9C  2B8E               	goto	i1l5160
 10080  0B9D                     u658_20:
 10081                           	
 10082  0B9D                     i1l789:	
 10083                           	line	130
 10084                           ;lcdV2.h: 130: RC2 = 0;
 10085  0B9D  1283               	bcf	status, 5	;RP0=0, select bank0
 10086  0B9E  1303               	bcf	status, 6	;RP1=0, select bank0
 10087  0B9F  1107               	bcf	(58/8),(58)&7
 10088                           	line	131
 10089                           ;lcdV2.h: 131: RD1 = 0;
 10090  0BA0  1088               	bcf	(65/8),(65)&7
 10091                           	line	132
 10092                           ;lcdV2.h: 132: RC0 = 0;
 10093  0BA1  1007               	bcf	(56/8),(56)&7
 10094                           	line	133
 10095                           ;lcdV2.h: 133: RD0 = 0;
 10096  0BA2  1008               	bcf	(64/8),(64)&7
 10097                           	line	134
 10098                           ;lcdV2.h: 134: RC1 = 0;
 10099  0BA3  1087               	bcf	(57/8),(57)&7
 10100                           	line	135
 10101                           ;lcdV2.h: 135: RC3 = 1;
 10102  0BA4  1587               	bsf	(59/8),(59)&7
 10103                           	line	136
 10104                           ;lcdV2.h: 136: RC3 = 0;
 10105  0BA5  1187               	bcf	(59/8),(59)&7
 10106                           	line	137
 10107                           ;lcdV2.h: 137: RD1 = 0;
 10108  0BA6  1088               	bcf	(65/8),(65)&7
 10109                           	line	138
 10110                           ;lcdV2.h: 138: RC0 = 0;
 10111  0BA7  1007               	bcf	(56/8),(56)&7
 10112                           	line	139
 10113                           ;lcdV2.h: 139: RD0 = 0;
 10114  0BA8  1008               	bcf	(64/8),(64)&7
 10115                           	line	140
 10116                           ;lcdV2.h: 140: RC1 = 1;
 10117  0BA9  1487               	bsf	(57/8),(57)&7
 10118                           	line	141
 10119                           ;lcdV2.h: 141: RC3 = 1;
 10120  0BAA  1587               	bsf	(59/8),(59)&7
 10121                           	line	142
 10122                           ;lcdV2.h: 142: RC3 = 0;
 10123  0BAB  1187               	bcf	(59/8),(59)&7
 10124                           	line	143
 10125                           	
 10126  0BAC                     i1l5162:	
 10127                           ;lcdV2.h: 143: for(DelayLCD=0;DelayLCD<2500;DelayLCD++);
 10128  0BAC  01F1               	clrf	(i1lcd_init@DelayLCD)
 10129  0BAD  01F2               	clrf	(i1lcd_init@DelayLCD+1)
 10130                           	
 10131  0BAE                     i1l5164:	
 10132  0BAE  3009               	movlw	high(09C4h)
 10133  0BAF  0272               	subwf	(i1lcd_init@DelayLCD+1),w
 10134  0BB0  30C4               	movlw	low(09C4h)
 10135  0BB1  1903               	skipnz
 10136  0BB2  0271               	subwf	(i1lcd_init@DelayLCD),w
 10137  0BB3  1C03               	skipc
 10138  0BB4  2BB6               	goto	u659_21
 10139  0BB5  2BB7               	goto	u659_20
 10140  0BB6                     u659_21:
 10141  0BB6  2BB9               	goto	i1l5168
 10142  0BB7                     u659_20:
 10143  0BB7  2BC9               	goto	i1l792
 10144                           	
 10145  0BB8                     i1l5166:	
 10146  0BB8  2BC9               	goto	i1l792
 10147                           	
 10148  0BB9                     i1l790:	
 10149                           	
 10150  0BB9                     i1l5168:	
 10151  0BB9  3001               	movlw	low(01h)
 10152  0BBA  07F1               	addwf	(i1lcd_init@DelayLCD),f
 10153  0BBB  1803               	skipnc
 10154  0BBC  0AF2               	incf	(i1lcd_init@DelayLCD+1),f
 10155  0BBD  3000               	movlw	high(01h)
 10156  0BBE  07F2               	addwf	(i1lcd_init@DelayLCD+1),f
 10157  0BBF  3009               	movlw	high(09C4h)
 10158  0BC0  0272               	subwf	(i1lcd_init@DelayLCD+1),w
 10159  0BC1  30C4               	movlw	low(09C4h)
 10160  0BC2  1903               	skipnz
 10161  0BC3  0271               	subwf	(i1lcd_init@DelayLCD),w
 10162  0BC4  1C03               	skipc
 10163  0BC5  2BC7               	goto	u660_21
 10164  0BC6  2BC8               	goto	u660_20
 10165  0BC7                     u660_21:
 10166  0BC7  2BB9               	goto	i1l5168
 10167  0BC8                     u660_20:
 10168  0BC8  2BC9               	goto	i1l792
 10169                           	
 10170  0BC9                     i1l791:	
 10171                           	line	146
 10172                           	
 10173  0BC9                     i1l792:	
 10174  0BC9  0008               	return
 10175                           	opt stack 0
 10176                           GLOBAL	__end_ofi1_lcd_init
 10177  0BCA                     	__end_ofi1_lcd_init:
 10178 ;; =============== function i1_lcd_init ends ============
 10179                           
 10180                           	signat	i1_lcd_init,88
 10181                           psect	text926,local,class=CODE,delta=2
 10182                           global __ptext926
 10183  0000                     __ptext926:
 10184                           	global	btemp
 10185  007E                     	btemp set 07Eh
 10186                           
 10187                           	DABS	1,126,2	;btemp
 10188                           	global	wtemp0
 10189  007E                     	wtemp0 set btemp


HI-TECH Software PICC Macro Assembler V9.83 build 10920 
Symbol Table                                                                                   Wed Feb 24 00:11:07 2016

                       _i 006B                         _j 005E                         _v 0064  
                       _w 0065                         _x 0067                         _y 0068  
                       _z 0069                         pc 0002            ___bmul@product 0022  
                      _GO 00FA                        _RD 0C60                        _WR 0C61  
                      _rc 00B4                        fsr 0004       ___wmul@multiplicand 0022  
                     l801 16B9                       l804 1719                       l812 17CE  
                     l900 0FE4                       l813 17D9                       l901 0FE5  
                     l814 17FF                       l910 00D7                       l902 0FFC  
                     l823 165E                       l911 01F4                       l903 0FFD  
                     l832 16F8                       l920 0136                       l912 00EA  
                     l904 0FFD                       l817 0DB9                       l913 01F3  
                     l921 01EF                       l930 0195                       l922 0149  
                     l914 00FD                       l915 01F2                       l923 01EE  
                     l931 01EA                       l907 01F5                       l940 0204  
                     l932 01A8                       l924 015C                       l916 0110  
                     l908 00C4                       l941 01FE                       l909 01F5  
                     l917 01F1                       l925 01ED                       l933 01E9  
                     l790 0ADF                       l782 0A3B                       l950 0222  
                     l942 01FE                       l934 01BB                       l926 016F  
                     l918 0123                       l791 0AEF                       l783 0A4A  
                     l951 021C                       l943 0203                       l919 01F0  
                     l927 01EC                       l935 01E8                       l792 0AEF  
                     l784 0A64                       l944 0234                       l952 021C  
                     l936 01CE                       l928 0182                       l785 0A73  
                     l953 0221                       l945 0213                       l929 01EB  
                     l937 01E7                       l786 0A8D                       l970 0E15  
                     l962 0E00                       l954 0232                       l946 020D  
                     l938 01E1                       l890 0FE7                       l779 1760  
                     l787 0A9C                       l883 002A                       l971 0E23  
                     l963 0DD5                       l955 0231                       l947 020D  
                     l939 01E6                       l891 0FB7                       l788 0AB6  
                     l980 0EC1                       l972 0E31                       l964 0EC3  
                     l956 022B                       l948 0212                       l892 0FFB  
                     l789 0AC5                       l981 0EC0                       l973 0E3F  
                     l965 0DE3                       l949 0233                       l957 022B  
                     l893 0FBC                       l886 166D                       l990 17A1  
                     l974 0EC2                       l982 0E95                       l966 0DF1  
                     l958 0230                       l894 0FDE                       l991 17B8  
                     l983 0EA3                       l975 0E80                       l967 0DFF  
                     l959 0236                       l895 0FCF                       l992 17AA  
                     l968 0EC3                       l984 0EB1                       l976 0E55  
                     l896 0FCF                       l993 17B7                       l985 0EBF  
                     l977 0E63                       l969 0E40                       l897 0FD4  
                     l889 0FB6                       l994 17B3                       l978 0E71  
                     l898 0FE2                       l995 17B6                       l979 0E7F  
                     l899 0FE3                       _GIE 005F                       l996 17C0  
                     l988 1798                       l989 17B9                       _RC0 0038  
                     _RC1 0039                       _RD0 0040                       _RC2 003A  
                     _RD1 0041                       _RC3 003B                       _RD2 0042  
                     _RC4 003C                       _RD3 0043                       _RC5 003D  
                     _RD4 0044                       _RD5 0045                       _RD6 0046  
                     _RD7 0047                       _RX9 00C6                       _TX9 04C6  
                     _isr 095D                       _nop 0360                       fsr0 0004  
                     indf 0000                i1_lcd_init 0AF0                      l1100 0281  
                    l1101 0283                      l1110 0363                      l1102 028C  
                    l1111 0351                      l1103 02E0                      l1200 06F5  
                    l1120 036A                      l1112 0331                      l1104 02A1  
                    l1121 036B                      l1113 0362                      l1105 02DF  
                    l1202 06FA                      l1130 03A2                      l1122 036C  
                    l1114 0366                      l1106 0300                      l1203 07B4  
                    l1211 0746                      l1115 041B                      l1131 03BC  
                    l1123 036D                      l1107 02FF                      l1204 0704  
                    l1140 040C                      l1132 03CE                      l1124 036F  
                    l1220 07FF                      l1116 0367                      l1108 0364  
                    l1117 07FF                      l1205 079C                      l1213 074B  
                    l1141 0415                      l1133 03BE                      l1125 0388  
                    l1109 032F                      l1214 0776                      l1206 0705  
                    l1150 04BA                      l1142 0468                      l1134 03DE  
                    l1126 0399                      l1118 0368                      l1215 07C0  
                    l1207 0706                      l1151 04AF                      l1143 0467  
                    l1119 0441                      l1135 03FF                      l1127 039C  
                    l1216 07E8                      l1208 07AD                      l1152 0533  
                    l1160 0517                      l1144 0475                      l1136 03EB  
                    l1128 03BD                      l1217 07D2                      l1209 073D  
                    l1161 0542                      l1153 04BB                      l1145 0485  
                    l1137 03E4                      l1129 03A9                      l1090 07E9  
                    l1218 07E7                      l1170 05E0                      l1162 0551  
                    l1146 0524                      l1154 04C6                      l1138 03FE  
                    l1219 07FE                      l1171 05DF                      l1163 0551  
                    l1155 04EE                      l1147 0486                      l1139 0400  
                    l1091 023F                      l1180 0658                      l1172 05D9  
                    l1164 056A                      l1156 04E3                      l1148 0487  
                    l1092 024C                      l1181 0657                      l1173 05DE  
                    l1165 0595                      l1157 04EF                      l1149 0492  
                    l1093 0253                      l1190 069A                      l1174 0601  
                    l1166 058F                      l1158 04FA                      l1094 026D  
                    l1191 0684                      l1183 064B                      l1175 0606  
                    l1167 0594                      l1159 0522                      l1095 0254  
                    l1192 0699                      l1176 0679                      l1168 05B3  
                    l1096 0282                      l1193 06AD                      l1185 0650  
                    l1177 061D                      l1169 05B2                      l1097 025A  
                    l1194 06B9                      l1186 0678                      l1178 0659  
                    l1098 0260                      l1195 06B8                      l1187 0662  
                    l1179 0628                      l1099 0266                      l1196 06D2  
                    l1188 0677                      l1189 0703                      l1197 0702  
                    l1198 0701                      l5100 006B                      l1902 1689  
                    l1910 1785                      l5102 0073                      l5110 0923  
                    l1903 1692                      l1911 178C                      l1904 169C  
                    l5104 007A                      l1920 0072                      l5120 0946  
                    l5112 092A                      l1905 169E                      l1921 007A  
                    l5050 1682                      l5042 1671                      l1914 0073  
                    l1930 0954                      l5122 094D                      l5114 092F  
                    l5106 0917                      l1915 0045                      l1931 095C  
                    l5052 1684                      l5044 1672                      l5060 1694  
                    l1908 1766                      l1916 0039                      l1924 0955  
                    l5116 0935                      l5108 091F                      l5124 0955  
                    l5300 16D9                      l1909 1770                      l1917 004A  
                    l1925 092F                      l5046 1678                      l5062 1696  
                    l5054 1688                      l5070 1766                      l1918 004B  
                    l5126 095C                      l5118 093F                      l1926 0923  
                    l5302 16E4                      l5310 0DBA                      l1919 0064  
                    l1927 0934                      l5048 167E                      l5064 169C  
                    l5056 168D                      l5072 176A                      l5080 002B  
                    l1928 0935                      l5304 16E6                      l5320 0DDD  
                    l5312 0DC0                      l5400 16F9                      l1929 0946  
                    l5066 169E                      l5058 1692                      l5074 1777  
                    l5090 0045                      l5082 002F                      l5306 16E7  
                    l5330 0DFE                      l5322 0DE2                      l5314 0DC7  
                    l5410 1716                      l5402 16FC                      l5076 1785  
                    l5068 1761                      l5092 004B                      l5084 0035  
                    l5260 0D53                      l5252 0CC2                      l5308 16E8  
                    l5340 0E1D                      l5324 0DEB                      l5316 0DCF  
                    l5332 0E00                      l5404 1701                      l5420 17DF  
                    l5412 17C4                      l5500 0144                      l5078 178C  
                    l5094 005C                      l5086 0039                      l5270 0D75  
                    l5262 0D56                      l5254 0CE9                      l5350 0E3E  
                    l5342 0E22                      l5334 0E07                      l5326 0DF0  
                    l5318 0DD4                      l5406 1706                      l5430 17FB  
                    l5422 17E0                      l5414 17CA                      l5510 0163  
                    l5502 0149                      l5096 0062                      l5088 0040  
                    l5280 0D87                      l5272 0D7F                      l5264 0D57  
                    l5256 0D4F                      l5360 0E5D                      l5344 0E2B  
                    l5336 0E0F                      l5352 0E40                      l5328 0DF9  
                    l5408 170B                      l5432 17FE                      l5424 17E5  
                    l5416 17D4                      l5520 0182                      l5512 016A  
                    l5504 0150                      l5440 0087                      l5600 02CE  
                    l4730 174B                      l1898 1682                      l5098 0064  
                    l5290 0DA0                      l5282 0D88                      l5274 0D80  
                    l5266 0D61                      l5258 0D52                      l5370 0E7E  
                    l5362 0E62                      l5354 0E47                      l5346 0E30  
                    l5338 0E14                      l5426 17EB                      l5418 17D9  
                    l5530 01A3                      l5522 0189                      l5514 016F  
                    l5506 0157                      l5450 00AF                      l5442 0094  
                    l5434 007B                      l5610 0300                      l5602 02E0  
                    l1899 1684                      l4732 174F                      l4724 173D  
                    l4740 0A2E                      l5292 0DAA                      l5284 0D8B  
                    l5276 0D83                      l5268 0D6B                      l5380 0E9D  
                    l5364 0E6B                      l5356 0E4F                      l5372 0E80  
                    l5348 0E39                      l5428 17F0                      l5540 01C2  
                    l5532 01A8                      l5524 0190                      l5516 0176  
                    l5508 015C                      l5460 00C4                      l5452 00B0  
                    l5444 009A                      l5436 0081                      l5700 048A  
                    l5620 0326                      l5612 030E                      l5604 02EE  
                    l4734 1756                      l4726 1741                      l4750 0A59  
                    l4742 0A30                      l5294 0DB4                      l5286 0D8C  
                    l5278 0D84                      l5390 0EBE                      l5382 0EA2  
                    l5374 0E87                      l5366 0E70                      l5358 0E54  
                    l5550 01E1                      l5542 01C9                      l5534 01AF  
                    l5526 0195                      l5518 017D                      l5470 00E5  
                    l5462 00CB                      l5454 00B1                      l5446 00AD  
                    l5438 0085                      l5710 04B3                      l5702 0491  
                    l5630 036F                      l5622 032A                      l5614 030F  
                    l5606 02F6                      l4736 1759                      l4728 1744  
                    l4760 0A8C                      l4752 0A63                      l4744 0A3A  
                    l4840 0018                      l5296 0DB5                      l5288 0D96  
                    l5384 0EAB                      l5376 0E8F                      l5368 0E79  
                    l5392 16A2                      l5560 021B                      l5552 01FD  
                    l5544 01CE                      l5536 01B6                      l5528 019C  
                    l5480 0104                      l5472 00EA                      l5464 00D2  
                    l5456 00B8                      l5448 00AE                      l5800 064B  
                    l5720 04E2                      l5712 04BB                      l5704 0492  
                    l5640 0399                      l5632 0373                      l5624 0331  
                    l5616 0313                      l5608 02FA                      l4770 0AB6  
                    l4762 0A8D                      l4754 0A64                      l4746 0A3B  
                    l4738 0A1E                      l4842 165F                      l4850 1793  
                    l5298 0DB8                      l5386 0EB0                      l5378 0E94  
                    l5394 16A3                      l5562 0222                      l5554 0204  
                    l5546 01D5                      l5538 01BB                      l5490 0123  
                    l5482 010B                      l5474 00F1                      l5466 00D7  
                    l5458 00BF                      l5802 0650                      l5810 0679  
                    l5730 04F9                      l5722 04E3                      l5714 04BE  
                    l5706 04AE                      l5650 03BE                      l5642 039C  
                    l5634 0382                      l5626 034C                      l5618 031F  
                    l5570 023A                      l4772 0AD2                      l4764 0AA9  
                    l4756 0A80                      l4748 0A57                      l4844 1666  
                    l4852 179C                      l4860 17B9                      l5388 0EB9  
                    l5396 16AE                      l5564 022A                      l5556 020C  
                    l5548 01DC                      l5492 012A                      l5484 0110  
                    l5476 00F8                      l5468 00DE                      l5820 06A6  
                    l5812 067F                      l5804 0659                      l5740 0523  
                    l5732 04FA                      l5724 04E7                      l5716 04C5  
                    l5708 04AF                      l5660 03EB                      l5652 03C7  
                    l5644 03A1                      l5636 0388                      l5628 0351  
                    l5580 025B                      l5572 023F                      l5900 0F84  
                    l4774 0AD4                      l4766 0AAB                      l4758 0A82  
                    l4846 166A                      l4862 17C0                      l4854 17A5  
                    l5398 16B3                      l5558 0213                      l5566 0234  
                    l5494 0131                      l5486 0117                      l5478 00FD  
                    l5830 06E4                      l5822 06B1                      l5814 0684  
                    l5806 0662                      l5750 054C                      l5734 0516  
                    l5726 04EF                      l5718 04C6                      l5742 0524  
                    l5670 0415                      l5662 0400                      l5646 03A2  
                    l5654 03CE                      l5638 0392                      l5590 0287  
                    l5582 0261                      l5574 0245                      l5910 0FBD  
                    l5902 0F9D                      _ADIE 0466                      l4776 0ADE  
                    l4768 0AB5                      l4856 17AE                      l4848 178D  
                    l5568 0236                      l5496 0136                      l5488 011E  
                    l5840 0706                      l5832 06EA                      l5824 06B9  
                    l5816 068A                      l5808 0668                      l5760 0581  
                    l5752 0557                      l5736 0517                      l5728 04F2  
                    l5744 0533                      l5680 0455                      l5672 041A  
                    l5664 0407                      l5656 03E3                      l5648 03A9  
                    l5592 028C                      l5584 0267                      l5576 024C  
                    l5920 0FE6                      l5912 0FC7                      l5904 0FAB  
                    l4778 0ADF                      l4858 17B3                      l5498 013D  
                    l5850 079B                      l5842 0741                      l5834 06F0  
                    l5826 06CB                      l5818 069A                      l5770 05B3  
                    l5762 058F                      l5754 0563                      l5746 053D  
                    l5738 051B                      l5690 0470                      l5682 0459  
                    l5666 040C                      l5658 03E4                      l5674 041B  
                    l5594 029C                      l5586 026C                      l5578 0255  
                    l5914 0FCE                      l5922 0FE7                      l5906 0FB0  
                    l4796 1656                      l5860 07D2                      l5844 0746  
                    l5852 079C                      l5836 06F5                      l5828 06D2  
                    l5780 05F3                      l5772 05C3                      l5764 0595  
                    l5756 056A                      l5748 0542                      l5684 045D  
                    l5692 0475                      l5668 0410                      l5676 0441  
                    l5596 02A1                      l5588 026D                      l5916 0FD4  
                    l5908 0FB7                      ?_isr 0071                      l5862 07D8  
                    l5846 074B                      l5854 07AD                      l5838 06FA  
                    l5790 0621                      l5782 0601                      l5774 05D0  
                    l5766 05A5                      l5758 056E                      l5694 047A  
                    l5686 0461                      l5678 044D                      l5598 02CA  
                    l5918 0FDE                      l5870 0EE7                      l5848 0776  
                    l5856 07B4                      l5792 0628                      l5784 0606  
                    l5776 05D9                      l5768 05AB                      l5696 0480  
                    l5688 0468                      l5864 07E9                      l5880 0F08  
                    l5872 0EEC                      l5858 07C4                      l5794 063A  
                    l5786 060A                      l5778 05E0                      l5698 0487  
                    l5890 0F53                      l5882 0F22                      l5874 0EF1  
                    l5866 0EC4                      l5796 0640                      l5788 0616  
                    l5892 0F59                      l5884 0F28                      l5876 0EF7  
                    l5868 0EE2                      l5798 0646                      l5894 0F64  
                    l5886 0F39                      l5878 0F02                      l5896 0F6A  
                    l5888 0F48                      l5898 0F79                      _ADON 00F8  
                    _EEIE 046C                      STR_1 085A                      STR_2 0848  
                    STR_3 0836                      STR_4 0824                      STR_5 088E  
                    STR_6 089F                      STR_7 08C1                      STR_8 08B0  
                    STR_9 086C                      _BRGH 04C2                      _T0IE 005D  
                    _CREN 00C4                      _FERR 00C2                      _PEIE 005E  
                    u6300 1678                      u6301 1677                      _INTE 005C  
                    u6310 167E                      u6311 167D                      u7015 0CC7  
                    _RBIE 005B                      u6320 168D                      u6400 0049  
                    u8000 029C                      u6321 168C                      u6401 0048  
                    u7105 0D17                      u7025 0CD3                      u8001 029B  
                    u5610 0A39                      u6330 169B                      u7210 0D68  
                    u8010 02DE                      u5611 0A38                      u6331 169A  
                    u7211 0D64                      u7115 0D1C                      u7035 0CE0  
                    u8011 02DD                      _RCIE 0465                      u5700 0AEE  
                    u5620 0A4A                      u6340 176A                      u6420 005C  
                    u6500 0953                      u7204 0D61                      u8100 03BB  
                    u8020 02EE                      _RCIF 0065                      u5701 0AED  
                    u5621 0A49                      u6341 1769                      u6421 005B  
                    u6501 0952                      u7125 0D25                      u7045 0CED  
                    u8101 03BA                      u8021 02ED                      u5630 0A62  
                    u7310 0DA7                      u7230 0D72                      u8110 03DE  
                    u8030 030E                      u5631 0A61                      u6415 004C  
                    u7311 0DA3                      u7231 0D6E                      u7135 0D2A  
                    u7055 0CF2                      u8111 03DD                      u8031 030D  
                    u5640 0A73                      u6440 0071                      u7304 0DA0  
                    u7224 0D6B                      u7400 0E07                      u8200 04B9  
                    u8120 03E2                      u8040 031F                      u5641 0A72  
                    u6441 0070                      u6425 0058                      u7145 0D33  
                    u7065 0CFB                      u7401 0E06                      u8201 04B8  
                    u8121 03E1                      u8105 03B7                      u8041 031E  
                    u5650 0A8B                      u5810 1793                      u6370 1784  
                    u6450 091F                      u7330 0DB1                      u7250 0D7C  
                    u7410 0E0F                      u8210 04C4                      u8130 03FD  
                    u8050 0361                      u5651 0A8A                      u5811 1792  
                    u6371 1783                      u6355 1771                      u6435 0065  
                    u6451 091E                      u7331 0DAD                      u7251 0D78  
                    u7155 0D38                      u7075 0D00                      u7411 0E0E  
                    u8211 04C3                      u8131 03FC                      u8115 03DA  
                    u8051 0360                      u5660 0A9C                      u5820 179C  
                    u6380 0035                      u7324 0DAA                      u7244 0D75  
                    u7500 0E87                      u7420 0E1D                      u8300 0563  
                    u8220 04E1                      u8140 044D                      u8060 0373  
                    u5661 0A9B                      u5821 179B                      u6365 1778  
                    u6381 0034                      u7165 0D41                      u7085 0D09  
                    u7501 0E86                      u7421 0E1C                      u8301 0562  
                    u8221 04E0                      u8141 044C                      u5670 0AB4  
                    u5830 17A5                      u6470 0933                      u7270 0D93  
                    u7190 0D5E                      u7510 0E8F                      u7430 0E2B  
                    u7350 0DC7                      u8310 056E                      u8230 04ED  
                    u8150 045D                      u8070 0382                      u5671 0AB3  
                    u5831 17A4                      u6471 0932                      u7271 0D8F  
                    u7191 0D5A                      u7175 0D46                      u7095 0D0E  
                    u9007 16F1                      u7511 0E8E                      u7431 0E2A  
                    u7351 0DC6                      u8311 056D                      u8231 04EC  
                    u8151 045C                      u8135 03F9                      u8071 0381  
                    u5680 0AC5                      u5840 17AE                      u6480 093F  
                    u7344 0DB4                      u7264 0D7F                      u7520 0E9D  
                    u7440 0E39                      u7360 0DCF                      u7600 00CB  
                    u8400 0621                      u8320 0581                      u8240 04F8  
                    u8160 047A                      u8080 0392                      u5681 0AC4  
                    u5841 17AD                      u6481 093E                      u6465 0924  
                    u7185 0D4F                      u7521 0E9C                      u7441 0E38  
                    u7361 0DCE                      u7601 00CA                      u8401 0620  
                    u8321 0580                      u8241 04F7                      u8225 04DD  
                    u8161 0479                      u8081 0391                      u5690 0ADD  
                    u7290 0D9D                      u7530 0EAB                      u7450 0E47  
                    u7370 0DDD                      u7610 00D2                      u8410 063A  
                    u8330 05A5                      u8250 0515                      u8170 0480  
                    u8090 03A0                      _OERR 00C1                      u5691 0ADC  
                    u6395 003A                      u7291 0D99                      u7531 0EAA  
                    u7451 0E46                      u7371 0DDC                      u7611 00D1  
                    u8411 0639                      u8331 05A4                      u8251 0514  
                    u8171 047F                      u8091 039F                      u8075 037E  
                    u7284 0D96                      u7540 0EB9                      u7460 0E4F  
                    u7380 0DEB                      u7700 012A                      u7620 00DE  
                    u8500 06CB                      u8420 0646                      u8340 05AB  
                    u8260 0521                      u8180 0490                      u6485 093B  
                    u7541 0EB8                      u7461 0E4E                      u7381 0DEA  
                    u7701 0129                      u7621 00DD                      u8501 06CA  
                    u8421 0645                      u8341 05AA                      u8325 057D  
                    u8261 0520                      u8181 048F                      u8085 038E  
                    u7470 0E5D                      u7390 0DF9                      u7550 17CA  
                    u7710 0131                      u7630 00E5                      u8510 06E4  
                    u8430 0661                      u8350 05C3                      u8270 053D  
                    u8190 04AD                      u6495 0947                      u7471 0E5C  
                    u7391 0DF8                      u7551 17C9                      u7711 0130  
                    u7631 00E4                      u8511 06E3                      u8431 0660  
                    u8415 0636                      u8351 05C2                      u8335 05A1  
                    u8271 053C                      u8255 0511                      u8191 04AC  
                    u7480 0E6B                      u7560 17D4                      u7800 0189  
                    u7720 013D                      u7640 00F1                      u8520 06F0  
                    u8440 0676                      u8360 05D0                      u8280 054C  
                    u8600 0FD3                      u7481 0E6A                      u7561 17D3  
                    u7801 0188                      u7721 013C                      u7641 00F0  
                    u8521 06EF                      u8505 06C7                      u8441 0675  
                    u8361 05CF                      u8281 054B                      u8601 0FD2  
                    u7490 0E79                      u7810 0190                      u7730 0144  
                    u7650 00F8                      u7570 009A                      u8530 0741  
                    u8450 067F                      u8370 05F3                      u8290 0557  
                    u7491 0E78                      u7811 018F                      u7731 0143  
                    u7651 00F7                      u7571 0099                      u8531 0740  
                    u8515 06E0                      u8451 067E                      u8371 05F2  
                    u8355 05BF                      u8291 0556                      u8195 04A9  
                    u7900 01FC                      u7820 019C                      u7740 0150  
                    u7660 0104                      u7580 00B8                      u8540 07C0  
                    u8460 0683                      u8380 060A                      u7901 01FB  
                    u7821 019B                      u7741 014F                      u7661 0103  
                    u7581 00B7                      u8541 07BF                      u8461 0682  
                    u8381 0609                      u8365 05CC                      u7910 0202  
                    u7830 01A3                      u7750 0157                      u7670 010B  
                    u7590 00BF                      u8550 07C4                      u8470 0698  
                    u8390 0616                      u7911 0201                      u7831 01A2  
                    u7751 0156                      u7671 010A                      u7591 00BE  
                    u8551 07C3                      u8471 0697                      u8391 0615  
                    u8375 05EF                      u7920 020B                      u7840 01AF  
                    u7760 0163                      u7680 0117                      u8560 07D1  
                    u8480 06A6                      u7921 020A                      u7841 01AE  
                    u7761 0162                      u7681 0116                      u8561 07D0  
                    u8481 06A5                      u7930 0211                      u7850 01B6  
                    u7770 016A                      u7690 011E                      u8570 07E6  
                    u8490 06B1                      u7931 0210                      u7851 01B5  
                    u7771 0169                      u7691 011D                      u8571 07E5  
                    u8491 06B0                      u7940 021A                      u7860 01C2  
                    u7780 0176                      u8580 07FD                      u7941 0219  
                    u7861 01C1                      u7781 0175                      u8581 07FC  
                    u8565 07CD                      u7950 0220                      u7870 01C9  
                    u7790 017D                      u8590 0FCD                      u7951 021F  
                    u7871 01C8                      u7791 017C                      u8591 0FCC  
                    u7960 0229                      u7880 01D5                      u7961 0228  
                    u7881 01D4                      u7970 022F                      u7890 01DC  
                    u7971 022E                      u7891 01DB                      u8907 0F10  
                    u7980 0245                      u7981 0244                      u8917 0F41  
                    u7990 0287                      u7991 0286                      u8927 0F72  
                    u8937 0FD8                      u8947 17E2                      u8957 17F6  
                    u8967 16FE                      u8977 1711                      u8987 16A5  
                    u8997 16B7                      _SPEN 00C7                      _TXIE 0464  
                    _WREN 0C62                      _TXEN 04C5                      _TXIF 0064  
                    _SYNC 04C4                      _bit0 03E0                      _bit1 03E1  
                    _bit2 03E2                      _bit3 03E3                      _bit4 03E4  
                    _bit5 03E5                      _bit6 03E6                      _bit7 03E7  
                    _ldr1 0054                      _ldr2 0056                      _main 0EC4  
                    _hour 0052                      btemp 007E                      _wtmp 0066  
         _enableInterrupt 0018                      start 0012         ___bmul@multiplier 0023  
             _CheckKeyPad 007B                     ??_isr 0077                     _ADDEN 00C3  
                   ?_main 0071                     _BCLIE 046B                     _EEADR 010D  
                   STR_10 087D                     _CARRY 0018           __end_of___lwdiv 007B  
         __end_of___lwmod 095D                     i1l804 16D8                     i1l817 0CC1  
                   i1l790 0BB9                     i1l782 0B0D                     i1l791 0BC9  
                   i1l783 0B1C                     i1l792 0BC9                     i1l784 0B38  
                   i1l785 0B47                     i1l786 0B63                     i1l787 0B72  
                   i1l788 0B8E                     i1l789 0B9D                     _RCREG 001A  
                   _TMR1H 000F                     _TMR1L 000E                     _SPBRG 0099  
                   _PORTA 0005                     _PORTB 0006                     _PORTC 0007  
                   _PORTD 0008                     _PORTE 0009                     _PSPIE 0467  
                   _TRISA 0085                     _TRISB 0086                     _TRISC 0087  
                   _TRISD 0088                     _SSPIE 0463                     _TRISE 0089  
                   _TXREG 0019           __end_of_lcd_add 0DBA                     _RowNo 178D  
      i1___lwmod@dividend 0073           __end_of_isdigit 1685                     _state 0063  
                   _putch 169F              position@post 0025            __pbitbssCOMMON 03E0  
                   pclath 000A                     status 0003                     wtemp0 007E  
      __size_ofi1___lwmod 0044        __size_ofi1_lcd_add 00F8          __end_of_ColomnNo 0EC4  
            __end_of_main 1000    __size_ofi1_clr_display 001F                    ??_main 0043  
             ?i1_lcd_init 0071                    ?_RowNo 0020                    _ADCON0 001F  
                  _ADCON1 009F                    _CCP1IE 0462                    _CCP2IE 0468  
                  _ADRESH 001E                    _ADRESL 009E                    _EEDATA 010C  
                  _EECON1 018C                    _EECON2 018D   __end_of_enableInterrupt 002B  
                  ?_putch 0071                    i1l1030 09C3                    i1l1031 0A04  
                  i1l1032 09F6                    i1l1033 09E9                    i1l1025 09CB  
                  i1l1026 09C5                    i1l1035 09E7                    i1l1027 09C5  
                  i1l1036 0A02                    i1l1028 09B2                    i1l1037 0A13  
                  i1l1029 09C4                    i1l1038 0A13                    i1l5200 0C7D  
                  i1l5130 0B00                    i1l1930 090E                    i1l5210 0C8F  
                  i1l5202 0C87                    i1l1931 0916                    i1l5140 0B2D  
                  i1l5132 0B02                    i1l1924 090F                    i1l5220 0CA8  
                  i1l5212 0C90                    i1l5204 0C88                    i1l1925 08E9  
                  i1l5150 0B62                    i1l5142 0B37                    i1l5134 0B0C  
                  i1l1926 08DD                    i1l5230 08D3                    i1l5222 0CB2  
                  i1l5214 0C93                    i1l5206 0C8B                    i1l1927 08EE  
                  i1l5160 0B8E                    i1l5152 0B63                    i1l5144 0B38  
                  i1l5136 0B0D                    i1l5128 0AF0                    i1l1928 08EF  
                  i1l5240 08EF                    i1l5232 08D9                    i1l5224 0CBC  
                  i1l5216 0C94                    i1l5208 0C8C                    i1l1929 0900  
                  i1l5162 0BAC                    i1l5154 0B81                    i1l5146 0B56  
                  i1l5138 0B2B                    i1l5250 0916                    i1l5242 08F9  
                  i1l5234 08DD                    i1l5226 0CBD                    i1l5218 0C9E  
                  i1l5170 16BA                    i1l5164 0BAE                    i1l5156 0B83  
                  i1l5148 0B58                    i1l5244 0900                    i1l5236 08E4  
                  i1l5228 0CC0                    i1l5180 16D5                    i1l5172 16BD  
                  i1l5166 0BB8                    i1l5158 0B8D                    i1l5246 0907  
                  i1l5238 08E9                    i1l5190 0C5B                    i1l5182 0BCA  
                  i1l5174 16C2                    i1l5168 0BB9                    i1l5248 090F  
                  i1l5192 0C5E                    i1l5184 0BF1                    i1l5176 16C7  
                  i1l5194 0C5F                    i1l5186 0C57                    i1l5178 16CC  
                  i1l5196 0C69                    i1l5188 0C5A                    i1l4900 09B9  
                  i1l5198 0C73                    i1l4910 09CF                    i1l4902 09BB  
                  i1l4920 09F1                    i1l4912 09D3                    i1l4904 09C2  
                  i1l4930 0A08                    i1l4922 09F8                    i1l4914 09D7  
                  i1l4906 09C6                    i1l4932 0A09                    i1l4924 0A00  
                  i1l4916 09E1                    i1l4908 09CB                    i1l4934 0A11  
                  i1l4926 0A02                    i1l4918 09E9                    i1l4928 0A04  
                  i1l4880 0978                    i1l4872 095D                    i1l4890 0992  
                  i1l4882 097F                    i1l4874 0961                    i1l4892 0997  
                  i1l4884 0985                    i1l4876 096E                    i1l4894 099B  
                  i1l4886 0987                    i1l4878 0976                    i1l4896 09B1  
                  i1l4888 098D                    i1l4898 09B2                    u700_20 090D  
                  u700_21 090C                    u651_20 0B0B                    u651_21 0B0A  
                  u660_20 0BC8                    u652_20 0B1C                    u660_21 0BC7  
                  u652_21 0B1B                    u653_20 0B36                    u653_21 0B35  
                  u661_25 0BCF                    u901_27 16BF                    u654_20 0B47  
                  u590_20 09D3                    u654_21 0B46                    u590_21 09D2  
                  u670_25 0C1F                    u662_25 0BDB                    u902_27 16D0  
                  u655_20 0B61                    u591_20 09D7                    u655_21 0B60  
                  u591_21 09D6                    u671_25 0C24                    u663_25 0BE8  
                  u656_20 0B72                    u592_20 09E1                    u656_21 0B71  
                  u592_21 09E0                    u680_24 0C69                    u672_25 0C2D  
                  u664_25 0BF5                    u657_20 0B8C                    u681_20 0C70  
                  u593_20 09E7                    u585_20 0961                    u657_21 0B8B  
                  u681_21 0C6C                    u593_21 09E6                    u585_21 0960  
                  u673_25 0C32                    u665_25 0BFA                    u658_20 0B9D  
                  u594_20 0A08                    u586_20 096E                    u658_21 0B9C  
                  u594_21 0A07                    u586_21 096D                    u690_24 0CA8  
                  u682_24 0C73                    u674_25 0C3B                    u666_25 0C03  
                  u659_20 0BB7                    u691_20 0CAF                    u683_20 0C7A  
                  u587_20 097F                    u659_21 0BB6                    u691_21 0CAB  
                  u683_21 0C76                    u587_21 097E                    u675_25 0C40  
                  u667_25 0C08                    u588_20 09B9                    u588_21 09B8  
                  u692_24 0CB2                    u684_24 0C7D                    u676_25 0C49  
                  u668_25 0C11                    u693_20 0CB9                    u685_20 0C84  
                  u589_20 09CF                    u693_21 0CB5                    u685_21 0C80  
                  u589_21 09CE                    _TMR1IE 0460                    _TMR1IF 0060  
                  u677_25 0C4E                    u669_25 0C16                    _TMR1CS 0081  
                  _TMR2IE 0461                    u694_24 0CBC                    u686_24 0C87  
                  u678_25 0C57                    u695_20 08D9                    u687_20 0C9B  
                  u679_20 0C66                    u695_21 08D8                    u687_21 0C97  
                  u679_21 0C62                    _TMR1ON 0080                    u688_24 0C9E  
                  u696_25 08DE                    u697_20 08ED                    u689_20 0CA5  
                  u697_21 08EC                    u689_21 0CA1                    u698_20 08F9  
                  u698_21 08F8                    u698_25 08F5                    u699_25 0901  
    __size_of_clr_display 0021             ??_Serial_Init 0020             ??_Timer1_Init 0020  
        __end_of_lcd_init 0AF0                    ___bmul 1685                    _bed_nu 006A  
                  ___wmul 1761                 ??___lwdiv 0024                 ??___lwmod 002C  
                  _buffer 00A0                    _minute 0058                    _second 005C  
                  _printf 0237                 ??_lcd_add 0020                    clrloop 164F  
       __end_ofi1___lwmod 0917                 ??_isdigit 0020                    saved_w 007E  
        __end_of_position 1800         __end_ofi1_lcd_add 0CC2     __end_of_Setup_IOports 1761  
           i1_clr_display 16BA       ___bmul@multiplicand 0020            __pcstackCOMMON 0071  
           __end_of_RowNo 17C1       __size_ofi1_lcd_init 00DA       __end_of_Serial_Init 16F9  
            __pidataBANK0 0016             __end_of_putch 16BA       __end_of_Timer1_Init 166E  
          _HeartRateCount 004C                   ??_RowNo 0022        __size_of_atod_init 0009  
               ?_ColomnNo 0020                   ??_putch 0022          ?_enableInterrupt 0071  
          ?i1_clr_display 0071                __pbssBANK0 0047                __pbssBANK1 00A0  
              __pmaintext 0EC4                   ?___bmul 0020                   ?___wmul 0020  
            ?_CheckKeyPad 0071                __pintentry 0004                   ?_printf 002E  
                 _T1CKPS0 0084                   _T1CKPS1 0085                   _T1OSCEN 0083  
               ?_lcd_init 0071                ??_ColomnNo 0022               _Serial_Init 16D9  
             _Timer1_Init 165F         __end_of_atod_init 165F           __size_of___bmul 001A  
               ?_position 0022           __size_of___wmul 002C                   ___lwdiv 002B  
                 ___lwmod 0917                   _lcd_add 0CC2                   _lcd_bus 005F  
         __size_of_printf 05C9                   _dpowers 0812                   _isdigit 166E  
            __size_of_isr 00C1                   _msecond 005A              ??i1_lcd_init 0071  
         ??i1_clr_display 0073            position@collum 0022                ??_lcd_init 0020  
            _lcd_data_low 0062      end_of_initialization 1739            main@pressedKey 0046  
                 printf@c 0040                   printf@f 0039                ??_position 0023  
      __end_ofi1_lcd_init 0BCA                 i1___lwmod 08D3             ??_clr_display 0022  
     CheckKeyPad@colomnNo 0026                 i1_lcd_add 0BCA          putch@print_value 0023  
             printf@width 003B                 _HeartRate 004A            __end_of___bmul 169F  
          __end_of___wmul 178D      __size_of_CheckKeyPad 01BC         i1___lwmod@divisor 0071  
           __pbitbssBANK0 0360         i1___lwmod@counter 0076               position@row 0026  
          __end_of_printf 0800       start_initialization 171A               __end_of_isr 0A1E  
              ?i1___lwmod 0071                ?i1_lcd_add 0071         __size_of_ColomnNo 010A  
           _analogReadVal 004E       __end_of_clr_display 171A                  ??___bmul 0021  
                ??___wmul 0024               __pdataBANK0 006A    __size_of_Setup_IOports 0024  
                ??_printf 0030             __pcstackBANK0 0020              _isdigit$1773 0020  
       __size_of_lcd_init 00D2              ?_Serial_Init 0071  __size_of_enableInterrupt 0013  
            ?_Timer1_Init 0071          ___lwdiv@dividend 0022                 __ptext910 0917  
               __ptext902 0237                 __ptext911 002B                 __ptext903 007B  
               __ptext920 173D                 __ptext912 1761                 __ptext904 17C1  
               __ptext921 095D                 __ptext913 1685                 __ptext905 16F9  
               __ptext922 16BA                 __ptext914 166E                 __ptext906 169F  
               __ptext923 0BCA                 __ptext915 178D                 __ptext907 0DBA  
               __ptext924 08D3                 __ptext916 165F                 __ptext908 16D9  
               __ptext925 0AF0                 __ptext917 0018                 __ptext909 0CC2  
               __ptext926 0000                 __ptext918 1656                 __ptext919 0A1E  
               _heartRate 0050                  ?___lwdiv 0020                  ?___lwmod 0028  
               _atod_init 1656         __size_of_position 003F                 __pstrings 0800  
                ?_lcd_add 0071                  ?_isdigit 0071            __size_of_RowNo 0034  
               _hexpowers 081C          ___lwdiv@quotient 0025               ??i1___lwmod 0075  
             _clr_display 16F9            __size_of_putch 001B             _Setup_IOports 173D  
             ??i1_lcd_add 0071         interrupt_function 0004            ___wmul@product 0024  
               _octpowers 0806                ?_atod_init 0071               __stringbase 0805  
       ___wmul@multiplier 0020                printf@_val 003D                printf@flag 0041  
              printf@prec 003A            ?_Setup_IOports 0071                  _ColomnNo 0DBA  
   __end_ofi1_clr_display 16D9                  RowNo@row 0022          lcd_init@DelayLCD 0020  
       ??_enableInterrupt 0020          __size_of___lwdiv 0050          __size_of___lwmod 0046  
        __size_of_lcd_add 00F8          __size_of_isdigit 0017           ___lwdiv@divisor 0020  
         ___lwdiv@counter 0027                  _lcd_data 0060                  _lcd_init 0A1E  
           __size_of_main 013C                  clear_ram 164E      __size_of_Serial_Init 0020  
           ??_CheckKeyPad 0024      __size_of_Timer1_Init 000F                  _position 17C1  
           _lcd_data_high 0061               ??_atod_init 0020             ColomnNo@rowNo 0020  
         ??_Setup_IOports 0020                  isdigit@c 0021                  intlevel1 0000  
        ___lwmod@dividend 002A                 stringcode 0800                  printf@ap 0038  
        CheckKeyPad@rowNo 0028               _printf$1414 0033               _printf$1415 0035  
             _printf$1418 0037               _temperature 0047       __end_of_CheckKeyPad 0237  
         ___lwmod@divisor 0028           ___lwmod@counter 002D                  stringdir 0800  
                stringtab 0800              ?_clr_display 0071        i1lcd_init@DelayLCD 0071  
    CheckKeyPad@charactor 0025  
