

HI-TECH Software PIC LITE Macro Assembler V9.83 build 10920 
                                                                                               Wed Mar 02 00:56:50 2016

HI-TECH Software Omniscient Code Generator (Lite mode) build 10920
     1  0000                     opt subtitle "HI-TECH Software Omniscient Code Generator (Lite mode) build 10920"
     2                           
     3                           opt pagewidth 120
     4                           
     5                           	opt lm
     6                           
     7                           	processor	16F877A
     8                           clrc	macro
     9                           	bcf	3,0
    10  0000                     	endm
    11                           clrz	macro
    12                           	bcf	3,2
    13  0000                     	endm
    14                           setc	macro
    15                           	bsf	3,0
    16  0000                     	endm
    17                           setz	macro
    18                           	bsf	3,2
    19  0000                     	endm
    20                           skipc	macro
    21                           	btfss	3,0
    22  0000                     	endm
    23                           skipz	macro
    24                           	btfss	3,2
    25  0000                     	endm
    26                           skipnc	macro
    27                           	btfsc	3,0
    28  0000                     	endm
    29                           skipnz	macro
    30                           	btfsc	3,2
    31  0000                     	endm
    32  0000                     indf	equ	0
    33  0000                     indf0	equ	0
    34  0002                     pc	equ	2
    35  0002                     pcl	equ	2
    36  0003                     status	equ	3
    37  0004                     fsr	equ	4
    38  0004                     fsr0	equ	4
    39  0001                     c	equ	1
    40  0000                     z	equ	0
    41  000A                     pclath	equ	10
    42                           	FNCALL	_main,_Setup_IOports
    43                           	FNCALL	_main,_atod_init
    44                           	FNCALL	_main,_lcd_init
    45                           	FNCALL	_main,_clr_display
    46                           	FNCALL	_main,_Serial_Init
    47                           	FNCALL	_main,_Timer1_Init
    48                           	FNCALL	_main,_enableInterrupt
    49                           	FNCALL	_main,_printf
    50                           	FNCALL	_main,_position
    51                           	FNCALL	_main,_Serial_Print
    52                           	FNCALL	_main,_bdnu_unid
    53                           	FNCALL	_printf,_putch
    54                           	FNCALL	_printf,_isdigit
    55                           	FNCALL	_printf,___wmul
    56                           	FNCALL	_printf,___bmul
    57                           	FNCALL	_printf,___lwdiv
    58                           	FNCALL	_printf,___lwmod
    59                           	FNCALL	_position,_lcd_add
    60                           	FNCALL	_clr_display,_lcd_add
    61                           	FNCALL	_putch,_lcd_add
    62                           	FNROOT	_main
    63                           	FNCALL	_isr,i1_lcd_init
    64                           	FNCALL	_isr,i1_clr_display
    65                           	FNCALL	_isr,i1___lwmod
    66                           	FNCALL	i1_clr_display,i1_lcd_add
    67                           	FNCALL	intlevel1,_isr
    68                           	global	intlevel1
    69                           	FNROOT	intlevel1
    70                           	global	_bed_nu
    71                           	global	_i
    72                           psect	idataBANK0,class=CODE,space=0,delta=2
    73                           global __pidataBANK0
    74  07FC                     __pidataBANK0:
    75                           	file	"D:\ELECTRONIC\2016\1. Automated Solar Panel Orientation Setter\Firmware\Test2\Aut
                                 omated Solar Panel Orientation Setter.c"
    76                           	line	19
    77                           
    78                           ;initializer for _bed_nu
    79  07FC  3401               	retlw	01h
    80                           	line	20
    81                           
    82                           ;initializer for _i
    83  07FD  3401               	retlw	01h
    84                           	global	_octpowers
    85                           psect	strings,class=STRING,delta=2
    86                           global __pstrings
    87  0800                     __pstrings:
    88                           ;	global	stringdir,stringtab,__stringbase
    89  0800                     stringtab:
    90                           ;	String table - string pointers are 1 byte each
    91  0800                     stringcode:stringdir:
      + 0800                     stringdir:	
    92  0800  3008               movlw high(stringdir)
    93  0801  008A               movwf pclath
    94  0802  0804               movf fsr,w
    95  0803  0A84               incf fsr
    96  0804  0782               	addwf pc
    97  0805                     __stringbase:
    98  0805  3400               	retlw	0
    99                           psect	strings
   100                           	file	"C:\Program Files (x86)\HI-TECH Software\PICC\9.83\lib\doprnt.c"
   101                           	line	365
   102  0806                     _octpowers:
   103  0806  3401               	retlw	01h
   104  0807  3400               	retlw	0
   105                           
   106  0808  3408               	retlw	08h
   107  0809  3400               	retlw	0
   108                           
   109  080A  3440               	retlw	040h
   110  080B  3400               	retlw	0
   111                           
   112  080C  3400               	retlw	0
   113  080D  3402               	retlw	02h
   114                           
   115  080E  3400               	retlw	0
   116  080F  3410               	retlw	010h
   117                           
   118  0810  3400               	retlw	0
   119  0811  3480               	retlw	080h
   120                           
   121                           	global	_dpowers
   122                           psect	strings
   123                           	file	"C:\Program Files (x86)\HI-TECH Software\PICC\9.83\lib\doprnt.c"
   124                           	line	350
   125  0812                     _dpowers:
   126  0812  3401               	retlw	01h
   127  0813  3400               	retlw	0
   128                           
   129  0814  340A               	retlw	0Ah
   130  0815  3400               	retlw	0
   131                           
   132  0816  3464               	retlw	064h
   133  0817  3400               	retlw	0
   134                           
   135  0818  34E8               	retlw	0E8h
   136  0819  3403               	retlw	03h
   137                           
   138  081A  3410               	retlw	010h
   139  081B  3427               	retlw	027h
   140                           
   141                           	global	_hexpowers
   142                           psect	strings
   143                           	file	"C:\Program Files (x86)\HI-TECH Software\PICC\9.83\lib\doprnt.c"
   144                           	line	358
   145  081C                     _hexpowers:
   146  081C  3401               	retlw	01h
   147  081D  3400               	retlw	0
   148                           
   149  081E  3410               	retlw	010h
   150  081F  3400               	retlw	0
   151                           
   152  0820  3400               	retlw	0
   153  0821  3401               	retlw	01h
   154                           
   155  0822  3400               	retlw	0
   156  0823  3410               	retlw	010h
   157                           
   158                           	global	_octpowers
   159                           	global	_dpowers
   160                           	global	_hexpowers
   161                           	global	_temperature
   162                           	global	_HeartRate
   163                           	global	_HeartRateCount
   164                           	global	_analogReadVal
   165                           	global	_heartRate
   166                           	global	_hour
   167                           	global	_ldr1
   168                           	global	_ldr2
   169                           	global	_minute
   170                           	global	_msecond
   171                           	global	_second
   172                           	global	_j
   173                           	global	_lcd_bus
   174                           	global	_lcd_data
   175                           	global	_lcd_data_high
   176                           	global	_state
   177                           	global	_v
   178                           	global	_w
   179                           	global	_wtmp
   180                           	global	_x
   181                           	global	_y
   182                           	global	_z
   183                           	global	_lcd_data_low
   184                           	global	_bit0
   185                           	global	_bit1
   186                           	global	_bit2
   187                           	global	_bit3
   188                           	global	_bit4
   189                           	global	_bit5
   190                           	global	_bit6
   191                           	global	_bit7
   192                           	global	_nop
   193                           	global	_buffer
   194                           	global	_rc
   195                           	global	_ADCON0
   196  001F                     _ADCON0	set	31
   197                           	global	_ADRESH
   198  001E                     _ADRESH	set	30
   199                           	global	_PORTA
   200  0005                     _PORTA	set	5
   201                           	global	_PORTB
   202  0006                     _PORTB	set	6
   203                           	global	_PORTC
   204  0007                     _PORTC	set	7
   205                           	global	_PORTD
   206  0008                     _PORTD	set	8
   207                           	global	_PORTE
   208  0009                     _PORTE	set	9
   209                           	global	_RCREG
   210  001A                     _RCREG	set	26
   211                           	global	_TMR1H
   212  000F                     _TMR1H	set	15
   213                           	global	_TMR1L
   214  000E                     _TMR1L	set	14
   215                           	global	_TXREG
   216  0019                     _TXREG	set	25
   217                           	global	_ADDEN
   218  00C3                     _ADDEN	set	195
   219                           	global	_ADON
   220  00F8                     _ADON	set	248
   221                           	global	_CARRY
   222  0018                     _CARRY	set	24
   223                           	global	_CREN
   224  00C4                     _CREN	set	196
   225                           	global	_FERR
   226  00C2                     _FERR	set	194
   227                           	global	_GIE
   228  005F                     _GIE	set	95
   229                           	global	_GO
   230  00FA                     _GO	set	250
   231                           	global	_INTE
   232  005C                     _INTE	set	92
   233                           	global	_OERR
   234  00C1                     _OERR	set	193
   235                           	global	_PEIE
   236  005E                     _PEIE	set	94
   237                           	global	_RBIE
   238  005B                     _RBIE	set	91
   239                           	global	_RC0
   240  0038                     _RC0	set	56
   241                           	global	_RC1
   242  0039                     _RC1	set	57
   243                           	global	_RC2
   244  003A                     _RC2	set	58
   245                           	global	_RC3
   246  003B                     _RC3	set	59
   247                           	global	_RCIF
   248  0065                     _RCIF	set	101
   249                           	global	_RD0
   250  0040                     _RD0	set	64
   251                           	global	_RD1
   252  0041                     _RD1	set	65
   253                           	global	_RD6
   254  0046                     _RD6	set	70
   255                           	global	_RX9
   256  00C6                     _RX9	set	198
   257                           	global	_SPEN
   258  00C7                     _SPEN	set	199
   259                           	global	_T0IE
   260  005D                     _T0IE	set	93
   261                           	global	_T1CKPS0
   262  0084                     _T1CKPS0	set	132
   263                           	global	_T1CKPS1
   264  0085                     _T1CKPS1	set	133
   265                           	global	_T1OSCEN
   266  0083                     _T1OSCEN	set	131
   267                           	global	_TMR1CS
   268  0081                     _TMR1CS	set	129
   269                           	global	_TMR1IF
   270  0060                     _TMR1IF	set	96
   271                           	global	_TMR1ON
   272  0080                     _TMR1ON	set	128
   273                           	global	_TXIF
   274  0064                     _TXIF	set	100
   275                           	global	_ADCON1
   276  009F                     _ADCON1	set	159
   277                           	global	_ADRESL
   278  009E                     _ADRESL	set	158
   279                           	global	_SPBRG
   280  0099                     _SPBRG	set	153
   281                           	global	_TRISA
   282  0085                     _TRISA	set	133
   283                           	global	_TRISB
   284  0086                     _TRISB	set	134
   285                           	global	_TRISC
   286  0087                     _TRISC	set	135
   287                           	global	_TRISD
   288  0088                     _TRISD	set	136
   289                           	global	_TRISE
   290  0089                     _TRISE	set	137
   291                           	global	_ADIE
   292  0466                     _ADIE	set	1126
   293                           	global	_BCLIE
   294  046B                     _BCLIE	set	1131
   295                           	global	_BRGH
   296  04C2                     _BRGH	set	1218
   297                           	global	_CCP1IE
   298  0462                     _CCP1IE	set	1122
   299                           	global	_CCP2IE
   300  0468                     _CCP2IE	set	1128
   301                           	global	_EEIE
   302  046C                     _EEIE	set	1132
   303                           	global	_PSPIE
   304  0467                     _PSPIE	set	1127
   305                           	global	_RCIE
   306  0465                     _RCIE	set	1125
   307                           	global	_SSPIE
   308  0463                     _SSPIE	set	1123
   309                           	global	_SYNC
   310  04C4                     _SYNC	set	1220
   311                           	global	_TMR1IE
   312  0460                     _TMR1IE	set	1120
   313                           	global	_TMR2IE
   314  0461                     _TMR2IE	set	1121
   315                           	global	_TX9
   316  04C6                     _TX9	set	1222
   317                           	global	_TXEN
   318  04C5                     _TXEN	set	1221
   319                           	global	_TXIE
   320  0464                     _TXIE	set	1124
   321                           	global	_EEADR
   322  010D                     _EEADR	set	269
   323                           	global	_EEDATA
   324  010C                     _EEDATA	set	268
   325                           	global	_EECON1
   326  018C                     _EECON1	set	396
   327                           	global	_EECON2
   328  018D                     _EECON2	set	397
   329                           	global	_RD
   330  0C60                     _RD	set	3168
   331                           	global	_WR
   332  0C61                     _WR	set	3169
   333                           	global	_WREN
   334  0C62                     _WREN	set	3170
   335                           	
   336  0824                     STR_9:	
   337  0824  3453               	retlw	83	;'S'
   338  0825  3477               	retlw	119	;'w'
   339  0826  3469               	retlw	105	;'i'
   340  0827  3474               	retlw	116	;'t'
   341  0828  3463               	retlw	99	;'c'
   342  0829  3468               	retlw	104	;'h'
   343  082A  3465               	retlw	101	;'e'
   344  082B  3464               	retlw	100	;'d'
   345  082C  3420               	retlw	32	;' '
   346  082D  3474               	retlw	116	;'t'
   347  082E  346F               	retlw	111	;'o'
   348  082F  3420               	retlw	32	;' '
   349  0830  344D               	retlw	77	;'M'
   350  0831  346F               	retlw	111	;'o'
   351  0832  3464               	retlw	100	;'d'
   352  0833  3465               	retlw	101	;'e'
   353  0834  3420               	retlw	32	;' '
   354  0835  3431               	retlw	49	;'1'
   355  0836  3400               	retlw	0
   356                           psect	strings
   357                           	
   358  0837                     STR_4:	
   359  0837  3420               	retlw	32	;' '
   360  0838  3420               	retlw	32	;' '
   361  0839  3420               	retlw	32	;' '
   362  083A  3420               	retlw	32	;' '
   363  083B  3420               	retlw	32	;' '
   364  083C  3420               	retlw	32	;' '
   365  083D  3453               	retlw	83	;'S'
   366  083E  3479               	retlw	121	;'y'
   367  083F  3473               	retlw	115	;'s'
   368  0840  3474               	retlw	116	;'t'
   369  0841  3465               	retlw	101	;'e'
   370  0842  346D               	retlw	109	;'m'
   371  0843  3420               	retlw	32	;' '
   372  0844  3420               	retlw	32	;' '
   373  0845  3420               	retlw	32	;' '
   374  0846  3420               	retlw	32	;' '
   375  0847  3420               	retlw	32	;' '
   376  0848  3400               	retlw	0
   377                           psect	strings
   378                           	
   379  0849                     STR_3:	
   380  0849  3420               	retlw	32	;' '
   381  084A  3420               	retlw	32	;' '
   382  084B  3420               	retlw	32	;' '
   383  084C  3420               	retlw	32	;' '
   384  084D  344D               	retlw	77	;'M'
   385  084E  346F               	retlw	111	;'o'
   386  084F  346E               	retlw	110	;'n'
   387  0850  3469               	retlw	105	;'i'
   388  0851  3474               	retlw	116	;'t'
   389  0852  346F               	retlw	111	;'o'
   390  0853  3472               	retlw	114	;'r'
   391  0854  3469               	retlw	105	;'i'
   392  0855  346E               	retlw	110	;'n'
   393  0856  3467               	retlw	103	;'g'
   394  0857  3420               	retlw	32	;' '
   395  0858  3420               	retlw	32	;' '
   396  0859  3420               	retlw	32	;' '
   397  085A  3400               	retlw	0
   398                           psect	strings
   399                           	
   400  085B                     STR_2:	
   401  085B  3420               	retlw	32	;' '
   402  085C  3461               	retlw	97	;'a'
   403  085D  346E               	retlw	110	;'n'
   404  085E  3464               	retlw	100	;'d'
   405  085F  3420               	retlw	32	;' '
   406  0860  3448               	retlw	72	;'H'
   407  0861  3465               	retlw	101	;'e'
   408  0862  3461               	retlw	97	;'a'
   409  0863  3472               	retlw	114	;'r'
   410  0864  3474               	retlw	116	;'t'
   411  0865  3420               	retlw	32	;' '
   412  0866  3452               	retlw	82	;'R'
   413  0867  3461               	retlw	97	;'a'
   414  0868  3474               	retlw	116	;'t'
   415  0869  3465               	retlw	101	;'e'
   416  086A  3420               	retlw	32	;' '
   417  086B  3420               	retlw	32	;' '
   418  086C  3400               	retlw	0
   419                           psect	strings
   420                           	
   421  086D                     STR_1:	
   422  086D  3442               	retlw	66	;'B'
   423  086E  346F               	retlw	111	;'o'
   424  086F  3464               	retlw	100	;'d'
   425  0870  3479               	retlw	121	;'y'
   426  0871  3420               	retlw	32	;' '
   427  0872  3454               	retlw	84	;'T'
   428  0873  3465               	retlw	101	;'e'
   429  0874  346D               	retlw	109	;'m'
   430  0875  3470               	retlw	112	;'p'
   431  0876  3465               	retlw	101	;'e'
   432  0877  3472               	retlw	114	;'r'
   433  0878  3461               	retlw	97	;'a'
   434  0879  3474               	retlw	116	;'t'
   435  087A  3475               	retlw	117	;'u'
   436  087B  3472               	retlw	114	;'r'
   437  087C  3465               	retlw	101	;'e'
   438  087D  3420               	retlw	32	;' '
   439  087E  3400               	retlw	0
   440                           psect	strings
   441                           	
   442  087F                     STR_10:	
   443  087F  3430               	retlw	48	;'0'
   444  0880  3431               	retlw	49	;'1'
   445  0881  3432               	retlw	50	;'2'
   446  0882  3433               	retlw	51	;'3'
   447  0883  3434               	retlw	52	;'4'
   448  0884  3435               	retlw	53	;'5'
   449  0885  3436               	retlw	54	;'6'
   450  0886  3437               	retlw	55	;'7'
   451  0887  3438               	retlw	56	;'8'
   452  0888  3439               	retlw	57	;'9'
   453  0889  3441               	retlw	65	;'A'
   454  088A  3442               	retlw	66	;'B'
   455  088B  3443               	retlw	67	;'C'
   456  088C  3444               	retlw	68	;'D'
   457  088D  3445               	retlw	69	;'E'
   458  088E  3446               	retlw	70	;'F'
   459  088F  3400               	retlw	0
   460                           psect	strings
   461                           	
   462  0890                     STR_11:	
   463  0890  3430               	retlw	48	;'0'
   464  0891  3431               	retlw	49	;'1'
   465  0892  3432               	retlw	50	;'2'
   466  0893  3433               	retlw	51	;'3'
   467  0894  3434               	retlw	52	;'4'
   468  0895  3435               	retlw	53	;'5'
   469  0896  3436               	retlw	54	;'6'
   470  0897  3437               	retlw	55	;'7'
   471  0898  3438               	retlw	56	;'8'
   472  0899  3439               	retlw	57	;'9'
   473  089A  3461               	retlw	97	;'a'
   474  089B  3462               	retlw	98	;'b'
   475  089C  3463               	retlw	99	;'c'
   476  089D  3464               	retlw	100	;'d'
   477  089E  3465               	retlw	101	;'e'
   478  089F  3466               	retlw	102	;'f'
   479  08A0  3400               	retlw	0
   480                           psect	strings
   481                           	
   482  08A1                     STR_5:	
   483  08A1  3420               	retlw	32	;' '
   484  08A2  3420               	retlw	32	;' '
   485  08A3  3420               	retlw	32	;' '
   486  08A4  3420               	retlw	32	;' '
   487  08A5  3420               	retlw	32	;' '
   488  08A6  3420               	retlw	32	;' '
   489  08A7  3420               	retlw	32	;' '
   490  08A8  3466               	retlw	102	;'f'
   491  08A9  346F               	retlw	111	;'o'
   492  08AA  3472               	retlw	114	;'r'
   493  08AB  3420               	retlw	32	;' '
   494  08AC  3420               	retlw	32	;' '
   495  08AD  3420               	retlw	32	;' '
   496  08AE  3420               	retlw	32	;' '
   497  08AF  3420               	retlw	32	;' '
   498  08B0  3420               	retlw	32	;' '
   499  08B1  3400               	retlw	0
   500                           psect	strings
   501                           	
   502  08B2                     STR_6:	
   503  08B2  3420               	retlw	32	;' '
   504  08B3  3420               	retlw	32	;' '
   505  08B4  3420               	retlw	32	;' '
   506  08B5  3420               	retlw	32	;' '
   507  08B6  3450               	retlw	80	;'P'
   508  08B7  3461               	retlw	97	;'a'
   509  08B8  3474               	retlw	116	;'t'
   510  08B9  3469               	retlw	105	;'i'
   511  08BA  3465               	retlw	101	;'e'
   512  08BB  346E               	retlw	110	;'n'
   513  08BC  3474               	retlw	116	;'t'
   514  08BD  3473               	retlw	115	;'s'
   515  08BE  3420               	retlw	32	;' '
   516  08BF  3420               	retlw	32	;' '
   517  08C0  3420               	retlw	32	;' '
   518  08C1  3420               	retlw	32	;' '
   519  08C2  3400               	retlw	0
   520                           psect	strings
   521                           	
   522  08C3                     STR_8:	
   523  08C3  3454               	retlw	84	;'T'
   524  08C4  343A               	retlw	58	;':'
   525  08C5  3420               	retlw	32	;' '
   526  08C6  3420               	retlw	32	;' '
   527  08C7  3438               	retlw	56	;'8'
   528  08C8  3434               	retlw	52	;'4'
   529  08C9  3446               	retlw	70	;'F'
   530  08CA  3420               	retlw	32	;' '
   531  08CB  3420               	retlw	32	;' '
   532  08CC  3420               	retlw	32	;' '
   533  08CD  344C               	retlw	76	;'L'
   534  08CE  346F               	retlw	111	;'o'
   535  08CF  3477               	retlw	119	;'w'
   536  08D0  3420               	retlw	32	;' '
   537  08D1  3420               	retlw	32	;' '
   538  08D2  3420               	retlw	32	;' '
   539  08D3  3400               	retlw	0
   540                           psect	strings
   541                           	
   542  08D4                     STR_7:	
   543  08D4  3448               	retlw	72	;'H'
   544  08D5  343A               	retlw	58	;':'
   545  08D6  3420               	retlw	32	;' '
   546  08D7  3420               	retlw	32	;' '
   547  08D8  3436               	retlw	54	;'6'
   548  08D9  3432               	retlw	50	;'2'
   549  08DA  3450               	retlw	80	;'P'
   550  08DB  3450               	retlw	80	;'P'
   551  08DC  344D               	retlw	77	;'M'
   552  08DD  3420               	retlw	32	;' '
   553  08DE  344C               	retlw	76	;'L'
   554  08DF  346F               	retlw	111	;'o'
   555  08E0  3477               	retlw	119	;'w'
   556  08E1  3420               	retlw	32	;' '
   557  08E2  3420               	retlw	32	;' '
   558  08E3  3420               	retlw	32	;' '
   559  08E4  3400               	retlw	0
   560                           psect	strings
   561                           	file	"test.as"
   562                           	line	#
   563                           psect cinit,class=CODE,delta=2
   564                           global start_initialization
   565  0A8B                     start_initialization:
   566                           
   567                           psect	bitbssCOMMON,class=COMMON,bit,space=1
   568                           global __pbitbssCOMMON
   569  03D8                     __pbitbssCOMMON:
   570  03D8                     _bit0:
   571  03D8                            ds      1
   572                           
   573  03D9                     _bit1:
   574  03D9                            ds      1
   575                           
   576  03DA                     _bit2:
   577  03DA                            ds      1
   578                           
   579  03DB                     _bit3:
   580  03DB                            ds      1
   581                           
   582  03DC                     _bit4:
   583  03DC                            ds      1
   584                           
   585  03DD                     _bit5:
   586  03DD                            ds      1
   587                           
   588  03DE                     _bit6:
   589  03DE                            ds      1
   590                           
   591  03DF                     _bit7:
   592  03DF                            ds      1
   593                           
   594  03E0                     _nop:
   595  03E0                            ds      1
   596                           
   597                           psect	bssCOMMON,class=COMMON,space=1
   598                           global __pbssCOMMON
   599  007D                     __pbssCOMMON:
   600  007D                     _lcd_data_low:
   601  007D                            ds      1
   602                           
   603                           psect	bssBANK0,class=BANK0,space=1
   604                           global __pbssBANK0
   605  0046                     __pbssBANK0:
   606  0046                     _temperature:
   607  0046                            ds      3
   608                           
   609  0049                     _HeartRate:
   610  0049                            ds      2
   611                           
   612  004B                     _HeartRateCount:
   613  004B                            ds      2
   614                           
   615  004D                     _analogReadVal:
   616  004D                            ds      2
   617                           
   618  004F                     _heartRate:
   619  004F                            ds      2
   620                           
   621  0051                     _hour:
   622  0051                            ds      2
   623                           
   624  0053                     _ldr1:
   625  0053                            ds      2
   626                           
   627  0055                     _ldr2:
   628  0055                            ds      2
   629                           
   630  0057                     _minute:
   631  0057                            ds      2
   632                           
   633  0059                     _msecond:
   634  0059                            ds      2
   635                           
   636  005B                     _second:
   637  005B                            ds      2
   638                           
   639  005D                     _j:
   640  005D                            ds      1
   641                           
   642  005E                     _lcd_bus:
   643  005E                            ds      1
   644                           
   645  005F                     _lcd_data:
   646  005F                            ds      1
   647                           
   648  0060                     _lcd_data_high:
   649  0060                            ds      1
   650                           
   651  0061                     _state:
   652  0061                            ds      1
   653                           
   654  0062                     _v:
   655  0062                            ds      1
   656                           
   657  0063                     _w:
   658  0063                            ds      1
   659                           
   660  0064                     _wtmp:
   661  0064                            ds      1
   662                           
   663  0065                     _x:
   664  0065                            ds      1
   665                           
   666  0066                     _y:
   667  0066                            ds      1
   668                           
   669  0067                     _z:
   670  0067                            ds      1
   671                           
   672                           psect	dataBANK0,class=BANK0,space=1
   673                           global __pdataBANK0
   674  0068                     __pdataBANK0:
   675                           	file	"D:\ELECTRONIC\2016\1. Automated Solar Panel Orientation Setter\Firmware\Test2\Aut
                                 omated Solar Panel Orientation Setter.c"
   676                           	line	19
   677  0068                     _bed_nu:
   678  0068                            ds      1
   679                           
   680                           psect	dataBANK0
   681                           	file	"D:\ELECTRONIC\2016\1. Automated Solar Panel Orientation Setter\Firmware\Test2\Aut
                                 omated Solar Panel Orientation Setter.c"
   682                           	line	20
   683  0069                     _i:
   684  0069                            ds      1
   685                           
   686                           psect	bssBANK1,class=BANK1,space=1
   687                           global __pbssBANK1
   688  00A0                     __pbssBANK1:
   689  00A0                     _buffer:
   690  00A0                            ds      20
   691                           
   692  00B4                     _rc:
   693  00B4                            ds      9
   694                           
   695                           psect clrtext,class=CODE,delta=2
   696                           global clear_ram
   697                           ;	Called with FSR containing the base address, and
   698                           ;	W with the last address+1
   699  0988                     clear_ram:
   700  0988  0064               	clrwdt			;clear the watchdog before getting into this loop
   701  0989                     clrloop:
   702  0989  0180               	clrf	indf		;clear RAM location pointed to by FSR
   703  098A  0A84               	incf	fsr,f		;increment pointer
   704  098B  0604               	xorwf	fsr,w		;XOR with final address
   705  098C  1903               	btfsc	status,2	;have we reached the end yet?
   706  098D  3400               	retlw	0		;all done for this memory range, return
   707  098E  0604               	xorwf	fsr,w		;XOR again to restore value
   708  098F  2989               	goto	clrloop		;do the next byte
   709                           
   710                           ; Clear objects allocated to BITCOMMON
   711                           psect cinit,class=CODE,delta=2
   712  0A8B  01FB               	clrf	((__pbitbssCOMMON/8)+0)&07Fh
   713  0A8C  01FC               	clrf	((__pbitbssCOMMON/8)+1)&07Fh
   714                           ; Clear objects allocated to COMMON
   715                           psect cinit,class=CODE,delta=2
   716  0A8D  01FD               	clrf	((__pbssCOMMON)+0)&07Fh
   717                           ; Clear objects allocated to BANK0
   718                           psect cinit,class=CODE,delta=2
   719  0A8E  1383               	bcf	status, 7	;select IRP bank0
   720  0A8F  3046               	movlw	low(__pbssBANK0)
   721  0A90  0084               	movwf	fsr
   722  0A91  3068               	movlw	low((__pbssBANK0)+022h)
   723  0A92  120A  158A  2188   	fcall	clear_ram
              120A  158A         
   724                           ; Clear objects allocated to BANK1
   725                           psect cinit,class=CODE,delta=2
   726  0A97  30A0               	movlw	low(__pbssBANK1)
   727  0A98  0084               	movwf	fsr
   728  0A99  30BD               	movlw	low((__pbssBANK1)+01Dh)
   729  0A9A  120A  158A  2188   	fcall	clear_ram
              120A  158A         
   730                           ; Initialize objects allocated to BANK0
   731                           	global __pidataBANK0
   732                           psect cinit,class=CODE,delta=2
   733  0A9F  120A  118A  27FC   	fcall	__pidataBANK0+0		;fetch initializer
              120A  158A         
   734  0AA4  00E8               	movwf	__pdataBANK0+0&07fh		
   735  0AA5  120A  118A  27FD   	fcall	__pidataBANK0+1		;fetch initializer
              120A  158A         
   736  0AAA  00E9               	movwf	__pdataBANK0+1&07fh		
   737                           psect cinit,class=CODE,delta=2
   738                           global end_of_initialization
   739                           
   740                           ;End of C runtime variable initialization code
   741                           
   742  0AAB                     end_of_initialization:
   743  0AAB  0183               clrf status
   744  0AAC  120A  118A  2DDE   ljmp _main	;jump to C main() function
   745                           psect	cstackCOMMON,class=COMMON,space=1
   746                           global __pcstackCOMMON
   747  0070                     __pcstackCOMMON:
   748                           	global	?_lcd_add
   749  0070                     ?_lcd_add:	; 0 bytes @ 0x0
   750                           	global	?_bdnu_unid
   751  0070                     ?_bdnu_unid:	; 0 bytes @ 0x0
   752                           	global	?_isdigit
   753  0070                     ?_isdigit:	; 1 bit 
   754                           	global	?_Setup_IOports
   755  0070                     ?_Setup_IOports:	; 0 bytes @ 0x0
   756                           	global	?_lcd_init
   757  0070                     ?_lcd_init:	; 0 bytes @ 0x0
   758                           	global	?_putch
   759  0070                     ?_putch:	; 0 bytes @ 0x0
   760                           	global	?_clr_display
   761  0070                     ?_clr_display:	; 0 bytes @ 0x0
   762                           	global	?_atod_init
   763  0070                     ?_atod_init:	; 0 bytes @ 0x0
   764                           	global	?_Serial_Init
   765  0070                     ?_Serial_Init:	; 0 bytes @ 0x0
   766                           	global	?_Serial_Print
   767  0070                     ?_Serial_Print:	; 1 bit 
   768                           	global	?_enableInterrupt
   769  0070                     ?_enableInterrupt:	; 0 bytes @ 0x0
   770                           	global	?_Timer1_Init
   771  0070                     ?_Timer1_Init:	; 0 bytes @ 0x0
   772                           	global	?_main
   773  0070                     ?_main:	; 0 bytes @ 0x0
   774                           	global	?_isr
   775  0070                     ?_isr:	; 0 bytes @ 0x0
   776                           	global	?i1_lcd_init
   777  0070                     ?i1_lcd_init:	; 0 bytes @ 0x0
   778                           	global	??i1_lcd_init
   779  0070                     ??i1_lcd_init:	; 0 bytes @ 0x0
   780                           	global	?i1_clr_display
   781  0070                     ?i1_clr_display:	; 0 bytes @ 0x0
   782                           	global	?i1_lcd_add
   783  0070                     ?i1_lcd_add:	; 0 bytes @ 0x0
   784                           	global	??i1_lcd_add
   785  0070                     ??i1_lcd_add:	; 0 bytes @ 0x0
   786                           	global	?i1___lwmod
   787  0070                     ?i1___lwmod:	; 2 bytes @ 0x0
   788                           	global	i1lcd_init@DelayLCD
   789  0070                     i1lcd_init@DelayLCD:	; 2 bytes @ 0x0
   790                           	global	i1___lwmod@divisor
   791  0070                     i1___lwmod@divisor:	; 2 bytes @ 0x0
   792  0070                     	ds	2
   793                           	global	??i1_clr_display
   794  0072                     ??i1_clr_display:	; 0 bytes @ 0x2
   795                           	global	i1___lwmod@dividend
   796  0072                     i1___lwmod@dividend:	; 2 bytes @ 0x2
   797  0072                     	ds	2
   798                           	global	??i1___lwmod
   799  0074                     ??i1___lwmod:	; 0 bytes @ 0x4
   800  0074                     	ds	1
   801                           	global	i1___lwmod@counter
   802  0075                     i1___lwmod@counter:	; 1 bytes @ 0x5
   803  0075                     	ds	1
   804                           	global	??_isr
   805  0076                     ??_isr:	; 0 bytes @ 0x6
   806  0076                     	ds	5
   807                           psect	cstackBANK0,class=BANK0,space=1
   808                           global __pcstackBANK0
   809  0020                     __pcstackBANK0:
   810                           	global	??_lcd_add
   811  0020                     ??_lcd_add:	; 0 bytes @ 0x0
   812                           	global	??_bdnu_unid
   813  0020                     ??_bdnu_unid:	; 0 bytes @ 0x0
   814                           	global	??_isdigit
   815  0020                     ??_isdigit:	; 0 bytes @ 0x0
   816                           	global	??_Setup_IOports
   817  0020                     ??_Setup_IOports:	; 0 bytes @ 0x0
   818                           	global	??_lcd_init
   819  0020                     ??_lcd_init:	; 0 bytes @ 0x0
   820                           	global	??_atod_init
   821  0020                     ??_atod_init:	; 0 bytes @ 0x0
   822                           	global	??_Serial_Init
   823  0020                     ??_Serial_Init:	; 0 bytes @ 0x0
   824                           	global	??_Serial_Print
   825  0020                     ??_Serial_Print:	; 0 bytes @ 0x0
   826                           	global	??_enableInterrupt
   827  0020                     ??_enableInterrupt:	; 0 bytes @ 0x0
   828                           	global	??_Timer1_Init
   829  0020                     ??_Timer1_Init:	; 0 bytes @ 0x0
   830                           	global	?___bmul
   831  0020                     ?___bmul:	; 1 bytes @ 0x0
   832                           	global	?___wmul
   833  0020                     ?___wmul:	; 2 bytes @ 0x0
   834                           	global	?___lwdiv
   835  0020                     ?___lwdiv:	; 2 bytes @ 0x0
   836                           	global	_isdigit$1750
   837  0020                     _isdigit$1750:	; 1 bytes @ 0x0
   838                           	global	___bmul@multiplicand
   839  0020                     ___bmul@multiplicand:	; 1 bytes @ 0x0
   840                           	global	lcd_init@DelayLCD
   841  0020                     lcd_init@DelayLCD:	; 2 bytes @ 0x0
   842                           	global	___wmul@multiplier
   843  0020                     ___wmul@multiplier:	; 2 bytes @ 0x0
   844                           	global	___lwdiv@divisor
   845  0020                     ___lwdiv@divisor:	; 2 bytes @ 0x0
   846  0020                     	ds	1
   847                           	global	??___bmul
   848  0021                     ??___bmul:	; 0 bytes @ 0x1
   849                           	global	Serial_Print@a
   850  0021                     Serial_Print@a:	; 1 bytes @ 0x1
   851                           	global	isdigit@c
   852  0021                     isdigit@c:	; 1 bytes @ 0x1
   853  0021                     	ds	1
   854                           	global	??_putch
   855  0022                     ??_putch:	; 0 bytes @ 0x2
   856                           	global	??_clr_display
   857  0022                     ??_clr_display:	; 0 bytes @ 0x2
   858                           	global	?_position
   859  0022                     ?_position:	; 0 bytes @ 0x2
   860                           	global	position@collum
   861  0022                     position@collum:	; 1 bytes @ 0x2
   862                           	global	___bmul@product
   863  0022                     ___bmul@product:	; 1 bytes @ 0x2
   864                           	global	___wmul@multiplicand
   865  0022                     ___wmul@multiplicand:	; 2 bytes @ 0x2
   866                           	global	___lwdiv@dividend
   867  0022                     ___lwdiv@dividend:	; 2 bytes @ 0x2
   868  0022                     	ds	1
   869                           	global	??_position
   870  0023                     ??_position:	; 0 bytes @ 0x3
   871                           	global	putch@print_value
   872  0023                     putch@print_value:	; 1 bytes @ 0x3
   873                           	global	___bmul@multiplier
   874  0023                     ___bmul@multiplier:	; 1 bytes @ 0x3
   875  0023                     	ds	1
   876                           	global	??___wmul
   877  0024                     ??___wmul:	; 0 bytes @ 0x4
   878                           	global	??___lwdiv
   879  0024                     ??___lwdiv:	; 0 bytes @ 0x4
   880                           	global	___wmul@product
   881  0024                     ___wmul@product:	; 2 bytes @ 0x4
   882  0024                     	ds	1
   883                           	global	position@post
   884  0025                     position@post:	; 1 bytes @ 0x5
   885                           	global	___lwdiv@quotient
   886  0025                     ___lwdiv@quotient:	; 2 bytes @ 0x5
   887  0025                     	ds	1
   888                           	global	position@row
   889  0026                     position@row:	; 1 bytes @ 0x6
   890  0026                     	ds	1
   891                           	global	___lwdiv@counter
   892  0027                     ___lwdiv@counter:	; 1 bytes @ 0x7
   893  0027                     	ds	1
   894                           	global	?___lwmod
   895  0028                     ?___lwmod:	; 2 bytes @ 0x8
   896                           	global	___lwmod@divisor
   897  0028                     ___lwmod@divisor:	; 2 bytes @ 0x8
   898  0028                     	ds	2
   899                           	global	___lwmod@dividend
   900  002A                     ___lwmod@dividend:	; 2 bytes @ 0xA
   901  002A                     	ds	2
   902                           	global	??___lwmod
   903  002C                     ??___lwmod:	; 0 bytes @ 0xC
   904  002C                     	ds	1
   905                           	global	___lwmod@counter
   906  002D                     ___lwmod@counter:	; 1 bytes @ 0xD
   907  002D                     	ds	1
   908                           	global	?_printf
   909  002E                     ?_printf:	; 2 bytes @ 0xE
   910  002E                     	ds	2
   911                           	global	??_printf
   912  0030                     ??_printf:	; 0 bytes @ 0x10
   913  0030                     	ds	3
   914                           	global	_printf$1391
   915  0033                     _printf$1391:	; 2 bytes @ 0x13
   916  0033                     	ds	2
   917                           	global	_printf$1392
   918  0035                     _printf$1392:	; 2 bytes @ 0x15
   919  0035                     	ds	2
   920                           	global	_printf$1395
   921  0037                     _printf$1395:	; 1 bytes @ 0x17
   922  0037                     	ds	1
   923                           	global	printf@ap
   924  0038                     printf@ap:	; 1 bytes @ 0x18
   925  0038                     	ds	1
   926                           	global	printf@f
   927  0039                     printf@f:	; 1 bytes @ 0x19
   928  0039                     	ds	1
   929                           	global	printf@prec
   930  003A                     printf@prec:	; 1 bytes @ 0x1A
   931  003A                     	ds	1
   932                           	global	printf@width
   933  003B                     printf@width:	; 2 bytes @ 0x1B
   934  003B                     	ds	2
   935                           	global	printf@_val
   936  003D                     printf@_val:	; 3 bytes @ 0x1D
   937  003D                     	ds	3
   938                           	global	printf@c
   939  0040                     printf@c:	; 1 bytes @ 0x20
   940  0040                     	ds	1
   941                           	global	printf@flag
   942  0041                     printf@flag:	; 2 bytes @ 0x21
   943  0041                     	ds	2
   944                           	global	??_main
   945  0043                     ??_main:	; 0 bytes @ 0x23
   946  0043                     	ds	3
   947 ;;Data sizes: Strings 193, constant 30, data 2, bss 64, persistent 0 stack 0
   948 ;;Auto spaces:   Size  Autos    Used
   949 ;; COMMON          14     11      14
   950 ;; BANK0           80     38      74
   951 ;; BANK1           80      0      29
   952 ;; BANK3           96      0       0
   953 ;; BANK2           96      0       0
   954                           
   955 ;;
   956 ;; Pointer list with targets:
   957                           
   958 ;; ?i1___lwmod	unsigned int  size(1) Largest target is 0
   959 ;;
   960 ;; ?___wmul	unsigned int  size(1) Largest target is 0
   961 ;;
   962 ;; ?___lwmod	unsigned int  size(1) Largest target is 0
   963 ;;
   964 ;; ?___lwdiv	unsigned int  size(1) Largest target is 0
   965 ;;
   966 ;; printf$1395	PTR const unsigned char  size(1) Largest target is 17
   967 ;;		 -> STR_11(CODE[17]), STR_10(CODE[17]), 
   968 ;;
   969 ;; printf@_val._cp	PTR const unsigned char  size(1) Largest target is 1
   970 ;;		 -> printf@c(BANK0[1]), 
   971 ;;
   972 ;; printf@f	PTR const unsigned char  size(1) Largest target is 18
   973 ;;		 -> STR_8(CODE[17]), STR_7(CODE[17]), STR_6(CODE[17]), STR_5(CODE[17]), 
   974 ;;		 -> STR_4(CODE[18]), STR_3(CODE[18]), STR_2(CODE[18]), STR_1(CODE[18]), 
   975 ;;
   976 ;; ?_printf	int  size(1) Largest target is 0
   977 ;;
   978 ;; printf@ap	PTR void [1] size(1) Largest target is 2
   979 ;;		 -> ?_printf(BANK0[2]), 
   980 ;;
   981 ;; S1378$_cp	PTR const unsigned char  size(1) Largest target is 1
   982 ;;		 -> printf@c(BANK0[1]), 
   983 ;;
   984 ;; _val._str._cp	PTR const unsigned char  size(1) Largest target is 1
   985 ;;		 -> printf@c(BANK0[1]), 
   986 ;;
   987 ;; Serial_Print@a	PTR unsigned char  size(1) Largest target is 19
   988 ;;		 -> STR_9(CODE[19]), 
   989 ;;
   990                           
   991                           
   992 ;;
   993 ;; Critical Paths under _main in COMMON
   994 ;;
   995 ;;   None.
   996 ;;
   997 ;; Critical Paths under _isr in COMMON
   998 ;;
   999 ;;   _isr->i1___lwmod
  1000 ;;   i1_clr_display->i1_lcd_add
  1001 ;;
  1002 ;; Critical Paths under _main in BANK0
  1003 ;;
  1004 ;;   _main->_printf
  1005 ;;   _printf->___lwmod
  1006 ;;   _position->_lcd_add
  1007 ;;   _clr_display->_lcd_add
  1008 ;;   _putch->_lcd_add
  1009 ;;   ___lwmod->___lwdiv
  1010 ;;
  1011 ;; Critical Paths under _isr in BANK0
  1012 ;;
  1013 ;;   None.
  1014 ;;
  1015 ;; Critical Paths under _main in BANK1
  1016 ;;
  1017 ;;   None.
  1018 ;;
  1019 ;; Critical Paths under _isr in BANK1
  1020 ;;
  1021 ;;   None.
  1022 ;;
  1023 ;; Critical Paths under _main in BANK3
  1024 ;;
  1025 ;;   None.
  1026 ;;
  1027 ;; Critical Paths under _isr in BANK3
  1028 ;;
  1029 ;;   None.
  1030 ;;
  1031 ;; Critical Paths under _main in BANK2
  1032 ;;
  1033 ;;   None.
  1034 ;;
  1035 ;; Critical Paths under _isr in BANK2
  1036 ;;
  1037 ;;   None.
  1038                           
  1039 ;;
  1040 ;;Main: autosize = 0, tempsize = 3, incstack = 0, save=0
  1041 ;;
  1042                           
  1043 ;;
  1044 ;;Call Graph Tables:
  1045 ;;
  1046 ;; ---------------------------------------------------------------------------------
  1047 ;; (Depth) Function   	        Calls       Base Space   Used Autos Params    Refs
  1048 ;; ---------------------------------------------------------------------------------
  1049 ;; (0) _main                                                 3     3      0    3398
  1050 ;;                                             35 BANK0      3     3      0
  1051 ;;                      _Setup_IOports
  1052 ;;                          _atod_init
  1053 ;;                           _lcd_init
  1054 ;;                        _clr_display
  1055 ;;                        _Serial_Init
  1056 ;;                        _Timer1_Init
  1057 ;;                    _enableInterrupt
  1058 ;;                             _printf
  1059 ;;                           _position
  1060 ;;                       _Serial_Print
  1061 ;;                          _bdnu_unid
  1062 ;; ---------------------------------------------------------------------------------
  1063 ;; (1) _printf                                              21    19      2    2986
  1064 ;;                                             14 BANK0     21    19      2
  1065 ;;                              _putch
  1066 ;;                            _isdigit
  1067 ;;                             ___wmul
  1068 ;;                             ___bmul
  1069 ;;                            ___lwdiv
  1070 ;;                            ___lwmod
  1071 ;; ---------------------------------------------------------------------------------
  1072 ;; (1) _position                                             5     4      1     115
  1073 ;;                                              2 BANK0      5     4      1
  1074 ;;                            _lcd_add
  1075 ;; ---------------------------------------------------------------------------------
  1076 ;; (1) _clr_display                                          2     2      0       0
  1077 ;;                                              2 BANK0      2     2      0
  1078 ;;                            _lcd_add
  1079 ;; ---------------------------------------------------------------------------------
  1080 ;; (2) _putch                                                2     2      0      22
  1081 ;;                                              2 BANK0      2     2      0
  1082 ;;                            _lcd_add
  1083 ;; ---------------------------------------------------------------------------------
  1084 ;; (1) _bdnu_unid                                            1     1      0       0
  1085 ;;                                              0 BANK0      1     1      0
  1086 ;; ---------------------------------------------------------------------------------
  1087 ;; (1) _Serial_Print                                         2     2      0      67
  1088 ;;                                              0 BANK0      2     2      0
  1089 ;; ---------------------------------------------------------------------------------
  1090 ;; (1) _Serial_Init                                          3     3      0       0
  1091 ;;                                              0 BANK0      3     3      0
  1092 ;; ---------------------------------------------------------------------------------
  1093 ;; (2) _lcd_add                                              2     2      0       0
  1094 ;;                                              0 BANK0      2     2      0
  1095 ;; ---------------------------------------------------------------------------------
  1096 ;; (2) ___lwmod                                              6     2      4     159
  1097 ;;                                              8 BANK0      6     2      4
  1098 ;;                            ___lwdiv (ARG)
  1099 ;; ---------------------------------------------------------------------------------
  1100 ;; (2) ___lwdiv                                              8     4      4     162
  1101 ;;                                              0 BANK0      8     4      4
  1102 ;; ---------------------------------------------------------------------------------
  1103 ;; (2) ___wmul                                               6     2      4      92
  1104 ;;                                              0 BANK0      6     2      4
  1105 ;; ---------------------------------------------------------------------------------
  1106 ;; (2) ___bmul                                               4     3      1      92
  1107 ;;                                              0 BANK0      4     3      1
  1108 ;; ---------------------------------------------------------------------------------
  1109 ;; (2) _isdigit                                              2     2      0      68
  1110 ;;                                              0 BANK0      2     2      0
  1111 ;; ---------------------------------------------------------------------------------
  1112 ;; (1) _Timer1_Init                                          0     0      0       0
  1113 ;; ---------------------------------------------------------------------------------
  1114 ;; (1) _enableInterrupt                                      0     0      0       0
  1115 ;; ---------------------------------------------------------------------------------
  1116 ;; (1) _atod_init                                            0     0      0       0
  1117 ;; ---------------------------------------------------------------------------------
  1118 ;; (1) _lcd_init                                             2     2      0     230
  1119 ;;                                              0 BANK0      2     2      0
  1120 ;; ---------------------------------------------------------------------------------
  1121 ;; (1) _Setup_IOports                                        0     0      0       0
  1122 ;; ---------------------------------------------------------------------------------
  1123 ;; Estimated maximum stack depth 2
  1124 ;; ---------------------------------------------------------------------------------
  1125 ;; (Depth) Function   	        Calls       Base Space   Used Autos Params    Refs
  1126 ;; ---------------------------------------------------------------------------------
  1127 ;; (4) _isr                                                  5     5      0    1271
  1128 ;;                                              6 COMMON     5     5      0
  1129 ;;                         i1_lcd_init
  1130 ;;                      i1_clr_display
  1131 ;;                          i1___lwmod
  1132 ;; ---------------------------------------------------------------------------------
  1133 ;; (5) i1_clr_display                                        2     2      0       0
  1134 ;;                                              2 COMMON     2     2      0
  1135 ;;                          i1_lcd_add
  1136 ;; ---------------------------------------------------------------------------------
  1137 ;; (6) i1_lcd_add                                            2     2      0       0
  1138 ;;                                              0 COMMON     2     2      0
  1139 ;; ---------------------------------------------------------------------------------
  1140 ;; (5) i1___lwmod                                            6     2      4     521
  1141 ;;                                              0 COMMON     6     2      4
  1142 ;; ---------------------------------------------------------------------------------
  1143 ;; (5) i1_lcd_init                                           2     2      0     750
  1144 ;;                                              0 COMMON     2     2      0
  1145 ;; ---------------------------------------------------------------------------------
  1146 ;; Estimated maximum stack depth 6
  1147 ;; ---------------------------------------------------------------------------------
  1148                           
  1149 ;; Call Graph Graphs:
  1150                           
  1151 ;; _main (ROOT)
  1152 ;;   _Setup_IOports
  1153 ;;   _atod_init
  1154 ;;   _lcd_init
  1155 ;;   _clr_display
  1156 ;;     _lcd_add
  1157 ;;   _Serial_Init
  1158 ;;   _Timer1_Init
  1159 ;;   _enableInterrupt
  1160 ;;   _printf
  1161 ;;     _putch
  1162 ;;       _lcd_add
  1163 ;;     _isdigit
  1164 ;;     ___wmul
  1165 ;;     ___bmul
  1166 ;;     ___lwdiv
  1167 ;;     ___lwmod
  1168 ;;       ___lwdiv (ARG)
  1169 ;;   _position
  1170 ;;     _lcd_add
  1171 ;;   _Serial_Print
  1172 ;;   _bdnu_unid
  1173 ;;
  1174 ;; _isr (ROOT)
  1175 ;;   i1_lcd_init
  1176 ;;   i1_clr_display
  1177 ;;     i1_lcd_add
  1178 ;;   i1___lwmod
  1179 ;;
  1180                           
  1181 ;; Address spaces:
  1182                           
  1183 ;;Name               Size   Autos  Total    Cost      Usage
  1184 ;;BANK3               60      0       0       9        0.0%
  1185 ;;BITBANK3            60      0       0       8        0.0%
  1186 ;;SFR3                 0      0       0       4        0.0%
  1187 ;;BITSFR3              0      0       0       4        0.0%
  1188 ;;BANK2               60      0       0      11        0.0%
  1189 ;;BITBANK2            60      0       0      10        0.0%
  1190 ;;SFR2                 0      0       0       5        0.0%
  1191 ;;BITSFR2              0      0       0       5        0.0%
  1192 ;;SFR1                 0      0       0       2        0.0%
  1193 ;;BITSFR1              0      0       0       2        0.0%
  1194 ;;BANK1               50      0      1D       7       36.3%
  1195 ;;BITBANK1            50      0       0       6        0.0%
  1196 ;;CODE                 0      0       0       0        0.0%
  1197 ;;DATA                 0      0      7E      12        0.0%
  1198 ;;ABS                  0      0      75       3        0.0%
  1199 ;;NULL                 0      0       0       0        0.0%
  1200 ;;STACK                0      0       9       2        0.0%
  1201 ;;BANK0               50     26      4A       5       92.5%
  1202 ;;BITBANK0            50      0       0       4        0.0%
  1203 ;;SFR0                 0      0       0       1        0.0%
  1204 ;;BITSFR0              0      0       0       1        0.0%
  1205 ;;COMMON               E      B       E       1      100.0%
  1206 ;;BITCOMMON            E      0       2       0       14.3%
  1207 ;;EEDATA             100      0       0       0        0.0%
  1208                           
  1209                           	global	_main
  1210                           psect	maintext,global,class=CODE,delta=2
  1211                           global __pmaintext
  1212  05DE                     __pmaintext:
  1213                           
  1214 ;; *************** function _main *****************
  1215 ;; Defined at:
  1216 ;;		line 62 in file "D:\ELECTRONIC\2016\1. Automated Solar Panel Orientation Setter\Firmware\Test2\Automated Solar Panel
        Orientation Setter.c"
  1217 ;; Parameters:    Size  Location     Type
  1218 ;;		None
  1219 ;; Auto vars:     Size  Location     Type
  1220 ;;		None
  1221 ;; Return value:  Size  Location     Type
  1222 ;;		None               void
  1223 ;; Registers used:
  1224 ;;		wreg, fsr0l, fsr0h, status,2, status,0, btemp+1, pclath, cstack
  1225 ;; Tracked objects:
  1226 ;;		On entry : 17F/0
  1227 ;;		On exit  : 0/0
  1228 ;;		Unchanged: 0/0
  1229 ;; Data sizes:     COMMON   BANK0   BANK1   BANK3   BANK2
  1230 ;;      Params:         0       0       0       0       0
  1231 ;;      Locals:         0       0       0       0       0
  1232 ;;      Temps:          0       3       0       0       0
  1233 ;;      Totals:         0       3       0       0       0
  1234 ;;Total ram usage:        3 bytes
  1235 ;; Hardware stack levels required when called:    6
  1236 ;; This function calls:
  1237 ;;		_Setup_IOports
  1238 ;;		_atod_init
  1239 ;;		_lcd_init
  1240 ;;		_clr_display
  1241 ;;		_Serial_Init
  1242 ;;		_Timer1_Init
  1243 ;;		_enableInterrupt
  1244 ;;		_printf
  1245 ;;		_position
  1246 ;;		_Serial_Print
  1247 ;;		_bdnu_unid
  1248 ;; This function is called by:
  1249 ;;		Startup code after reset
  1250 ;; This function uses a non-reentrant model
  1251 ;;
  1252                           psect	maintext
  1253                           	file	"D:\ELECTRONIC\2016\1. Automated Solar Panel Orientation Setter\Firmware\Test2\Aut
                                 omated Solar Panel Orientation Setter.c"
  1254                           	line	62
  1255                           	global	__size_of_main
  1256  0126                     	__size_of_main	equ	__end_of_main-_main
  1257                           	
  1258  05DE                     _main:	
  1259                           	opt	stack 2
  1260                           ; Regs used in _main: [wreg-fsr0h+status,2+status,0+btemp+1+pclath+cstack]
  1261                           	line	63
  1262                           	
  1263  05DE                     l5283:	
  1264                           ;Automated Solar Panel Orientation Setter.c: 63: Setup_IOports();
  1265  05DE  120A  158A  2267   	fcall	_Setup_IOports
              120A  118A         
  1266                           	line	66
  1267                           ;Automated Solar Panel Orientation Setter.c: 66: atod_init();
  1268  05E3  120A  158A  2190   	fcall	_atod_init
              120A  118A         
  1269                           	line	70
  1270                           ;Automated Solar Panel Orientation Setter.c: 70: lcd_init();
  1271  05E8  120A  158A  255C   	fcall	_lcd_init
              120A  118A         
  1272                           	line	71
  1273                           ;Automated Solar Panel Orientation Setter.c: 71: clr_display();
  1274  05ED  120A  158A  2246   	fcall	_clr_display
              120A  118A         
  1275                           	line	73
  1276                           ;Automated Solar Panel Orientation Setter.c: 73: Serial_Init();
  1277  05F2  120A  158A  2226   	fcall	_Serial_Init
              120A  118A         
  1278                           	line	74
  1279                           ;Automated Solar Panel Orientation Setter.c: 74: Timer1_Init();
  1280  05F7  120A  158A  2199   	fcall	_Timer1_Init
              120A  118A         
  1281                           	line	75
  1282                           	
  1283  05FC                     l5285:	
  1284                           ;Automated Solar Panel Orientation Setter.c: 75: enableInterrupt();
  1285  05FC  120A  158A  21A8   	fcall	_enableInterrupt
              120A  118A         
  1286                           	line	79
  1287                           	
  1288  0601                     l5287:	
  1289                           ;Automated Solar Panel Orientation Setter.c: 79: lcd_init();
  1290  0601  120A  158A  255C   	fcall	_lcd_init
              120A  118A         
  1291                           	line	80
  1292                           	
  1293  0606                     l5289:	
  1294                           ;Automated Solar Panel Orientation Setter.c: 80: clr_display();
  1295  0606  120A  158A  2246   	fcall	_clr_display
              120A  118A         
  1296                           	line	82
  1297                           	
  1298  060B                     l5291:	
  1299                           ;Automated Solar Panel Orientation Setter.c: 82: printf("Body Temperature ");
  1300  060B  3068               	movlw	((STR_1-__stringbase))&0ffh
  1301  060C  120A  118A  2015   	fcall	_printf
              120A  118A         
  1302                           	line	83
  1303                           	
  1304  0611                     l5293:	
  1305                           ;Automated Solar Panel Orientation Setter.c: 83: position(2,1);
  1306  0611  1283               	bcf	status, 5	;RP0=0, select bank0
  1307  0612  1303               	bcf	status, 6	;RP1=0, select bank0
  1308  0613  01A2               	clrf	(?_position)
  1309  0614  1403               	bsf	status,0
  1310  0615  0DA2               	rlf	(?_position),f
  1311  0616  3002               	movlw	(02h)
  1312  0617  120A  158A  2307   	fcall	_position
              120A  118A         
  1313                           	line	84
  1314                           	
  1315  061C                     l5295:	
  1316                           ;Automated Solar Panel Orientation Setter.c: 84: printf(" and Heart Rate  ");
  1317  061C  3056               	movlw	((STR_2-__stringbase))&0ffh
  1318  061D  120A  118A  2015   	fcall	_printf
              120A  118A         
  1319                           	line	85
  1320                           	
  1321  0622                     l5297:	
  1322                           ;Automated Solar Panel Orientation Setter.c: 85: _delay((unsigned long)((1000)*(4000000/
                                 4000.0)));
  1323                           	opt asmopt_off
  1324  0622  3006               movlw  6
  1325  0623  1283               	bcf	status, 5	;RP0=0, select bank0
  1326  0624  1303               	bcf	status, 6	;RP1=0, select bank0
  1327  0625  00C5               movwf	((??_main+0)+0+2),f
  1328  0626  3013               movlw	19
  1329  0627  00C4               movwf	((??_main+0)+0+1),f
  1330  0628  30B1               	movlw	177
  1331  0629  00C3               movwf	((??_main+0)+0),f
  1332  062A                     u7277:
  1333  062A  0BC3               	decfsz	((??_main+0)+0),f
  1334  062B  2E2A               	goto	u7277
  1335  062C  0BC4               	decfsz	((??_main+0)+0+1),f
  1336  062D  2E2A               	goto	u7277
  1337  062E  0BC5               	decfsz	((??_main+0)+0+2),f
  1338  062F  2E2A               	goto	u7277
  1339  0630  2E31               	nop2
  1340                           opt asmopt_on
  1341                           
  1342                           	line	86
  1343                           ;Automated Solar Panel Orientation Setter.c: 86: position(1,1);
  1344  0631  1283               	bcf	status, 5	;RP0=0, select bank0
  1345  0632  1303               	bcf	status, 6	;RP1=0, select bank0
  1346  0633  01A2               	clrf	(?_position)
  1347  0634  1403               	bsf	status,0
  1348  0635  0DA2               	rlf	(?_position),f
  1349  0636  3001               	movlw	(01h)
  1350  0637  120A  158A  2307   	fcall	_position
              120A  118A         
  1351                           	line	87
  1352                           	
  1353  063C                     l5299:	
  1354                           ;Automated Solar Panel Orientation Setter.c: 87: printf("    Monitoring   ");
  1355  063C  3044               	movlw	((STR_3-__stringbase))&0ffh
  1356  063D  120A  118A  2015   	fcall	_printf
              120A  118A         
  1357                           	line	88
  1358                           	
  1359  0642                     l5301:	
  1360                           ;Automated Solar Panel Orientation Setter.c: 88: position(2,1);
  1361  0642  1283               	bcf	status, 5	;RP0=0, select bank0
  1362  0643  1303               	bcf	status, 6	;RP1=0, select bank0
  1363  0644  01A2               	clrf	(?_position)
  1364  0645  1403               	bsf	status,0
  1365  0646  0DA2               	rlf	(?_position),f
  1366  0647  3002               	movlw	(02h)
  1367  0648  120A  158A  2307   	fcall	_position
              120A  118A         
  1368                           	line	89
  1369                           ;Automated Solar Panel Orientation Setter.c: 89: printf("      System     ");
  1370  064D  3032               	movlw	((STR_4-__stringbase))&0ffh
  1371  064E  120A  118A  2015   	fcall	_printf
              120A  118A         
  1372                           	line	90
  1373                           	
  1374  0653                     l5303:	
  1375                           ;Automated Solar Panel Orientation Setter.c: 90: _delay((unsigned long)((1000)*(4000000/
                                 4000.0)));
  1376                           	opt asmopt_off
  1377  0653  3006               movlw  6
  1378  0654  1283               	bcf	status, 5	;RP0=0, select bank0
  1379  0655  1303               	bcf	status, 6	;RP1=0, select bank0
  1380  0656  00C5               movwf	((??_main+0)+0+2),f
  1381  0657  3013               movlw	19
  1382  0658  00C4               movwf	((??_main+0)+0+1),f
  1383  0659  30B1               	movlw	177
  1384  065A  00C3               movwf	((??_main+0)+0),f
  1385  065B                     u7287:
  1386  065B  0BC3               	decfsz	((??_main+0)+0),f
  1387  065C  2E5B               	goto	u7287
  1388  065D  0BC4               	decfsz	((??_main+0)+0+1),f
  1389  065E  2E5B               	goto	u7287
  1390  065F  0BC5               	decfsz	((??_main+0)+0+2),f
  1391  0660  2E5B               	goto	u7287
  1392  0661  2E62               	nop2
  1393                           opt asmopt_on
  1394                           
  1395                           	line	91
  1396                           	
  1397  0662                     l5305:	
  1398                           ;Automated Solar Panel Orientation Setter.c: 91: position(1,1);
  1399  0662  1283               	bcf	status, 5	;RP0=0, select bank0
  1400  0663  1303               	bcf	status, 6	;RP1=0, select bank0
  1401  0664  01A2               	clrf	(?_position)
  1402  0665  1403               	bsf	status,0
  1403  0666  0DA2               	rlf	(?_position),f
  1404  0667  3001               	movlw	(01h)
  1405  0668  120A  158A  2307   	fcall	_position
              120A  118A         
  1406                           	line	92
  1407                           	
  1408  066D                     l5307:	
  1409                           ;Automated Solar Panel Orientation Setter.c: 92: printf("       for      ");
  1410  066D  309C               	movlw	((STR_5-__stringbase))&0ffh
  1411  066E  120A  118A  2015   	fcall	_printf
              120A  118A         
  1412                           	line	93
  1413                           	
  1414  0673                     l5309:	
  1415                           ;Automated Solar Panel Orientation Setter.c: 93: position(2,1);
  1416  0673  1283               	bcf	status, 5	;RP0=0, select bank0
  1417  0674  1303               	bcf	status, 6	;RP1=0, select bank0
  1418  0675  01A2               	clrf	(?_position)
  1419  0676  1403               	bsf	status,0
  1420  0677  0DA2               	rlf	(?_position),f
  1421  0678  3002               	movlw	(02h)
  1422  0679  120A  158A  2307   	fcall	_position
              120A  118A         
  1423                           	line	94
  1424                           	
  1425  067E                     l5311:	
  1426                           ;Automated Solar Panel Orientation Setter.c: 94: printf("    Patients    ");
  1427  067E  30AD               	movlw	((STR_6-__stringbase))&0ffh
  1428  067F  120A  118A  2015   	fcall	_printf
              120A  118A         
  1429                           	line	95
  1430                           	
  1431  0684                     l5313:	
  1432                           ;Automated Solar Panel Orientation Setter.c: 95: _delay((unsigned long)((1000)*(4000000/
                                 4000.0)));
  1433                           	opt asmopt_off
  1434  0684  3006               movlw  6
  1435  0685  1283               	bcf	status, 5	;RP0=0, select bank0
  1436  0686  1303               	bcf	status, 6	;RP1=0, select bank0
  1437  0687  00C5               movwf	((??_main+0)+0+2),f
  1438  0688  3013               movlw	19
  1439  0689  00C4               movwf	((??_main+0)+0+1),f
  1440  068A  30B1               	movlw	177
  1441  068B  00C3               movwf	((??_main+0)+0),f
  1442  068C                     u7297:
  1443  068C  0BC3               	decfsz	((??_main+0)+0),f
  1444  068D  2E8C               	goto	u7297
  1445  068E  0BC4               	decfsz	((??_main+0)+0+1),f
  1446  068F  2E8C               	goto	u7297
  1447  0690  0BC5               	decfsz	((??_main+0)+0+2),f
  1448  0691  2E8C               	goto	u7297
  1449  0692  2E93               	nop2
  1450                           opt asmopt_on
  1451                           
  1452                           	line	96
  1453                           	
  1454  0693                     l5315:	
  1455                           ;Automated Solar Panel Orientation Setter.c: 96: position(1,1);
  1456  0693  1283               	bcf	status, 5	;RP0=0, select bank0
  1457  0694  1303               	bcf	status, 6	;RP1=0, select bank0
  1458  0695  01A2               	clrf	(?_position)
  1459  0696  1403               	bsf	status,0
  1460  0697  0DA2               	rlf	(?_position),f
  1461  0698  3001               	movlw	(01h)
  1462  0699  120A  158A  2307   	fcall	_position
              120A  118A         
  1463                           	line	97
  1464                           	
  1465  069E                     l5317:	
  1466                           ;Automated Solar Panel Orientation Setter.c: 97: printf("H:  62PPM Low   ",HeartRate);
  1467  069E  1283               	bcf	status, 5	;RP0=0, select bank0
  1468  069F  1303               	bcf	status, 6	;RP1=0, select bank0
  1469  06A0  084A               	movf	(_HeartRate+1),w
  1470  06A1  01AF               	clrf	(?_printf+1)
  1471  06A2  07AF               	addwf	(?_printf+1)
  1472  06A3  0849               	movf	(_HeartRate),w
  1473  06A4  01AE               	clrf	(?_printf)
  1474  06A5  07AE               	addwf	(?_printf)
  1475                           
  1476  06A6  30CF               	movlw	((STR_7-__stringbase))&0ffh
  1477  06A7  120A  118A  2015   	fcall	_printf
              120A  118A         
  1478                           	line	98
  1479                           ;Automated Solar Panel Orientation Setter.c: 98: position(2,1);
  1480  06AC  1283               	bcf	status, 5	;RP0=0, select bank0
  1481  06AD  1303               	bcf	status, 6	;RP1=0, select bank0
  1482  06AE  01A2               	clrf	(?_position)
  1483  06AF  1403               	bsf	status,0
  1484  06B0  0DA2               	rlf	(?_position),f
  1485  06B1  3002               	movlw	(02h)
  1486  06B2  120A  158A  2307   	fcall	_position
              120A  118A         
  1487                           	line	99
  1488                           	
  1489  06B7                     l5319:	
  1490                           ;Automated Solar Panel Orientation Setter.c: 99: printf("T:  84F   Low   ",analogReadVal
                                 );
  1491  06B7  1283               	bcf	status, 5	;RP0=0, select bank0
  1492  06B8  1303               	bcf	status, 6	;RP1=0, select bank0
  1493  06B9  084E               	movf	(_analogReadVal+1),w
  1494  06BA  01AF               	clrf	(?_printf+1)
  1495  06BB  07AF               	addwf	(?_printf+1)
  1496  06BC  084D               	movf	(_analogReadVal),w
  1497  06BD  01AE               	clrf	(?_printf)
  1498  06BE  07AE               	addwf	(?_printf)
  1499                           
  1500  06BF  30BE               	movlw	((STR_8-__stringbase))&0ffh
  1501  06C0  120A  118A  2015   	fcall	_printf
              120A  118A         
  1502                           	line	103
  1503                           	
  1504  06C5                     l5321:	
  1505                           ;Automated Solar Panel Orientation Setter.c: 103: clr_display();
  1506  06C5  120A  158A  2246   	fcall	_clr_display
              120A  118A         
  1507                           	line	104
  1508                           	
  1509  06CA                     l5323:	
  1510                           ;Automated Solar Panel Orientation Setter.c: 104: state = 1;
  1511  06CA  1283               	bcf	status, 5	;RP0=0, select bank0
  1512  06CB  1303               	bcf	status, 6	;RP1=0, select bank0
  1513  06CC  01E1               	clrf	(_state)
  1514  06CD  1403               	bsf	status,0
  1515  06CE  0DE1               	rlf	(_state),f
  1516  06CF  2EEB               	goto	l5335
  1517                           	line	105
  1518                           ;Automated Solar Panel Orientation Setter.c: 105: while(1){
  1519                           	
  1520  06D0                     l874:	
  1521                           	line	106
  1522                           ;Automated Solar Panel Orientation Setter.c: 106: switch (state){
  1523  06D0  2EEB               	goto	l5335
  1524                           	line	111
  1525                           ;Automated Solar Panel Orientation Setter.c: 111: case 1:
  1526                           	
  1527  06D1                     l876:	
  1528                           	line	116
  1529                           	
  1530  06D1                     l5325:	
  1531                           ;Automated Solar Panel Orientation Setter.c: 116: state = 10;
  1532  06D1  300A               	movlw	(0Ah)
  1533  06D2  00C3               	movwf	(??_main+0)+0
  1534  06D3  0843               	movf	(??_main+0)+0,w
  1535  06D4  00E1               	movwf	(_state)
  1536                           	line	117
  1537                           ;Automated Solar Panel Orientation Setter.c: 117: break;
  1538  06D5  2EEB               	goto	l5335
  1539                           	line	118
  1540                           ;Automated Solar Panel Orientation Setter.c: 118: case 10 :
  1541                           	
  1542  06D6                     l878:	
  1543                           	line	119
  1544                           ;Automated Solar Panel Orientation Setter.c: 119: RC1 = 1;
  1545  06D6  1487               	bsf	(57/8),(57)&7
  1546                           	line	120
  1547                           	
  1548  06D7                     l5327:	
  1549                           ;Automated Solar Panel Orientation Setter.c: 120: Serial_Print( "Switched to Mode 1" );
  1550  06D7  301F               	movlw	((STR_9-__stringbase))&0ffh
  1551  06D8  120A  158A  22DB   	fcall	_Serial_Print
              120A  118A         
  1552                           	line	121
  1553                           	
  1554  06DD                     l5329:	
  1555                           ;Automated Solar Panel Orientation Setter.c: 121: bdnu_unid();
  1556  06DD  120A  158A  2420   	fcall	_bdnu_unid
              120A  118A         
  1557                           	line	122
  1558                           	
  1559  06E2                     l5331:	
  1560                           ;Automated Solar Panel Orientation Setter.c: 122: RC1 = 0;
  1561  06E2  1283               	bcf	status, 5	;RP0=0, select bank0
  1562  06E3  1303               	bcf	status, 6	;RP1=0, select bank0
  1563  06E4  1087               	bcf	(57/8),(57)&7
  1564                           	line	123
  1565                           ;Automated Solar Panel Orientation Setter.c: 123: break;
  1566  06E5  2EEB               	goto	l5335
  1567                           	line	126
  1568                           ;Automated Solar Panel Orientation Setter.c: 126: case 2 :
  1569                           	
  1570  06E6                     l879:	
  1571                           	line	128
  1572                           ;Automated Solar Panel Orientation Setter.c: 128: break;
  1573  06E6  2EEB               	goto	l5335
  1574                           	line	129
  1575                           ;Automated Solar Panel Orientation Setter.c: 129: case 20 :
  1576                           	
  1577  06E7                     l880:	
  1578                           	line	131
  1579                           ;Automated Solar Panel Orientation Setter.c: 131: break;
  1580  06E7  2EEB               	goto	l5335
  1581                           	line	132
  1582                           ;Automated Solar Panel Orientation Setter.c: 132: case 3 :
  1583                           	
  1584  06E8                     l881:	
  1585  06E8  2EEB               	goto	l5335
  1586                           	line	134
  1587                           	
  1588  06E9                     l882:	
  1589                           	line	136
  1590                           ;Automated Solar Panel Orientation Setter.c: 134: case 30 :
  1591                           ;Automated Solar Panel Orientation Setter.c: 136: break;
  1592  06E9  2EEB               	goto	l5335
  1593                           	line	140
  1594                           	
  1595  06EA                     l5333:	
  1596                           ;Automated Solar Panel Orientation Setter.c: 140: }
  1597  06EA  2EEB               	goto	l5335
  1598                           	line	106
  1599                           	
  1600  06EB                     l875:	
  1601                           	
  1602  06EB                     l5335:	
  1603  06EB  0861               	movf	(_state),w
  1604                           	; Switch size 1, requested type "space"
  1605                           ; Number of cases is 6, Range of values is 1 to 30
  1606                           ; switch strategies available:
  1607                           ; Name         Instructions Cycles
  1608                           ; simple_byte           19    10 (average)
  1609                           ; direct_byte          101    11 (fixed)
  1610                           ; jumptable            263     9 (fixed)
  1611                           ;	Chosen strategy is simple_byte
  1612                           
  1613                           	opt asmopt_off
  1614  06EC  3A01               	xorlw	1^0	; case 1
  1615  06ED  1903               	skipnz
  1616  06EE  2ED1               	goto	l5325
  1617  06EF  3A03               	xorlw	2^1	; case 2
  1618  06F0  1903               	skipnz
  1619  06F1  2EEB               	goto	l5335
  1620  06F2  3A01               	xorlw	3^2	; case 3
  1621  06F3  1903               	skipnz
  1622  06F4  2EEB               	goto	l5335
  1623  06F5  3A09               	xorlw	10^3	; case 10
  1624  06F6  1903               	skipnz
  1625  06F7  2ED6               	goto	l878
  1626  06F8  3A1E               	xorlw	20^10	; case 20
  1627  06F9  1903               	skipnz
  1628  06FA  2EEB               	goto	l5335
  1629  06FB  3A0A               	xorlw	30^20	; case 30
  1630  06FC  1903               	skipnz
  1631  06FD  2EEB               	goto	l5335
  1632  06FE  2EEB               	goto	l5335
  1633                           	opt asmopt_on
  1634                           
  1635                           	line	140
  1636                           	
  1637  06FF                     l877:	
  1638  06FF  2EEB               	goto	l5335
  1639                           	line	141
  1640                           	
  1641  0700                     l883:	
  1642                           	line	105
  1643  0700  2EEB               	goto	l5335
  1644                           	
  1645  0701                     l884:	
  1646                           	line	142
  1647                           	
  1648  0701                     l885:	
  1649                           	global	start
  1650  0701  120A  118A  2812   	ljmp	start
  1651                           	opt stack 0
  1652                           GLOBAL	__end_of_main
  1653  0704                     	__end_of_main:
  1654 ;; =============== function _main ends ============
  1655                           
  1656                           	signat	_main,88
  1657                           	global	_printf
  1658                           psect	text637,local,class=CODE,delta=2
  1659                           global __ptext637
  1660  0015                     __ptext637:
  1661                           
  1662 ;; *************** function _printf *****************
  1663 ;; Defined at:
  1664 ;;		line 461 in file "C:\Program Files (x86)\HI-TECH Software\PICC\9.83\lib\doprnt.c"
  1665 ;; Parameters:    Size  Location     Type
  1666 ;;  f               1    wreg     PTR const unsigned char 
  1667 ;;		 -> STR_8(17), STR_7(17), STR_6(17), STR_5(17), 
  1668 ;;		 -> STR_4(18), STR_3(18), STR_2(18), STR_1(18), 
  1669 ;; Auto vars:     Size  Location     Type
  1670 ;;  f               1   25[BANK0 ] PTR const unsigned char 
  1671 ;;		 -> STR_8(17), STR_7(17), STR_6(17), STR_5(17), 
  1672 ;;		 -> STR_4(18), STR_3(18), STR_2(18), STR_1(18), 
  1673 ;;  _val            3   29[BANK0 ] struct .
  1674 ;;  flag            2   33[BANK0 ] unsigned short 
  1675 ;;  width           2   27[BANK0 ] int 
  1676 ;;  c               1   32[BANK0 ] char 
  1677 ;;  prec            1   26[BANK0 ] char 
  1678 ;;  ap              1   24[BANK0 ] PTR void [1]
  1679 ;;		 -> ?_printf(2), 
  1680 ;; Return value:  Size  Location     Type
  1681 ;;                  2   14[BANK0 ] int 
  1682 ;; Registers used:
  1683 ;;		wreg, fsr0l, fsr0h, status,2, status,0, btemp+1, pclath, cstack
  1684 ;; Tracked objects:
  1685 ;;		On entry : 0/0
  1686 ;;		On exit  : 0/0
  1687 ;;		Unchanged: 0/0
  1688 ;; Data sizes:     COMMON   BANK0   BANK1   BANK3   BANK2
  1689 ;;      Params:         0       2       0       0       0
  1690 ;;      Locals:         0      16       0       0       0
  1691 ;;      Temps:          0       3       0       0       0
  1692 ;;      Totals:         0      21       0       0       0
  1693 ;;Total ram usage:       21 bytes
  1694 ;; Hardware stack levels used:    1
  1695 ;; Hardware stack levels required when called:    5
  1696 ;; This function calls:
  1697 ;;		_putch
  1698 ;;		_isdigit
  1699 ;;		___wmul
  1700 ;;		___bmul
  1701 ;;		___lwdiv
  1702 ;;		___lwmod
  1703 ;; This function is called by:
  1704 ;;		_main
  1705 ;; This function uses a non-reentrant model
  1706 ;;
  1707                           psect	text637
  1708                           	file	"C:\Program Files (x86)\HI-TECH Software\PICC\9.83\sources\doprnt.c"
  1709                           	line	461
  1710                           	global	__size_of_printf
  1711  05C9                     	__size_of_printf	equ	__end_of_printf-_printf
  1712                           	
  1713  0015                     _printf:	
  1714                           	opt	stack 2
  1715                           ; Regs used in _printf: [wreg-fsr0h+status,2+status,0+btemp+1+pclath+cstack]
  1716                           ;printf@f stored from wreg
  1717                           	line	537
  1718  0015  1283               	bcf	status, 5	;RP0=0, select bank0
  1719  0016  1303               	bcf	status, 6	;RP1=0, select bank0
  1720  0017  00B9               	movwf	(printf@f)
  1721                           	
  1722  0018                     l4987:	
  1723  0018  302E               	movlw	(?_printf)&0ffh
  1724  0019  00B0               	movwf	(??_printf+0)+0
  1725  001A  0830               	movf	(??_printf+0)+0,w
  1726  001B  00B8               	movwf	(printf@ap)
  1727                           	line	540
  1728  001C  2DC7               	goto	l5281
  1729                           	
  1730  001D                     l980:	
  1731                           	line	542
  1732                           	
  1733  001D                     l4989:	
  1734  001D  0840               	movf	(printf@c),w
  1735  001E  3A25               	xorlw	025h
  1736  001F  1903               	skipnz
  1737  0020  2822               	goto	u6661
  1738  0021  2823               	goto	u6660
  1739  0022                     u6661:
  1740  0022  282A               	goto	l4993
  1741  0023                     u6660:
  1742                           	line	545
  1743                           	
  1744  0023                     l4991:	
  1745  0023  0840               	movf	(printf@c),w
  1746  0024  120A  158A  21EC   	fcall	_putch
              120A  118A         
  1747                           	line	546
  1748  0029  2DC7               	goto	l5281
  1749                           	line	547
  1750                           	
  1751  002A                     l981:	
  1752                           	line	550
  1753                           	
  1754  002A                     l4993:	
  1755  002A  1283               	bcf	status, 5	;RP0=0, select bank0
  1756  002B  1303               	bcf	status, 6	;RP1=0, select bank0
  1757  002C  01BB               	clrf	(printf@width)
  1758  002D  01BC               	clrf	(printf@width+1)
  1759                           	line	552
  1760  002E  01C1               	clrf	(printf@flag)
  1761  002F  01C2               	clrf	(printf@flag+1)
  1762  0030  284B               	goto	l5005
  1763                           	line	554
  1764                           	
  1765  0031                     l982:	
  1766                           	line	555
  1767  0031  284B               	goto	l5005
  1768                           	line	557
  1769                           	
  1770  0032                     l984:	
  1771                           	line	558
  1772  0032  15C1               	bsf	(printf@flag)+(3/8),(3)&7
  1773                           	line	559
  1774                           	
  1775  0033                     l4995:	
  1776  0033  3001               	movlw	(01h)
  1777  0034  00B0               	movwf	(??_printf+0)+0
  1778  0035  0830               	movf	(??_printf+0)+0,w
  1779  0036  07B9               	addwf	(printf@f),f
  1780                           	line	560
  1781  0037  284B               	goto	l5005
  1782                           	line	564
  1783                           	
  1784  0038                     l986:	
  1785                           	line	565
  1786  0038  1441               	bsf	(printf@flag)+(0/8),(0)&7
  1787                           	line	566
  1788                           	
  1789  0039                     l4997:	
  1790  0039  3001               	movlw	(01h)
  1791  003A  00B0               	movwf	(??_printf+0)+0
  1792  003B  0830               	movf	(??_printf+0)+0,w
  1793  003C  07B9               	addwf	(printf@f),f
  1794                           	line	567
  1795  003D  284B               	goto	l5005
  1796                           	line	577
  1797                           	
  1798  003E                     l987:	
  1799                           	line	578
  1800  003E  15C2               	bsf	(printf@flag)+(11/8),(11)&7
  1801                           	line	579
  1802                           	
  1803  003F                     l4999:	
  1804  003F  3001               	movlw	(01h)
  1805  0040  00B0               	movwf	(??_printf+0)+0
  1806  0041  0830               	movf	(??_printf+0)+0,w
  1807  0042  07B9               	addwf	(printf@f),f
  1808                           	line	580
  1809  0043  284B               	goto	l5005
  1810                           	line	583
  1811                           	
  1812  0044                     l988:	
  1813                           	line	584
  1814  0044  1541               	bsf	(printf@flag)+(2/8),(2)&7
  1815                           	line	585
  1816                           	
  1817  0045                     l5001:	
  1818  0045  3001               	movlw	(01h)
  1819  0046  00B0               	movwf	(??_printf+0)+0
  1820  0047  0830               	movf	(??_printf+0)+0,w
  1821  0048  07B9               	addwf	(printf@f),f
  1822                           	line	586
  1823  0049  284B               	goto	l5005
  1824                           	line	588
  1825                           	
  1826  004A                     l5003:	
  1827  004A  2861               	goto	l990
  1828                           	line	555
  1829                           	
  1830  004B                     l983:	
  1831                           	
  1832  004B                     l5005:	
  1833  004B  0839               	movf	(printf@f),w
  1834  004C  0084               	movwf	fsr0
  1835  004D  120A  158A  2000   	fcall	stringdir
              120A  118A         
  1836                           	; Switch size 1, requested type "space"
  1837                           ; Number of cases is 4, Range of values is 32 to 48
  1838                           ; switch strategies available:
  1839                           ; Name         Instructions Cycles
  1840                           ; simple_byte           13     7 (average)
  1841                           ; direct_byte           62    11 (fixed)
  1842                           ; jumptable            263     9 (fixed)
  1843                           ;	Chosen strategy is simple_byte
  1844                           
  1845                           	opt asmopt_off
  1846  0052  3A20               	xorlw	32^0	; case 32
  1847  0053  1903               	skipnz
  1848  0054  2838               	goto	l986
  1849  0055  3A03               	xorlw	35^32	; case 35
  1850  0056  1903               	skipnz
  1851  0057  283E               	goto	l987
  1852  0058  3A0E               	xorlw	45^35	; case 45
  1853  0059  1903               	skipnz
  1854  005A  2832               	goto	l984
  1855  005B  3A1D               	xorlw	48^45	; case 48
  1856  005C  1903               	skipnz
  1857  005D  2844               	goto	l988
  1858  005E  2861               	goto	l990
  1859                           	opt asmopt_on
  1860                           
  1861                           	line	588
  1862                           	
  1863  005F                     l989:	
  1864                           	line	589
  1865  005F  2861               	goto	l990
  1866                           	line	590
  1867                           	
  1868  0060                     l985:	
  1869  0060  284B               	goto	l5005
  1870                           	
  1871  0061                     l990:	
  1872                           	line	597
  1873  0061  1DC1               	btfss	(printf@flag),(3)&7
  1874  0062  2864               	goto	u6671
  1875  0063  2865               	goto	u6670
  1876  0064                     u6671:
  1877  0064  286A               	goto	l5009
  1878  0065                     u6670:
  1879                           	line	598
  1880                           	
  1881  0065                     l5007:	
  1882  0065  30FB               	movlw	low(0FFFBh)
  1883  0066  05C1               	andwf	(printf@flag),f
  1884  0067  30FF               	movlw	high(0FFFBh)
  1885  0068  05C2               	andwf	(printf@flag+1),f
  1886  0069  286A               	goto	l5009
  1887                           	
  1888  006A                     l991:	
  1889                           	line	601
  1890                           	
  1891  006A                     l5009:	
  1892  006A  0839               	movf	(printf@f),w
  1893  006B  0084               	movwf	fsr0
  1894  006C  120A  158A  2000   	fcall	stringdir
              120A  118A         
  1895  0071  120A  158A  21BB   	fcall	_isdigit
              120A  118A         
  1896  0076  1C03               	btfss	status,0
  1897  0077  2879               	goto	u6681
  1898  0078  287A               	goto	u6680
  1899  0079                     u6681:
  1900  0079  28BE               	goto	l5019
  1901  007A                     u6680:
  1902                           	line	602
  1903                           	
  1904  007A                     l5011:	
  1905  007A  1283               	bcf	status, 5	;RP0=0, select bank0
  1906  007B  1303               	bcf	status, 6	;RP1=0, select bank0
  1907  007C  01BB               	clrf	(printf@width)
  1908  007D  01BC               	clrf	(printf@width+1)
  1909  007E  287F               	goto	l5013
  1910                           	line	603
  1911                           	
  1912  007F                     l993:	
  1913                           	line	604
  1914                           	
  1915  007F                     l5013:	
  1916  007F  1283               	bcf	status, 5	;RP0=0, select bank0
  1917  0080  1303               	bcf	status, 6	;RP1=0, select bank0
  1918  0081  083C               	movf	(printf@width+1),w
  1919  0082  01A1               	clrf	(?___wmul+1)
  1920  0083  07A1               	addwf	(?___wmul+1)
  1921  0084  083B               	movf	(printf@width),w
  1922  0085  01A0               	clrf	(?___wmul)
  1923  0086  07A0               	addwf	(?___wmul)
  1924                           
  1925  0087  300A               	movlw	low(0Ah)
  1926  0088  00A2               	movwf	0+(?___wmul)+02h
  1927  0089  3000               	movlw	high(0Ah)
  1928  008A  00A3               	movwf	(0+(?___wmul)+02h)+1
  1929  008B  120A  158A  22AF   	fcall	___wmul
              120A  118A         
  1930  0090  1283               	bcf	status, 5	;RP0=0, select bank0
  1931  0091  1303               	bcf	status, 6	;RP1=0, select bank0
  1932  0092  0839               	movf	(printf@f),w
  1933  0093  0084               	movwf	fsr0
  1934  0094  120A  158A  2000   	fcall	stringdir
              120A  118A         
  1935  0099  0720               	addwf	(0+(?___wmul)),w
  1936  009A  00B0               	movwf	(??_printf+0)+0
  1937  009B  3000               	movlw	0
  1938  009C  1803               	skipnc
  1939  009D  3001               	movlw	1
  1940  009E  0721               	addwf	(1+(?___wmul)),w
  1941  009F  00B1               	movwf	1+(??_printf+0)+0
  1942  00A0  0830               	movf	0+(??_printf+0)+0,w
  1943  00A1  3ED0               	addlw	low(0FFD0h)
  1944  00A2  00BB               	movwf	(printf@width)
  1945  00A3  0831               	movf	1+(??_printf+0)+0,w
  1946  00A4  1803               	skipnc
  1947  00A5  3E01               	addlw	1
  1948  00A6  3EFF               	addlw	high(0FFD0h)
  1949  00A7  00BC               	movwf	1+(printf@width)
  1950                           	
  1951  00A8                     l5015:	
  1952  00A8  3001               	movlw	(01h)
  1953  00A9  00B0               	movwf	(??_printf+0)+0
  1954  00AA  0830               	movf	(??_printf+0)+0,w
  1955  00AB  07B9               	addwf	(printf@f),f
  1956                           	line	605
  1957                           	
  1958  00AC                     l5017:	
  1959  00AC  0839               	movf	(printf@f),w
  1960  00AD  0084               	movwf	fsr0
  1961  00AE  120A  158A  2000   	fcall	stringdir
              120A  118A         
  1962  00B3  120A  158A  21BB   	fcall	_isdigit
              120A  118A         
  1963  00B8  1803               	btfsc	status,0
  1964  00B9  28BB               	goto	u6691
  1965  00BA  28BC               	goto	u6690
  1966  00BB                     u6691:
  1967  00BB  287F               	goto	l5013
  1968  00BC                     u6690:
  1969  00BC  28DE               	goto	l5027
  1970                           	
  1971  00BD                     l994:	
  1972                           	line	607
  1973  00BD  28DE               	goto	l5027
  1974                           	
  1975  00BE                     l992:	
  1976                           	
  1977  00BE                     l5019:	
  1978  00BE  1283               	bcf	status, 5	;RP0=0, select bank0
  1979  00BF  1303               	bcf	status, 6	;RP1=0, select bank0
  1980  00C0  0839               	movf	(printf@f),w
  1981  00C1  0084               	movwf	fsr0
  1982  00C2  120A  158A  2000   	fcall	stringdir
              120A  118A         
  1983  00C7  3A2A               	xorlw	02Ah
  1984  00C8  1D03               	skipz
  1985  00C9  28CB               	goto	u6701
  1986  00CA  28CC               	goto	u6700
  1987  00CB                     u6701:
  1988  00CB  28DE               	goto	l5027
  1989  00CC                     u6700:
  1990                           	line	608
  1991                           	
  1992  00CC                     l5021:	
  1993  00CC  0838               	movf	(printf@ap),w
  1994  00CD  0084               	movwf	fsr0
  1995  00CE  1383               	bcf	status, 7	;select IRP bank0
  1996  00CF  0800               	movf	indf,w
  1997  00D0  00BB               	movwf	(printf@width)
  1998  00D1  0A84               	incf	fsr0,f
  1999  00D2  0800               	movf	indf,w
  2000  00D3  00BC               	movwf	(printf@width+1)
  2001                           	
  2002  00D4                     l5023:	
  2003  00D4  3002               	movlw	(02h)
  2004  00D5  00B0               	movwf	(??_printf+0)+0
  2005  00D6  0830               	movf	(??_printf+0)+0,w
  2006  00D7  07B8               	addwf	(printf@ap),f
  2007                           	line	609
  2008                           	
  2009  00D8                     l5025:	
  2010  00D8  3001               	movlw	(01h)
  2011  00D9  00B0               	movwf	(??_printf+0)+0
  2012  00DA  0830               	movf	(??_printf+0)+0,w
  2013  00DB  07B9               	addwf	(printf@f),f
  2014  00DC  28DE               	goto	l5027
  2015                           	line	611
  2016                           	
  2017  00DD                     l996:	
  2018  00DD  28DE               	goto	l5027
  2019                           	line	614
  2020                           	
  2021  00DE                     l995:	
  2022                           	
  2023  00DE                     l5027:	
  2024  00DE  1283               	bcf	status, 5	;RP0=0, select bank0
  2025  00DF  1303               	bcf	status, 6	;RP1=0, select bank0
  2026  00E0  0839               	movf	(printf@f),w
  2027  00E1  0084               	movwf	fsr0
  2028  00E2  120A  158A  2000   	fcall	stringdir
              120A  118A         
  2029  00E7  3A2E               	xorlw	02Eh
  2030  00E8  1D03               	skipz
  2031  00E9  28EB               	goto	u6711
  2032  00EA  28EC               	goto	u6710
  2033  00EB                     u6711:
  2034  00EB  2942               	goto	l997
  2035  00EC                     u6710:
  2036                           	line	615
  2037                           	
  2038  00EC                     l5029:	
  2039  00EC  1742               	bsf	(printf@flag)+(14/8),(14)&7
  2040                           	line	616
  2041                           	
  2042  00ED                     l5031:	
  2043  00ED  3001               	movlw	(01h)
  2044  00EE  00B0               	movwf	(??_printf+0)+0
  2045  00EF  0830               	movf	(??_printf+0)+0,w
  2046  00F0  07B9               	addwf	(printf@f),f
  2047                           	line	618
  2048                           	
  2049  00F1                     l5033:	
  2050  00F1  0839               	movf	(printf@f),w
  2051  00F2  0084               	movwf	fsr0
  2052  00F3  120A  158A  2000   	fcall	stringdir
              120A  118A         
  2053  00F8  3A2A               	xorlw	02Ah
  2054  00F9  1D03               	skipz
  2055  00FA  28FC               	goto	u6721
  2056  00FB  28FD               	goto	u6720
  2057  00FC                     u6721:
  2058  00FC  290D               	goto	l998
  2059  00FD                     u6720:
  2060                           	line	619
  2061                           	
  2062  00FD                     l5035:	
  2063  00FD  0838               	movf	(printf@ap),w
  2064  00FE  0084               	movwf	fsr0
  2065  00FF  1383               	bcf	status, 7	;select IRP bank0
  2066  0100  0800               	movf	indf,w
  2067  0101  00B0               	movwf	(??_printf+0)+0
  2068  0102  0830               	movf	(??_printf+0)+0,w
  2069  0103  00BA               	movwf	(printf@prec)
  2070                           	
  2071  0104                     l5037:	
  2072  0104  3002               	movlw	(02h)
  2073  0105  00B0               	movwf	(??_printf+0)+0
  2074  0106  0830               	movf	(??_printf+0)+0,w
  2075  0107  07B8               	addwf	(printf@ap),f
  2076                           	line	620
  2077                           	
  2078  0108                     l5039:	
  2079  0108  3001               	movlw	(01h)
  2080  0109  00B0               	movwf	(??_printf+0)+0
  2081  010A  0830               	movf	(??_printf+0)+0,w
  2082  010B  07B9               	addwf	(printf@f),f
  2083                           	line	621
  2084  010C  29F9               	goto	l5091
  2085                           	
  2086  010D                     l998:	
  2087                           	line	624
  2088  010D  01BA               	clrf	(printf@prec)
  2089                           	line	625
  2090  010E  292F               	goto	l5045
  2091                           	
  2092  010F                     l1001:	
  2093                           	line	626
  2094                           	
  2095  010F                     l5041:	
  2096  010F  300A               	movlw	(0Ah)
  2097  0110  1283               	bcf	status, 5	;RP0=0, select bank0
  2098  0111  1303               	bcf	status, 6	;RP1=0, select bank0
  2099  0112  00B0               	movwf	(??_printf+0)+0
  2100  0113  0830               	movf	(??_printf+0)+0,w
  2101  0114  00A0               	movwf	(?___bmul)
  2102  0115  083A               	movf	(printf@prec),w
  2103  0116  120A  158A  21D2   	fcall	___bmul
              120A  118A         
  2104  011B  1283               	bcf	status, 5	;RP0=0, select bank0
  2105  011C  1303               	bcf	status, 6	;RP1=0, select bank0
  2106  011D  00B1               	movwf	(??_printf+1)+0
  2107  011E  0839               	movf	(printf@f),w
  2108  011F  0084               	movwf	fsr0
  2109  0120  120A  158A  2000   	fcall	stringdir
              120A  118A         
  2110  0125  0731               	addwf	0+(??_printf+1)+0,w
  2111  0126  3ED0               	addlw	-48
  2112  0127  00B2               	movwf	(??_printf+2)+0
  2113  0128  0832               	movf	(??_printf+2)+0,w
  2114  0129  00BA               	movwf	(printf@prec)
  2115                           	
  2116  012A                     l5043:	
  2117  012A  3001               	movlw	(01h)
  2118  012B  00B0               	movwf	(??_printf+0)+0
  2119  012C  0830               	movf	(??_printf+0)+0,w
  2120  012D  07B9               	addwf	(printf@f),f
  2121  012E  292F               	goto	l5045
  2122                           	
  2123  012F                     l1000:	
  2124                           	line	625
  2125                           	
  2126  012F                     l5045:	
  2127  012F  0839               	movf	(printf@f),w
  2128  0130  0084               	movwf	fsr0
  2129  0131  120A  158A  2000   	fcall	stringdir
              120A  118A         
  2130  0136  120A  158A  21BB   	fcall	_isdigit
              120A  118A         
  2131  013B  1803               	btfsc	status,0
  2132  013C  293E               	goto	u6731
  2133  013D  293F               	goto	u6730
  2134  013E                     u6731:
  2135  013E  290F               	goto	l5041
  2136  013F                     u6730:
  2137  013F  29F9               	goto	l5091
  2138                           	
  2139  0140                     l1002:	
  2140  0140  29F9               	goto	l5091
  2141                           	line	627
  2142                           	
  2143  0141                     l999:	
  2144                           	line	628
  2145  0141  29F9               	goto	l5091
  2146                           	
  2147  0142                     l997:	
  2148                           	line	629
  2149  0142  01BA               	clrf	(printf@prec)
  2150  0143  29F9               	goto	l5091
  2151                           	line	633
  2152                           	
  2153  0144                     l1003:	
  2154                           	line	638
  2155  0144  29F9               	goto	l5091
  2156                           	line	640
  2157                           	
  2158  0145                     l1005:	
  2159                           	line	641
  2160  0145  2DDD               	goto	l1109
  2161                           	line	692
  2162                           	
  2163  0146                     l1007:	
  2164                           	line	694
  2165  0146  1741               	bsf	(printf@flag)+(6/8),(6)&7
  2166                           	line	696
  2167  0147  2A1F               	goto	l5093
  2168                           	line	700
  2169                           	
  2170  0148                     l1009:	
  2171  0148  2A1F               	goto	l5093
  2172                           	line	701
  2173                           	
  2174  0149                     l1010:	
  2175                           	line	702
  2176  0149  2A1F               	goto	l5093
  2177                           	line	715
  2178                           	
  2179  014A                     l1011:	
  2180                           	line	717
  2181  014A  16C1               	bsf	(printf@flag)+(5/8),(5)&7
  2182                           	line	721
  2183                           	
  2184  014B                     l1012:	
  2185                           	line	724
  2186  014B  17C1               	bsf	(printf@flag)+(7/8),(7)&7
  2187                           	line	726
  2188  014C  2A1F               	goto	l5093
  2189                           	line	753
  2190                           	
  2191  014D                     l1013:	
  2192                           	line	756
  2193                           	
  2194  014D                     l5047:	
  2195  014D  083A               	movf	(printf@prec),w
  2196  014E  1D03               	skipz
  2197  014F  2951               	goto	u6740
  2198  0150  2966               	goto	l5053
  2199  0151                     u6740:
  2200                           	
  2201  0151                     l5049:	
  2202  0151  083A               	movf	(printf@prec),w
  2203  0152  00B0               	movwf	(??_printf+0)+0
  2204  0153  01B1               	clrf	(??_printf+0)+0+1
  2205  0154  1BB0               	btfsc	(??_printf+0)+0,7
  2206  0155  03B1               	decf	(??_printf+0)+0+1,f
  2207  0156  083F               	movf	1+(printf@_val)+01h,w
  2208  0157  0231               	subwf	1+(??_printf+0)+0,w
  2209  0158  1D03               	skipz
  2210  0159  295C               	goto	u6755
  2211  015A  083E               	movf	0+(printf@_val)+01h,w
  2212  015B  0230               	subwf	0+(??_printf+0)+0,w
  2213  015C                     u6755:
  2214  015C  1803               	skipnc
  2215  015D  295F               	goto	u6751
  2216  015E  2960               	goto	u6750
  2217  015F                     u6751:
  2218  015F  2966               	goto	l5053
  2219  0160                     u6750:
  2220                           	line	757
  2221                           	
  2222  0160                     l5051:	
  2223  0160  083A               	movf	(printf@prec),w
  2224  0161  00BE               	movwf	0+(printf@_val)+01h
  2225  0162  01BF               	clrf	1+(printf@_val)+01h
  2226  0163  1BBE               	btfsc	0+(printf@_val)+01h,7
  2227  0164  03BF               	decf	1+(printf@_val)+01h,f
  2228  0165  2966               	goto	l5053
  2229                           	
  2230  0166                     l1014:	
  2231                           	line	760
  2232                           	
  2233  0166                     l5053:	
  2234  0166  083C               	movf	(printf@width+1),w
  2235  0167  023F               	subwf	1+(printf@_val)+01h,w
  2236  0168  1D03               	skipz
  2237  0169  296C               	goto	u6765
  2238  016A  083B               	movf	(printf@width),w
  2239  016B  023E               	subwf	0+(printf@_val)+01h,w
  2240  016C                     u6765:
  2241  016C  1803               	skipnc
  2242  016D  296F               	goto	u6761
  2243  016E  2970               	goto	u6760
  2244  016F                     u6761:
  2245  016F  2977               	goto	l5057
  2246  0170                     u6760:
  2247                           	line	761
  2248                           	
  2249  0170                     l5055:	
  2250  0170  083E               	movf	0+(printf@_val)+01h,w
  2251  0171  02BB               	subwf	(printf@width),f
  2252  0172  083F               	movf	1+(printf@_val)+01h,w
  2253  0173  1C03               	skipc
  2254  0174  03BC               	decf	(printf@width+1),f
  2255  0175  02BC               	subwf	(printf@width+1),f
  2256  0176  297A               	goto	l5059
  2257                           	line	762
  2258                           	
  2259  0177                     l1015:	
  2260                           	line	763
  2261                           	
  2262  0177                     l5057:	
  2263  0177  01BB               	clrf	(printf@width)
  2264  0178  01BC               	clrf	(printf@width+1)
  2265  0179  297A               	goto	l5059
  2266                           	
  2267  017A                     l1016:	
  2268                           	line	765
  2269                           	
  2270  017A                     l5059:	
  2271  017A  19C1               	btfsc	(printf@flag),(3)&7
  2272  017B  297D               	goto	u6771
  2273  017C  297E               	goto	u6770
  2274  017D                     u6771:
  2275  017D  29AC               	goto	l5071
  2276  017E                     u6770:
  2277  017E  2987               	goto	l5065
  2278                           	line	767
  2279                           	
  2280  017F                     l5061:	
  2281  017F  2987               	goto	l5065
  2282                           	
  2283  0180                     l1019:	
  2284                           	line	768
  2285                           	
  2286  0180                     l5063:	
  2287  0180  3020               	movlw	(020h)
  2288  0181  120A  158A  21EC   	fcall	_putch
              120A  118A         
  2289  0186  2987               	goto	l5065
  2290                           	
  2291  0187                     l1018:	
  2292                           	line	767
  2293                           	
  2294  0187                     l5065:	
  2295  0187  30FF               	movlw	low(-1)
  2296  0188  1283               	bcf	status, 5	;RP0=0, select bank0
  2297  0189  1303               	bcf	status, 6	;RP1=0, select bank0
  2298  018A  07BB               	addwf	(printf@width),f
  2299  018B  1803               	skipnc
  2300  018C  0ABC               	incf	(printf@width+1),f
  2301  018D  30FF               	movlw	high(-1)
  2302  018E  07BC               	addwf	(printf@width+1),f
  2303  018F  30FF               	movlw	high(-1)
  2304  0190  063C               	xorwf	((printf@width+1)),w
  2305  0191  1D03               	skipz
  2306  0192  2995               	goto	u6785
  2307  0193  30FF               	movlw	low(-1)
  2308  0194  063B               	xorwf	((printf@width)),w
  2309  0195                     u6785:
  2310                           
  2311  0195  1D03               	skipz
  2312  0196  2998               	goto	u6781
  2313  0197  2999               	goto	u6780
  2314  0198                     u6781:
  2315  0198  2980               	goto	l5063
  2316  0199                     u6780:
  2317  0199  29AC               	goto	l5071
  2318                           	
  2319  019A                     l1020:	
  2320  019A  29AC               	goto	l5071
  2321                           	line	768
  2322                           	
  2323  019B                     l1017:	
  2324                           	line	770
  2325  019B  29AC               	goto	l5071
  2326                           	
  2327  019C                     l1022:	
  2328                           	line	771
  2329                           	
  2330  019C                     l5067:	
  2331  019C  083D               	movf	(printf@_val),w
  2332  019D  0084               	movwf	fsr0
  2333  019E  1383               	bcf	status, 7	;select IRP bank0
  2334  019F  0800               	movf	indf,w
  2335  01A0  120A  158A  21EC   	fcall	_putch
              120A  118A         
  2336                           	
  2337  01A5                     l5069:	
  2338  01A5  3001               	movlw	(01h)
  2339  01A6  1283               	bcf	status, 5	;RP0=0, select bank0
  2340  01A7  1303               	bcf	status, 6	;RP1=0, select bank0
  2341  01A8  00B0               	movwf	(??_printf+0)+0
  2342  01A9  0830               	movf	(??_printf+0)+0,w
  2343  01AA  07BD               	addwf	(printf@_val),f
  2344  01AB  29AC               	goto	l5071
  2345                           	
  2346  01AC                     l1021:	
  2347                           	line	770
  2348                           	
  2349  01AC                     l5071:	
  2350  01AC  3001               	movlw	low(01h)
  2351  01AD  02BE               	subwf	0+(printf@_val)+01h,f
  2352  01AE  3000               	movlw	high(01h)
  2353  01AF  1C03               	skipc
  2354  01B0  03BF               	decf	1+(printf@_val)+01h,f
  2355  01B1  02BF               	subwf	1+(printf@_val)+01h,f
  2356  01B2  30FF               	movlw	high(0FFFFh)
  2357  01B3  063F               	xorwf	(1+(printf@_val)+01h),w
  2358  01B4  1D03               	skipz
  2359  01B5  29B8               	goto	u6795
  2360  01B6  30FF               	movlw	low(0FFFFh)
  2361  01B7  063E               	xorwf	(0+(printf@_val)+01h),w
  2362  01B8                     u6795:
  2363                           
  2364  01B8  1D03               	skipz
  2365  01B9  29BB               	goto	u6791
  2366  01BA  29BC               	goto	u6790
  2367  01BB                     u6791:
  2368  01BB  299C               	goto	l5067
  2369  01BC                     u6790:
  2370                           	
  2371  01BC                     l1023:	
  2372                           	line	773
  2373  01BC  1DC1               	btfss	(printf@flag),(3)&7
  2374  01BD  29BF               	goto	u6801
  2375  01BE  29C0               	goto	u6800
  2376  01BF                     u6801:
  2377  01BF  2DC7               	goto	l5281
  2378  01C0                     u6800:
  2379  01C0  29C9               	goto	l5077
  2380                           	line	774
  2381                           	
  2382  01C1                     l5073:	
  2383  01C1  29C9               	goto	l5077
  2384                           	
  2385  01C2                     l1026:	
  2386                           	line	775
  2387                           	
  2388  01C2                     l5075:	
  2389  01C2  3020               	movlw	(020h)
  2390  01C3  120A  158A  21EC   	fcall	_putch
              120A  118A         
  2391  01C8  29C9               	goto	l5077
  2392                           	
  2393  01C9                     l1025:	
  2394                           	line	774
  2395                           	
  2396  01C9                     l5077:	
  2397  01C9  30FF               	movlw	low(-1)
  2398  01CA  1283               	bcf	status, 5	;RP0=0, select bank0
  2399  01CB  1303               	bcf	status, 6	;RP1=0, select bank0
  2400  01CC  07BB               	addwf	(printf@width),f
  2401  01CD  1803               	skipnc
  2402  01CE  0ABC               	incf	(printf@width+1),f
  2403  01CF  30FF               	movlw	high(-1)
  2404  01D0  07BC               	addwf	(printf@width+1),f
  2405  01D1  30FF               	movlw	high(-1)
  2406  01D2  063C               	xorwf	((printf@width+1)),w
  2407  01D3  1D03               	skipz
  2408  01D4  29D7               	goto	u6815
  2409  01D5  30FF               	movlw	low(-1)
  2410  01D6  063B               	xorwf	((printf@width)),w
  2411  01D7                     u6815:
  2412                           
  2413  01D7  1D03               	skipz
  2414  01D8  29DA               	goto	u6811
  2415  01D9  29DB               	goto	u6810
  2416  01DA                     u6811:
  2417  01DA  29C2               	goto	l5075
  2418  01DB                     u6810:
  2419  01DB  2DC7               	goto	l5281
  2420                           	
  2421  01DC                     l1027:	
  2422  01DC  2DC7               	goto	l5281
  2423                           	line	775
  2424                           	
  2425  01DD                     l1024:	
  2426                           	line	777
  2427  01DD  2DC7               	goto	l5281
  2428                           	line	787
  2429                           	
  2430  01DE                     l1028:	
  2431                           	line	802
  2432                           	
  2433  01DE                     l5079:	
  2434  01DE  0838               	movf	(printf@ap),w
  2435  01DF  0084               	movwf	fsr0
  2436  01E0  1383               	bcf	status, 7	;select IRP bank0
  2437  01E1  0800               	movf	indf,w
  2438  01E2  00B0               	movwf	(??_printf+0)+0
  2439  01E3  0830               	movf	(??_printf+0)+0,w
  2440  01E4  00C0               	movwf	(printf@c)
  2441                           	
  2442  01E5                     l5081:	
  2443  01E5  3002               	movlw	(02h)
  2444  01E6  00B0               	movwf	(??_printf+0)+0
  2445  01E7  0830               	movf	(??_printf+0)+0,w
  2446  01E8  07B8               	addwf	(printf@ap),f
  2447  01E9  29EA               	goto	l5083
  2448                           	line	805
  2449                           	
  2450  01EA                     l1029:	
  2451                           	line	808
  2452                           	
  2453  01EA                     l5083:	
  2454  01EA  3040               	movlw	(printf@c)&0ffh
  2455  01EB  00B0               	movwf	(??_printf+0)+0
  2456  01EC  0830               	movf	(??_printf+0)+0,w
  2457  01ED  00BD               	movwf	(printf@_val)
  2458                           	line	809
  2459                           	
  2460  01EE                     l5085:	
  2461  01EE  3001               	movlw	low(01h)
  2462  01EF  00BE               	movwf	0+(printf@_val)+01h
  2463  01F0  3000               	movlw	high(01h)
  2464  01F1  00BF               	movwf	(0+(printf@_val)+01h)+1
  2465                           	line	810
  2466  01F2  294D               	goto	l5047
  2467                           	line	820
  2468                           	
  2469  01F3                     l1030:	
  2470                           	line	821
  2471                           	
  2472  01F3                     l5087:	
  2473  01F3  30C0               	movlw	low(0C0h)
  2474  01F4  04C1               	iorwf	(printf@flag),f
  2475  01F5  3000               	movlw	high(0C0h)
  2476  01F6  04C2               	iorwf	(printf@flag+1),f
  2477                           	line	822
  2478  01F7  2A1F               	goto	l5093
  2479                           	line	825
  2480                           	
  2481  01F8                     l5089:	
  2482  01F8  2A1F               	goto	l5093
  2483                           	line	638
  2484                           	
  2485  01F9                     l1004:	
  2486                           	
  2487  01F9                     l5091:	
  2488  01F9  3001               	movlw	01h
  2489  01FA  1283               	bcf	status, 5	;RP0=0, select bank0
  2490  01FB  1303               	bcf	status, 6	;RP1=0, select bank0
  2491  01FC  07B9               	addwf	(printf@f),f
  2492  01FD  30FF               	movlw	-01h
  2493  01FE  0739               	addwf	(printf@f),w
  2494  01FF  0084               	movwf	fsr0
  2495  0200  120A  158A  2000   	fcall	stringdir
              120A  118A         
  2496  0205  00C0               	movwf	(printf@c)
  2497                           	; Switch size 1, requested type "space"
  2498                           ; Number of cases is 8, Range of values is 0 to 120
  2499                           ; switch strategies available:
  2500                           ; Name         Instructions Cycles
  2501                           ; simple_byte           25    13 (average)
  2502                           ; jumptable            260     6 (fixed)
  2503                           ; rangetable           125     6 (fixed)
  2504                           ; spacedrange          248     9 (fixed)
  2505                           ; locatedrange         121     3 (fixed)
  2506                           ;	Chosen strategy is simple_byte
  2507                           
  2508                           	opt asmopt_off
  2509  0206  3A00               	xorlw	0^0	; case 0
  2510  0207  1903               	skipnz
  2511  0208  2DDD               	goto	l1109
  2512  0209  3A58               	xorlw	88^0	; case 88
  2513  020A  1903               	skipnz
  2514  020B  294A               	goto	l1011
  2515  020C  3A3B               	xorlw	99^88	; case 99
  2516  020D  1903               	skipnz
  2517  020E  29DE               	goto	l5079
  2518  020F  3A07               	xorlw	100^99	; case 100
  2519  0210  1903               	skipnz
  2520  0211  2A1F               	goto	l5093
  2521  0212  3A0D               	xorlw	105^100	; case 105
  2522  0213  1903               	skipnz
  2523  0214  2A1F               	goto	l5093
  2524  0215  3A06               	xorlw	111^105	; case 111
  2525  0216  1903               	skipnz
  2526  0217  2946               	goto	l1007
  2527  0218  3A1A               	xorlw	117^111	; case 117
  2528  0219  1903               	skipnz
  2529  021A  29F3               	goto	l5087
  2530  021B  3A0D               	xorlw	120^117	; case 120
  2531  021C  1903               	skipnz
  2532  021D  294B               	goto	l1012
  2533  021E  29EA               	goto	l5083
  2534                           	opt asmopt_on
  2535                           
  2536                           	line	825
  2537                           	
  2538  021F                     l1008:	
  2539                           	line	1246
  2540                           	
  2541  021F                     l5093:	
  2542  021F  30C0               	movlw	low(0C0h)
  2543  0220  0541               	andwf	(printf@flag),w
  2544  0221  00B0               	movwf	(??_printf+0)+0
  2545  0222  3000               	movlw	high(0C0h)
  2546  0223  0542               	andwf	(printf@flag+1),w
  2547  0224  00B1               	movwf	1+(??_printf+0)+0
  2548  0225  0831               	movf	1+(??_printf+0)+0,w
  2549  0226  0430               	iorwf	0+(??_printf+0)+0,w
  2550  0227  1D03               	skipz
  2551  0228  2A2A               	goto	u6821
  2552  0229  2A2B               	goto	u6820
  2553  022A                     u6821:
  2554  022A  2A46               	goto	l5105
  2555  022B                     u6820:
  2556                           	line	1254
  2557                           	
  2558  022B                     l5095:	
  2559  022B  0838               	movf	(printf@ap),w
  2560  022C  0084               	movwf	fsr0
  2561  022D  1383               	bcf	status, 7	;select IRP bank0
  2562  022E  0800               	movf	indf,w
  2563  022F  00BD               	movwf	(printf@_val)
  2564  0230  0A84               	incf	fsr0,f
  2565  0231  0800               	movf	indf,w
  2566  0232  00BE               	movwf	(printf@_val+1)
  2567                           	
  2568  0233                     l5097:	
  2569  0233  3002               	movlw	(02h)
  2570  0234  00B0               	movwf	(??_printf+0)+0
  2571  0235  0830               	movf	(??_printf+0)+0,w
  2572  0236  07B8               	addwf	(printf@ap),f
  2573                           	line	1256
  2574                           	
  2575  0237                     l5099:	
  2576  0237  1FBE               	btfss	(printf@_val+1),7
  2577  0238  2A3A               	goto	u6831
  2578  0239  2A3B               	goto	u6830
  2579  023A                     u6831:
  2580  023A  2A53               	goto	l5109
  2581  023B                     u6830:
  2582                           	line	1257
  2583                           	
  2584  023B                     l5101:	
  2585  023B  3003               	movlw	low(03h)
  2586  023C  04C1               	iorwf	(printf@flag),f
  2587  023D  3000               	movlw	high(03h)
  2588  023E  04C2               	iorwf	(printf@flag+1),f
  2589                           	line	1258
  2590                           	
  2591  023F                     l5103:	
  2592  023F  09BD               	comf	(printf@_val),f
  2593  0240  09BE               	comf	(printf@_val+1),f
  2594  0241  0ABD               	incf	(printf@_val),f
  2595  0242  1903               	skipnz
  2596  0243  0ABE               	incf	(printf@_val+1),f
  2597  0244  2A53               	goto	l5109
  2598                           	line	1259
  2599                           	
  2600  0245                     l1032:	
  2601                           	line	1261
  2602  0245  2A53               	goto	l5109
  2603                           	line	1263
  2604                           	
  2605  0246                     l1031:	
  2606                           	line	1281
  2607                           	
  2608  0246                     l5105:	
  2609  0246  0838               	movf	(printf@ap),w
  2610  0247  0084               	movwf	fsr0
  2611  0248  1383               	bcf	status, 7	;select IRP bank0
  2612  0249  0800               	movf	indf,w
  2613  024A  00BD               	movwf	(printf@_val)
  2614  024B  0A84               	incf	fsr0,f
  2615  024C  0800               	movf	indf,w
  2616  024D  00BE               	movwf	(printf@_val+1)
  2617                           	
  2618  024E                     l5107:	
  2619  024E  3002               	movlw	(02h)
  2620  024F  00B0               	movwf	(??_printf+0)+0
  2621  0250  0830               	movf	(??_printf+0)+0,w
  2622  0251  07B8               	addwf	(printf@ap),f
  2623  0252  2A53               	goto	l5109
  2624                           	line	1282
  2625                           	
  2626  0253                     l1033:	
  2627                           	line	1285
  2628                           	
  2629  0253                     l5109:	
  2630  0253  08BA               	movf	(printf@prec),f
  2631  0254  1D03               	skipz
  2632  0255  2A57               	goto	u6841
  2633  0256  2A58               	goto	u6840
  2634  0257                     u6841:
  2635  0257  2B02               	goto	l5159
  2636  0258                     u6840:
  2637                           	
  2638  0258                     l5111:	
  2639  0258  083E               	movf	((printf@_val+1)),w
  2640  0259  043D               	iorwf	((printf@_val)),w
  2641  025A  1D03               	skipz
  2642  025B  2A5D               	goto	u6851
  2643  025C  2A5E               	goto	u6850
  2644  025D                     u6851:
  2645  025D  2B02               	goto	l5159
  2646  025E                     u6850:
  2647                           	line	1286
  2648                           	
  2649  025E                     l5113:	
  2650  025E  3001               	movlw	(01h)
  2651  025F  00B0               	movwf	(??_printf+0)+0
  2652  0260  0830               	movf	(??_printf+0)+0,w
  2653  0261  07BA               	addwf	(printf@prec),f
  2654  0262  2B02               	goto	l5159
  2655                           	
  2656  0263                     l1034:	
  2657                           	line	1289
  2658  0263  2B02               	goto	l5159
  2659                           	line	1294
  2660                           	
  2661  0264                     l1036:	
  2662  0264  2A65               	goto	l5115
  2663                           	line	1297
  2664                           	
  2665  0265                     l1037:	
  2666                           	line	1300
  2667                           	
  2668  0265                     l5115:	
  2669  0265  01C0               	clrf	(printf@c)
  2670  0266  1403               	bsf	status,0
  2671  0267  0DC0               	rlf	(printf@c),f
  2672                           	
  2673  0268                     l5117:	
  2674  0268  0840               	movf	(printf@c),w
  2675  0269  3A05               	xorlw	05h
  2676  026A  1D03               	skipz
  2677  026B  2A6D               	goto	u6861
  2678  026C  2A6E               	goto	u6860
  2679  026D                     u6861:
  2680  026D  2A70               	goto	l5121
  2681  026E                     u6860:
  2682  026E  2B11               	goto	l5161
  2683                           	
  2684  026F                     l5119:	
  2685  026F  2B11               	goto	l5161
  2686                           	line	1301
  2687                           	
  2688  0270                     l1038:	
  2689                           	
  2690  0270                     l5121:	
  2691  0270  0840               	movf	(printf@c),w
  2692  0271  00B0               	movwf	(??_printf+0)+0
  2693  0272  0730               	addwf	(??_printf+0)+0,w
  2694  0273  3E0D               	addlw	low((_dpowers-__stringbase))
  2695  0274  0084               	movwf	fsr0
  2696  0275  120A  158A  2000   	fcall	stringdir
              120A  118A         
  2697  027A  00B1               	movwf	(??_printf+1)+0
  2698  027B  120A  158A  2000   	fcall	stringdir
              120A  118A         
  2699  0280  00B2               	movwf	(??_printf+1)+0+1
  2700  0281  0832               	movf	1+(??_printf+1)+0,w
  2701  0282  023E               	subwf	(printf@_val+1),w
  2702  0283  1D03               	skipz
  2703  0284  2A87               	goto	u6875
  2704  0285  0831               	movf	0+(??_printf+1)+0,w
  2705  0286  023D               	subwf	(printf@_val),w
  2706  0287                     u6875:
  2707  0287  1803               	skipnc
  2708  0288  2A8A               	goto	u6871
  2709  0289  2A8B               	goto	u6870
  2710  028A                     u6871:
  2711  028A  2A8D               	goto	l5125
  2712  028B                     u6870:
  2713  028B  2B11               	goto	l5161
  2714                           	line	1302
  2715                           	
  2716  028C                     l5123:	
  2717  028C  2B11               	goto	l5161
  2718                           	
  2719  028D                     l1040:	
  2720                           	line	1300
  2721                           	
  2722  028D                     l5125:	
  2723  028D  3001               	movlw	(01h)
  2724  028E  00B0               	movwf	(??_printf+0)+0
  2725  028F  0830               	movf	(??_printf+0)+0,w
  2726  0290  07C0               	addwf	(printf@c),f
  2727                           	
  2728  0291                     l5127:	
  2729  0291  0840               	movf	(printf@c),w
  2730  0292  3A05               	xorlw	05h
  2731  0293  1D03               	skipz
  2732  0294  2A96               	goto	u6881
  2733  0295  2A97               	goto	u6880
  2734  0296                     u6881:
  2735  0296  2A70               	goto	l5121
  2736  0297                     u6880:
  2737  0297  2B11               	goto	l5161
  2738                           	
  2739  0298                     l1039:	
  2740                           	line	1304
  2741  0298  2B11               	goto	l5161
  2742                           	line	1309
  2743                           	
  2744  0299                     l1042:	
  2745                           	line	1311
  2746                           	
  2747  0299                     l5129:	
  2748  0299  01C0               	clrf	(printf@c)
  2749  029A  1403               	bsf	status,0
  2750  029B  0DC0               	rlf	(printf@c),f
  2751                           	
  2752  029C                     l5131:	
  2753  029C  0840               	movf	(printf@c),w
  2754  029D  3A04               	xorlw	04h
  2755  029E  1D03               	skipz
  2756  029F  2AA1               	goto	u6891
  2757  02A0  2AA2               	goto	u6890
  2758  02A1                     u6891:
  2759  02A1  2AA4               	goto	l5135
  2760  02A2                     u6890:
  2761  02A2  2B11               	goto	l5161
  2762                           	
  2763  02A3                     l5133:	
  2764  02A3  2B11               	goto	l5161
  2765                           	line	1312
  2766                           	
  2767  02A4                     l1043:	
  2768                           	
  2769  02A4                     l5135:	
  2770  02A4  0840               	movf	(printf@c),w
  2771  02A5  00B0               	movwf	(??_printf+0)+0
  2772  02A6  0730               	addwf	(??_printf+0)+0,w
  2773  02A7  3E17               	addlw	low((_hexpowers-__stringbase))
  2774  02A8  0084               	movwf	fsr0
  2775  02A9  120A  158A  2000   	fcall	stringdir
              120A  118A         
  2776  02AE  00B1               	movwf	(??_printf+1)+0
  2777  02AF  120A  158A  2000   	fcall	stringdir
              120A  118A         
  2778  02B4  00B2               	movwf	(??_printf+1)+0+1
  2779  02B5  0832               	movf	1+(??_printf+1)+0,w
  2780  02B6  023E               	subwf	(printf@_val+1),w
  2781  02B7  1D03               	skipz
  2782  02B8  2ABB               	goto	u6905
  2783  02B9  0831               	movf	0+(??_printf+1)+0,w
  2784  02BA  023D               	subwf	(printf@_val),w
  2785  02BB                     u6905:
  2786  02BB  1803               	skipnc
  2787  02BC  2ABE               	goto	u6901
  2788  02BD  2ABF               	goto	u6900
  2789  02BE                     u6901:
  2790  02BE  2AC1               	goto	l5139
  2791  02BF                     u6900:
  2792  02BF  2B11               	goto	l5161
  2793                           	line	1313
  2794                           	
  2795  02C0                     l5137:	
  2796  02C0  2B11               	goto	l5161
  2797                           	
  2798  02C1                     l1045:	
  2799                           	line	1311
  2800                           	
  2801  02C1                     l5139:	
  2802  02C1  3001               	movlw	(01h)
  2803  02C2  00B0               	movwf	(??_printf+0)+0
  2804  02C3  0830               	movf	(??_printf+0)+0,w
  2805  02C4  07C0               	addwf	(printf@c),f
  2806                           	
  2807  02C5                     l5141:	
  2808  02C5  0840               	movf	(printf@c),w
  2809  02C6  3A04               	xorlw	04h
  2810  02C7  1D03               	skipz
  2811  02C8  2ACA               	goto	u6911
  2812  02C9  2ACB               	goto	u6910
  2813  02CA                     u6911:
  2814  02CA  2AA4               	goto	l5135
  2815  02CB                     u6910:
  2816  02CB  2B11               	goto	l5161
  2817                           	
  2818  02CC                     l1044:	
  2819                           	line	1315
  2820  02CC  2B11               	goto	l5161
  2821                           	line	1321
  2822                           	
  2823  02CD                     l1046:	
  2824                           	line	1323
  2825                           	
  2826  02CD                     l5143:	
  2827  02CD  01C0               	clrf	(printf@c)
  2828  02CE  1403               	bsf	status,0
  2829  02CF  0DC0               	rlf	(printf@c),f
  2830                           	
  2831  02D0                     l5145:	
  2832  02D0  0840               	movf	(printf@c),w
  2833  02D1  3A06               	xorlw	06h
  2834  02D2  1D03               	skipz
  2835  02D3  2AD5               	goto	u6921
  2836  02D4  2AD6               	goto	u6920
  2837  02D5                     u6921:
  2838  02D5  2AD8               	goto	l5149
  2839  02D6                     u6920:
  2840  02D6  2B11               	goto	l5161
  2841                           	
  2842  02D7                     l5147:	
  2843  02D7  2B11               	goto	l5161
  2844                           	line	1324
  2845                           	
  2846  02D8                     l1047:	
  2847                           	
  2848  02D8                     l5149:	
  2849  02D8  0840               	movf	(printf@c),w
  2850  02D9  00B0               	movwf	(??_printf+0)+0
  2851  02DA  0730               	addwf	(??_printf+0)+0,w
  2852  02DB  3E01               	addlw	low((_octpowers-__stringbase))
  2853  02DC  0084               	movwf	fsr0
  2854  02DD  120A  158A  2000   	fcall	stringdir
              120A  118A         
  2855  02E2  00B1               	movwf	(??_printf+1)+0
  2856  02E3  120A  158A  2000   	fcall	stringdir
              120A  118A         
  2857  02E8  00B2               	movwf	(??_printf+1)+0+1
  2858  02E9  0832               	movf	1+(??_printf+1)+0,w
  2859  02EA  023E               	subwf	(printf@_val+1),w
  2860  02EB  1D03               	skipz
  2861  02EC  2AEF               	goto	u6935
  2862  02ED  0831               	movf	0+(??_printf+1)+0,w
  2863  02EE  023D               	subwf	(printf@_val),w
  2864  02EF                     u6935:
  2865  02EF  1803               	skipnc
  2866  02F0  2AF2               	goto	u6931
  2867  02F1  2AF3               	goto	u6930
  2868  02F2                     u6931:
  2869  02F2  2AF5               	goto	l5153
  2870  02F3                     u6930:
  2871  02F3  2B11               	goto	l5161
  2872                           	line	1325
  2873                           	
  2874  02F4                     l5151:	
  2875  02F4  2B11               	goto	l5161
  2876                           	
  2877  02F5                     l1049:	
  2878                           	line	1323
  2879                           	
  2880  02F5                     l5153:	
  2881  02F5  3001               	movlw	(01h)
  2882  02F6  00B0               	movwf	(??_printf+0)+0
  2883  02F7  0830               	movf	(??_printf+0)+0,w
  2884  02F8  07C0               	addwf	(printf@c),f
  2885                           	
  2886  02F9                     l5155:	
  2887  02F9  0840               	movf	(printf@c),w
  2888  02FA  3A06               	xorlw	06h
  2889  02FB  1D03               	skipz
  2890  02FC  2AFE               	goto	u6941
  2891  02FD  2AFF               	goto	u6940
  2892  02FE                     u6941:
  2893  02FE  2AD8               	goto	l5149
  2894  02FF                     u6940:
  2895  02FF  2B11               	goto	l5161
  2896                           	
  2897  0300                     l1048:	
  2898                           	line	1327
  2899  0300  2B11               	goto	l5161
  2900                           	line	1331
  2901                           	
  2902  0301                     l5157:	
  2903  0301  2B11               	goto	l5161
  2904                           	line	1289
  2905                           	
  2906  0302                     l1035:	
  2907                           	
  2908  0302                     l5159:	
  2909  0302  0841               	movf	(printf@flag),w
  2910  0303  39C0               	andlw	0C0h
  2911                           	; Switch size 1, requested type "space"
  2912                           ; Number of cases is 4, Range of values is 0 to 192
  2913                           ; switch strategies available:
  2914                           ; Name         Instructions Cycles
  2915                           ; simple_byte           13     7 (average)
  2916                           ; jumptable            260     6 (fixed)
  2917                           ; rangetable           197     6 (fixed)
  2918                           ; spacedrange          392     9 (fixed)
  2919                           ; locatedrange         193     3 (fixed)
  2920                           ;	Chosen strategy is simple_byte
  2921                           
  2922                           	opt asmopt_off
  2923  0304  3A00               	xorlw	0^0	; case 0
  2924  0305  1903               	skipnz
  2925  0306  2A65               	goto	l5115
  2926  0307  3A40               	xorlw	64^0	; case 64
  2927  0308  1903               	skipnz
  2928  0309  2ACD               	goto	l5143
  2929  030A  3AC0               	xorlw	128^64	; case 128
  2930  030B  1903               	skipnz
  2931  030C  2A99               	goto	l5129
  2932  030D  3A40               	xorlw	192^128	; case 192
  2933  030E  1903               	skipnz
  2934  030F  2A65               	goto	l5115
  2935  0310  2B11               	goto	l5161
  2936                           	opt asmopt_on
  2937                           
  2938                           	line	1331
  2939                           	
  2940  0311                     l1041:	
  2941                           	line	1334
  2942                           	
  2943  0311                     l5161:	
  2944  0311  0840               	movf	(printf@c),w
  2945  0312  3A80               	xorlw	80h
  2946  0313  00B0               	movwf	(??_printf+0)+0
  2947  0314  083A               	movf	(printf@prec),w
  2948  0315  3A80               	xorlw	80h
  2949  0316  02B0               	subwf	(??_printf+0)+0
  2950  0317  1803               	skipnc
  2951  0318  2B1A               	goto	u6951
  2952  0319  2B1B               	goto	u6950
  2953  031A                     u6951:
  2954  031A  2B20               	goto	l5165
  2955  031B                     u6950:
  2956                           	line	1335
  2957                           	
  2958  031B                     l5163:	
  2959  031B  083A               	movf	(printf@prec),w
  2960  031C  00B0               	movwf	(??_printf+0)+0
  2961  031D  0830               	movf	(??_printf+0)+0,w
  2962  031E  00C0               	movwf	(printf@c)
  2963  031F  2B2F               	goto	l1051
  2964                           	line	1336
  2965                           	
  2966  0320                     l1050:	
  2967                           	
  2968  0320                     l5165:	
  2969  0320  083A               	movf	(printf@prec),w
  2970  0321  3A80               	xorlw	80h
  2971  0322  00B0               	movwf	(??_printf+0)+0
  2972  0323  0840               	movf	(printf@c),w
  2973  0324  3A80               	xorlw	80h
  2974  0325  02B0               	subwf	(??_printf+0)+0
  2975  0326  1803               	skipnc
  2976  0327  2B29               	goto	u6961
  2977  0328  2B2A               	goto	u6960
  2978  0329                     u6961:
  2979  0329  2B2F               	goto	l1051
  2980  032A                     u6960:
  2981                           	line	1337
  2982                           	
  2983  032A                     l5167:	
  2984  032A  0840               	movf	(printf@c),w
  2985  032B  00B0               	movwf	(??_printf+0)+0
  2986  032C  0830               	movf	(??_printf+0)+0,w
  2987  032D  00BA               	movwf	(printf@prec)
  2988  032E  2B2F               	goto	l1051
  2989                           	
  2990  032F                     l1052:	
  2991                           	line	1340
  2992                           	
  2993  032F                     l1051:	
  2994  032F  083C               	movf	(printf@width+1),w
  2995  0330  043B               	iorwf	(printf@width),w
  2996  0331  1903               	skipnz
  2997  0332  2B34               	goto	u6971
  2998  0333  2B35               	goto	u6970
  2999  0334                     u6971:
  3000  0334  2B48               	goto	l5173
  3001  0335                     u6970:
  3002                           	
  3003  0335                     l5169:	
  3004  0335  3003               	movlw	low(03h)
  3005  0336  0541               	andwf	(printf@flag),w
  3006  0337  00B0               	movwf	(??_printf+0)+0
  3007  0338  3000               	movlw	high(03h)
  3008  0339  0542               	andwf	(printf@flag+1),w
  3009  033A  00B1               	movwf	1+(??_printf+0)+0
  3010  033B  0831               	movf	1+(??_printf+0)+0,w
  3011  033C  0430               	iorwf	0+(??_printf+0)+0,w
  3012  033D  1903               	skipnz
  3013  033E  2B40               	goto	u6981
  3014  033F  2B41               	goto	u6980
  3015  0340                     u6981:
  3016  0340  2B48               	goto	l5173
  3017  0341                     u6980:
  3018                           	line	1341
  3019                           	
  3020  0341                     l5171:	
  3021  0341  30FF               	movlw	low(-1)
  3022  0342  07BB               	addwf	(printf@width),f
  3023  0343  1803               	skipnc
  3024  0344  0ABC               	incf	(printf@width+1),f
  3025  0345  30FF               	movlw	high(-1)
  3026  0346  07BC               	addwf	(printf@width+1),f
  3027  0347  2B48               	goto	l5173
  3028                           	
  3029  0348                     l1053:	
  3030                           	line	1343
  3031                           	
  3032  0348                     l5173:	
  3033  0348  1F42               	btfss	(printf@flag+1),(14)&7
  3034  0349  2B4B               	goto	u6991
  3035  034A  2B4C               	goto	u6990
  3036  034B                     u6991:
  3037  034B  2B73               	goto	l5181
  3038  034C                     u6990:
  3039                           	line	1344
  3040                           	
  3041  034C                     l5175:	
  3042  034C  083A               	movf	(printf@prec),w
  3043  034D  00B0               	movwf	(??_printf+0)+0
  3044  034E  01B1               	clrf	(??_printf+0)+0+1
  3045  034F  1BB0               	btfsc	(??_printf+0)+0,7
  3046  0350  03B1               	decf	(??_printf+0)+0+1,f
  3047  0351  0831               	movf	1+(??_printf+0)+0,w
  3048  0352  3A80               	xorlw	80h
  3049  0353  00B2               	movwf	(??_printf+2)+0
  3050  0354  083C               	movf	(printf@width+1),w
  3051  0355  3A80               	xorlw	80h
  3052  0356  0232               	subwf	(??_printf+2)+0,w
  3053  0357  1D03               	skipz
  3054  0358  2B5B               	goto	u7005
  3055  0359  083B               	movf	(printf@width),w
  3056  035A  0230               	subwf	0+(??_printf+0)+0,w
  3057  035B                     u7005:
  3058                           
  3059  035B  1803               	skipnc
  3060  035C  2B5E               	goto	u7001
  3061  035D  2B5F               	goto	u7000
  3062  035E                     u7001:
  3063  035E  2B6D               	goto	l5179
  3064  035F                     u7000:
  3065                           	line	1345
  3066                           	
  3067  035F                     l5177:	
  3068  035F  1283               	bcf	status, 5	;RP0=0, select bank0
  3069  0360  1303               	bcf	status, 6	;RP1=0, select bank0
  3070  0361  083A               	movf	(printf@prec),w
  3071  0362  00B0               	movwf	(??_printf+0)+0
  3072  0363  01B1               	clrf	(??_printf+0)+0+1
  3073  0364  1BB0               	btfsc	(??_printf+0)+0,7
  3074  0365  03B1               	decf	(??_printf+0)+0+1,f
  3075  0366  0830               	movf	0+(??_printf+0)+0,w
  3076  0367  02BB               	subwf	(printf@width),f
  3077  0368  0831               	movf	1+(??_printf+0)+0,w
  3078  0369  1C03               	skipc
  3079  036A  03BC               	decf	(printf@width+1),f
  3080  036B  02BC               	subwf	(printf@width+1),f
  3081  036C  2B73               	goto	l5181
  3082                           	line	1346
  3083                           	
  3084  036D                     l1055:	
  3085                           	line	1347
  3086                           	
  3087  036D                     l5179:	
  3088  036D  1283               	bcf	status, 5	;RP0=0, select bank0
  3089  036E  1303               	bcf	status, 6	;RP1=0, select bank0
  3090  036F  01BB               	clrf	(printf@width)
  3091  0370  01BC               	clrf	(printf@width+1)
  3092  0371  2B73               	goto	l5181
  3093                           	
  3094  0372                     l1056:	
  3095  0372  2B73               	goto	l5181
  3096                           	line	1348
  3097                           	
  3098  0373                     l1054:	
  3099                           	line	1356
  3100                           	
  3101  0373                     l5181:	
  3102  0373  30C4               	movlw	low(08C4h)
  3103  0374  0541               	andwf	(printf@flag),w
  3104  0375  00B0               	movwf	(??_printf+0)+0
  3105  0376  3008               	movlw	high(08C4h)
  3106  0377  0542               	andwf	(printf@flag+1),w
  3107  0378  00B1               	movwf	1+(??_printf+0)+0
  3108  0379  3008               	movlw	high(0840h)
  3109  037A  0631               	xorwf	1+(??_printf+0)+0,w
  3110  037B  1D03               	skipz
  3111  037C  2B7F               	goto	u7015
  3112  037D  3040               	movlw	low(0840h)
  3113  037E  0630               	xorwf	0+(??_printf+0)+0,w
  3114  037F                     u7015:
  3115                           
  3116  037F  1D03               	skipz
  3117  0380  2B82               	goto	u7011
  3118  0381  2B83               	goto	u7010
  3119  0382                     u7011:
  3120  0382  2B91               	goto	l5187
  3121  0383                     u7010:
  3122                           	line	1357
  3123                           	
  3124  0383                     l5183:	
  3125  0383  083C               	movf	(printf@width+1),w
  3126  0384  043B               	iorwf	(printf@width),w
  3127  0385  1903               	skipnz
  3128  0386  2B88               	goto	u7021
  3129  0387  2B89               	goto	u7020
  3130  0388                     u7021:
  3131  0388  2BBE               	goto	l5195
  3132  0389                     u7020:
  3133                           	line	1358
  3134                           	
  3135  0389                     l5185:	
  3136  0389  30FF               	movlw	low(-1)
  3137  038A  07BB               	addwf	(printf@width),f
  3138  038B  1803               	skipnc
  3139  038C  0ABC               	incf	(printf@width+1),f
  3140  038D  30FF               	movlw	high(-1)
  3141  038E  07BC               	addwf	(printf@width+1),f
  3142  038F  2BBE               	goto	l5195
  3143                           	
  3144  0390                     l1058:	
  3145                           	line	1359
  3146  0390  2BBE               	goto	l5195
  3147                           	
  3148  0391                     l1057:	
  3149                           	line	1363
  3150                           	
  3151  0391                     l5187:	
  3152  0391  30C0               	movlw	low(08C0h)
  3153  0392  0541               	andwf	(printf@flag),w
  3154  0393  00B0               	movwf	(??_printf+0)+0
  3155  0394  3008               	movlw	high(08C0h)
  3156  0395  0542               	andwf	(printf@flag+1),w
  3157  0396  00B1               	movwf	1+(??_printf+0)+0
  3158  0397  3008               	movlw	high(0880h)
  3159  0398  0631               	xorwf	1+(??_printf+0)+0,w
  3160  0399  1D03               	skipz
  3161  039A  2B9D               	goto	u7035
  3162  039B  3080               	movlw	low(0880h)
  3163  039C  0630               	xorwf	0+(??_printf+0)+0,w
  3164  039D                     u7035:
  3165                           
  3166  039D  1D03               	skipz
  3167  039E  2BA0               	goto	u7031
  3168  039F  2BA1               	goto	u7030
  3169  03A0                     u7031:
  3170  03A0  2BBE               	goto	l5195
  3171  03A1                     u7030:
  3172                           	line	1367
  3173                           	
  3174  03A1                     l5189:	
  3175  03A1  083C               	movf	(printf@width+1),w
  3176  03A2  3A80               	xorlw	80h
  3177  03A3  00FF               	movwf	btemp+1
  3178  03A4  3080               	movlw	(high(03h))^80h
  3179  03A5  027F               	subwf	btemp+1,w
  3180  03A6  1D03               	skipz
  3181  03A7  2BAA               	goto	u7045
  3182  03A8  3003               	movlw	low(03h)
  3183  03A9  023B               	subwf	(printf@width),w
  3184  03AA                     u7045:
  3185                           
  3186  03AA  1C03               	skipc
  3187  03AB  2BAD               	goto	u7041
  3188  03AC  2BAE               	goto	u7040
  3189  03AD                     u7041:
  3190  03AD  2BB7               	goto	l5193
  3191  03AE                     u7040:
  3192                           	line	1368
  3193                           	
  3194  03AE                     l5191:	
  3195  03AE  30FE               	movlw	low(-2)
  3196  03AF  1283               	bcf	status, 5	;RP0=0, select bank0
  3197  03B0  1303               	bcf	status, 6	;RP1=0, select bank0
  3198  03B1  07BB               	addwf	(printf@width),f
  3199  03B2  1803               	skipnc
  3200  03B3  0ABC               	incf	(printf@width+1),f
  3201  03B4  30FF               	movlw	high(-2)
  3202  03B5  07BC               	addwf	(printf@width+1),f
  3203  03B6  2BBE               	goto	l5195
  3204                           	line	1369
  3205                           	
  3206  03B7                     l1061:	
  3207                           	line	1370
  3208                           	
  3209  03B7                     l5193:	
  3210  03B7  1283               	bcf	status, 5	;RP0=0, select bank0
  3211  03B8  1303               	bcf	status, 6	;RP1=0, select bank0
  3212  03B9  01BB               	clrf	(printf@width)
  3213  03BA  01BC               	clrf	(printf@width+1)
  3214  03BB  2BBE               	goto	l5195
  3215                           	
  3216  03BC                     l1062:	
  3217  03BC  2BBE               	goto	l5195
  3218                           	line	1371
  3219                           	
  3220  03BD                     l1060:	
  3221  03BD  2BBE               	goto	l5195
  3222                           	line	1376
  3223                           	
  3224  03BE                     l1059:	
  3225                           	
  3226  03BE                     l5195:	
  3227  03BE  0840               	movf	(printf@c),w
  3228  03BF  00B0               	movwf	(??_printf+0)+0
  3229  03C0  01B1               	clrf	(??_printf+0)+0+1
  3230  03C1  1BB0               	btfsc	(??_printf+0)+0,7
  3231  03C2  03B1               	decf	(??_printf+0)+0+1,f
  3232  03C3  0831               	movf	1+(??_printf+0)+0,w
  3233  03C4  3A80               	xorlw	80h
  3234  03C5  00B2               	movwf	(??_printf+2)+0
  3235  03C6  083C               	movf	(printf@width+1),w
  3236  03C7  3A80               	xorlw	80h
  3237  03C8  0232               	subwf	(??_printf+2)+0,w
  3238  03C9  1D03               	skipz
  3239  03CA  2BCD               	goto	u7055
  3240  03CB  083B               	movf	(printf@width),w
  3241  03CC  0230               	subwf	0+(??_printf+0)+0,w
  3242  03CD                     u7055:
  3243                           
  3244  03CD  1803               	skipnc
  3245  03CE  2BD0               	goto	u7051
  3246  03CF  2BD1               	goto	u7050
  3247  03D0                     u7051:
  3248  03D0  2BDF               	goto	l5199
  3249  03D1                     u7050:
  3250                           	line	1377
  3251                           	
  3252  03D1                     l5197:	
  3253  03D1  1283               	bcf	status, 5	;RP0=0, select bank0
  3254  03D2  1303               	bcf	status, 6	;RP1=0, select bank0
  3255  03D3  0840               	movf	(printf@c),w
  3256  03D4  00B0               	movwf	(??_printf+0)+0
  3257  03D5  01B1               	clrf	(??_printf+0)+0+1
  3258  03D6  1BB0               	btfsc	(??_printf+0)+0,7
  3259  03D7  03B1               	decf	(??_printf+0)+0+1,f
  3260  03D8  0830               	movf	0+(??_printf+0)+0,w
  3261  03D9  02BB               	subwf	(printf@width),f
  3262  03DA  0831               	movf	1+(??_printf+0)+0,w
  3263  03DB  1C03               	skipc
  3264  03DC  03BC               	decf	(printf@width+1),f
  3265  03DD  02BC               	subwf	(printf@width+1),f
  3266  03DE  2BE4               	goto	l5201
  3267                           	line	1378
  3268                           	
  3269  03DF                     l1063:	
  3270                           	line	1379
  3271                           	
  3272  03DF                     l5199:	
  3273  03DF  1283               	bcf	status, 5	;RP0=0, select bank0
  3274  03E0  1303               	bcf	status, 6	;RP1=0, select bank0
  3275  03E1  01BB               	clrf	(printf@width)
  3276  03E2  01BC               	clrf	(printf@width+1)
  3277  03E3  2BE4               	goto	l5201
  3278                           	
  3279  03E4                     l1064:	
  3280                           	line	1382
  3281                           	
  3282  03E4                     l5201:	
  3283  03E4  1D41               	btfss	(printf@flag),(2)&7
  3284  03E5  2BE7               	goto	u7061
  3285  03E6  2BE8               	goto	u7060
  3286  03E7                     u7061:
  3287  03E7  2C57               	goto	l5227
  3288  03E8                     u7060:
  3289                           	line	1387
  3290                           	
  3291  03E8                     l5203:	
  3292  03E8  3003               	movlw	low(03h)
  3293  03E9  0541               	andwf	(printf@flag),w
  3294  03EA  00B0               	movwf	(??_printf+0)+0
  3295  03EB  3000               	movlw	high(03h)
  3296  03EC  0542               	andwf	(printf@flag+1),w
  3297  03ED  00B1               	movwf	1+(??_printf+0)+0
  3298  03EE  0831               	movf	1+(??_printf+0)+0,w
  3299  03EF  0430               	iorwf	0+(??_printf+0)+0,w
  3300  03F0  1903               	skipnz
  3301  03F1  2BF3               	goto	u7071
  3302  03F2  2BF4               	goto	u7070
  3303  03F3                     u7071:
  3304  03F3  2BFB               	goto	l1066
  3305  03F4                     u7070:
  3306                           	line	1388
  3307                           	
  3308  03F4                     l5205:	
  3309  03F4  302D               	movlw	(02Dh)
  3310  03F5  120A  158A  21EC   	fcall	_putch
              120A  118A         
  3311  03FA  2C37               	goto	l5221
  3312                           	line	1391
  3313                           	
  3314  03FB                     l1066:	
  3315                           	line	1394
  3316  03FB  1C41               	btfss	(printf@flag),(0)&7
  3317  03FC  2BFE               	goto	u7081
  3318  03FD  2BFF               	goto	u7080
  3319  03FE                     u7081:
  3320  03FE  2C06               	goto	l5209
  3321  03FF                     u7080:
  3322                           	line	1395
  3323                           	
  3324  03FF                     l5207:	
  3325  03FF  3020               	movlw	(020h)
  3326  0400  120A  158A  21EC   	fcall	_putch
              120A  118A         
  3327  0405  2C37               	goto	l5221
  3328                           	line	1398
  3329                           	
  3330  0406                     l1068:	
  3331                           	
  3332  0406                     l5209:	
  3333  0406  30C0               	movlw	low(08C0h)
  3334  0407  1283               	bcf	status, 5	;RP0=0, select bank0
  3335  0408  1303               	bcf	status, 6	;RP1=0, select bank0
  3336  0409  0541               	andwf	(printf@flag),w
  3337  040A  00B0               	movwf	(??_printf+0)+0
  3338  040B  3008               	movlw	high(08C0h)
  3339  040C  0542               	andwf	(printf@flag+1),w
  3340  040D  00B1               	movwf	1+(??_printf+0)+0
  3341  040E  3008               	movlw	high(0880h)
  3342  040F  0631               	xorwf	1+(??_printf+0)+0,w
  3343  0410  1D03               	skipz
  3344  0411  2C14               	goto	u7095
  3345  0412  3080               	movlw	low(0880h)
  3346  0413  0630               	xorwf	0+(??_printf+0)+0,w
  3347  0414                     u7095:
  3348                           
  3349  0414  1D03               	skipz
  3350  0415  2C17               	goto	u7091
  3351  0416  2C18               	goto	u7090
  3352  0417                     u7091:
  3353  0417  2C37               	goto	l5221
  3354  0418                     u7090:
  3355                           	line	1399
  3356                           	
  3357  0418                     l5211:	
  3358  0418  3030               	movlw	(030h)
  3359  0419  120A  158A  21EC   	fcall	_putch
              120A  118A         
  3360                           	line	1401
  3361                           	
  3362  041E                     l5213:	
  3363  041E  1283               	bcf	status, 5	;RP0=0, select bank0
  3364  041F  1303               	bcf	status, 6	;RP1=0, select bank0
  3365  0420  1AC1               	btfsc	(printf@flag),(5)&7
  3366  0421  2C23               	goto	u7101
  3367  0422  2C24               	goto	u7100
  3368  0423                     u7101:
  3369  0423  2C29               	goto	l5217
  3370  0424                     u7100:
  3371                           	
  3372  0424                     l5215:	
  3373  0424  3078               	movlw	low(078h)
  3374  0425  00B3               	movwf	(_printf$1391)
  3375  0426  3000               	movlw	high(078h)
  3376  0427  00B4               	movwf	((_printf$1391))+1
  3377  0428  2C2E               	goto	l5219
  3378                           	
  3379  0429                     l1072:	
  3380                           	
  3381  0429                     l5217:	
  3382  0429  3058               	movlw	low(058h)
  3383  042A  00B3               	movwf	(_printf$1391)
  3384  042B  3000               	movlw	high(058h)
  3385  042C  00B4               	movwf	((_printf$1391))+1
  3386  042D  2C2E               	goto	l5219
  3387                           	
  3388  042E                     l1074:	
  3389                           	
  3390  042E                     l5219:	
  3391  042E  0833               	movf	(_printf$1391),w
  3392  042F  120A  158A  21EC   	fcall	_putch
              120A  118A         
  3393  0434  2C37               	goto	l5221
  3394                           	line	1407
  3395                           	
  3396  0435                     l1070:	
  3397  0435  2C37               	goto	l5221
  3398                           	line	1410
  3399                           	
  3400  0436                     l1069:	
  3401  0436  2C37               	goto	l5221
  3402                           	
  3403  0437                     l1067:	
  3404                           	
  3405  0437                     l5221:	
  3406  0437  1283               	bcf	status, 5	;RP0=0, select bank0
  3407  0438  1303               	bcf	status, 6	;RP1=0, select bank0
  3408  0439  083C               	movf	(printf@width+1),w
  3409  043A  043B               	iorwf	(printf@width),w
  3410  043B  1903               	skipnz
  3411  043C  2C3E               	goto	u7111
  3412  043D  2C3F               	goto	u7110
  3413  043E                     u7111:
  3414  043E  2D92               	goto	l5273
  3415  043F                     u7110:
  3416  043F  2C40               	goto	l5223
  3417                           	line	1411
  3418                           	
  3419  0440                     l1076:	
  3420                           	line	1412
  3421                           	
  3422  0440                     l5223:	
  3423  0440  3030               	movlw	(030h)
  3424  0441  120A  158A  21EC   	fcall	_putch
              120A  118A         
  3425                           	line	1413
  3426                           	
  3427  0446                     l5225:	
  3428  0446  30FF               	movlw	low(-1)
  3429  0447  1283               	bcf	status, 5	;RP0=0, select bank0
  3430  0448  1303               	bcf	status, 6	;RP1=0, select bank0
  3431  0449  07BB               	addwf	(printf@width),f
  3432  044A  1803               	skipnc
  3433  044B  0ABC               	incf	(printf@width+1),f
  3434  044C  30FF               	movlw	high(-1)
  3435  044D  07BC               	addwf	(printf@width+1),f
  3436  044E  083C               	movf	(((printf@width+1))),w
  3437  044F  043B               	iorwf	(((printf@width))),w
  3438  0450  1D03               	skipz
  3439  0451  2C53               	goto	u7121
  3440  0452  2C54               	goto	u7120
  3441  0453                     u7121:
  3442  0453  2C40               	goto	l5223
  3443  0454                     u7120:
  3444  0454  2D92               	goto	l5273
  3445                           	
  3446  0455                     l1077:	
  3447  0455  2D92               	goto	l5273
  3448                           	
  3449  0456                     l1075:	
  3450                           	line	1415
  3451  0456  2D92               	goto	l5273
  3452                           	
  3453  0457                     l1065:	
  3454                           	line	1423
  3455                           	
  3456  0457                     l5227:	
  3457  0457  083C               	movf	(printf@width+1),w
  3458  0458  043B               	iorwf	(printf@width),w
  3459  0459  1903               	skipnz
  3460  045A  2C5C               	goto	u7131
  3461  045B  2C5D               	goto	u7130
  3462  045C                     u7131:
  3463  045C  2C78               	goto	l5235
  3464  045D                     u7130:
  3465                           	
  3466  045D                     l5229:	
  3467  045D  19C1               	btfsc	(printf@flag),(3)&7
  3468  045E  2C60               	goto	u7141
  3469  045F  2C61               	goto	u7140
  3470  0460                     u7141:
  3471  0460  2C78               	goto	l5235
  3472  0461                     u7140:
  3473  0461  2C62               	goto	l5231
  3474                           	line	1424
  3475                           	
  3476  0462                     l1080:	
  3477                           	line	1425
  3478                           	
  3479  0462                     l5231:	
  3480  0462  3020               	movlw	(020h)
  3481  0463  120A  158A  21EC   	fcall	_putch
              120A  118A         
  3482                           	line	1426
  3483                           	
  3484  0468                     l5233:	
  3485  0468  30FF               	movlw	low(-1)
  3486  0469  1283               	bcf	status, 5	;RP0=0, select bank0
  3487  046A  1303               	bcf	status, 6	;RP1=0, select bank0
  3488  046B  07BB               	addwf	(printf@width),f
  3489  046C  1803               	skipnc
  3490  046D  0ABC               	incf	(printf@width+1),f
  3491  046E  30FF               	movlw	high(-1)
  3492  046F  07BC               	addwf	(printf@width+1),f
  3493  0470  083C               	movf	(((printf@width+1))),w
  3494  0471  043B               	iorwf	(((printf@width))),w
  3495  0472  1D03               	skipz
  3496  0473  2C75               	goto	u7151
  3497  0474  2C76               	goto	u7150
  3498  0475                     u7151:
  3499  0475  2C62               	goto	l5231
  3500  0476                     u7150:
  3501  0476  2C78               	goto	l5235
  3502                           	
  3503  0477                     l1081:	
  3504  0477  2C78               	goto	l5235
  3505                           	
  3506  0478                     l1079:	
  3507                           	line	1433
  3508                           	
  3509  0478                     l5235:	
  3510  0478  3003               	movlw	low(03h)
  3511  0479  0541               	andwf	(printf@flag),w
  3512  047A  00B0               	movwf	(??_printf+0)+0
  3513  047B  3000               	movlw	high(03h)
  3514  047C  0542               	andwf	(printf@flag+1),w
  3515  047D  00B1               	movwf	1+(??_printf+0)+0
  3516  047E  0831               	movf	1+(??_printf+0)+0,w
  3517  047F  0430               	iorwf	0+(??_printf+0)+0,w
  3518  0480  1903               	skipnz
  3519  0481  2C83               	goto	u7161
  3520  0482  2C84               	goto	u7160
  3521  0483                     u7161:
  3522  0483  2C8B               	goto	l1082
  3523  0484                     u7160:
  3524                           	line	1434
  3525                           	
  3526  0484                     l5237:	
  3527  0484  302D               	movlw	(02Dh)
  3528  0485  120A  158A  21EC   	fcall	_putch
              120A  118A         
  3529  048A  2C97               	goto	l5241
  3530                           	line	1438
  3531                           	
  3532  048B                     l1082:	
  3533  048B  1C41               	btfss	(printf@flag),(0)&7
  3534  048C  2C8E               	goto	u7171
  3535  048D  2C8F               	goto	u7170
  3536  048E                     u7171:
  3537  048E  2C97               	goto	l5241
  3538  048F                     u7170:
  3539                           	line	1439
  3540                           	
  3541  048F                     l5239:	
  3542  048F  3020               	movlw	(020h)
  3543  0490  120A  158A  21EC   	fcall	_putch
              120A  118A         
  3544  0495  2C97               	goto	l5241
  3545                           	
  3546  0496                     l1084:	
  3547  0496  2C97               	goto	l5241
  3548                           	line	1443
  3549                           	
  3550  0497                     l1083:	
  3551                           	
  3552  0497                     l5241:	
  3553  0497  30C0               	movlw	low(08C0h)
  3554  0498  1283               	bcf	status, 5	;RP0=0, select bank0
  3555  0499  1303               	bcf	status, 6	;RP1=0, select bank0
  3556  049A  0541               	andwf	(printf@flag),w
  3557  049B  00B0               	movwf	(??_printf+0)+0
  3558  049C  3008               	movlw	high(08C0h)
  3559  049D  0542               	andwf	(printf@flag+1),w
  3560  049E  00B1               	movwf	1+(??_printf+0)+0
  3561  049F  3008               	movlw	high(0840h)
  3562  04A0  0631               	xorwf	1+(??_printf+0)+0,w
  3563  04A1  1D03               	skipz
  3564  04A2  2CA5               	goto	u7185
  3565  04A3  3040               	movlw	low(0840h)
  3566  04A4  0630               	xorwf	0+(??_printf+0)+0,w
  3567  04A5                     u7185:
  3568                           
  3569  04A5  1D03               	skipz
  3570  04A6  2CA8               	goto	u7181
  3571  04A7  2CA9               	goto	u7180
  3572  04A8                     u7181:
  3573  04A8  2CB0               	goto	l5245
  3574  04A9                     u7180:
  3575                           	line	1444
  3576                           	
  3577  04A9                     l5243:	
  3578  04A9  3030               	movlw	(030h)
  3579  04AA  120A  158A  21EC   	fcall	_putch
              120A  118A         
  3580  04AF  2D92               	goto	l5273
  3581                           	line	1445
  3582                           	
  3583  04B0                     l1085:	
  3584                           	line	1449
  3585                           	
  3586  04B0                     l5245:	
  3587  04B0  30C0               	movlw	low(08C0h)
  3588  04B1  1283               	bcf	status, 5	;RP0=0, select bank0
  3589  04B2  1303               	bcf	status, 6	;RP1=0, select bank0
  3590  04B3  0541               	andwf	(printf@flag),w
  3591  04B4  00B0               	movwf	(??_printf+0)+0
  3592  04B5  3008               	movlw	high(08C0h)
  3593  04B6  0542               	andwf	(printf@flag+1),w
  3594  04B7  00B1               	movwf	1+(??_printf+0)+0
  3595  04B8  3008               	movlw	high(0880h)
  3596  04B9  0631               	xorwf	1+(??_printf+0)+0,w
  3597  04BA  1D03               	skipz
  3598  04BB  2CBE               	goto	u7195
  3599  04BC  3080               	movlw	low(0880h)
  3600  04BD  0630               	xorwf	0+(??_printf+0)+0,w
  3601  04BE                     u7195:
  3602                           
  3603  04BE  1D03               	skipz
  3604  04BF  2CC1               	goto	u7191
  3605  04C0  2CC2               	goto	u7190
  3606  04C1                     u7191:
  3607  04C1  2D92               	goto	l5273
  3608  04C2                     u7190:
  3609                           	line	1453
  3610                           	
  3611  04C2                     l5247:	
  3612  04C2  3030               	movlw	(030h)
  3613  04C3  120A  158A  21EC   	fcall	_putch
              120A  118A         
  3614                           	line	1455
  3615                           	
  3616  04C8                     l5249:	
  3617  04C8  1283               	bcf	status, 5	;RP0=0, select bank0
  3618  04C9  1303               	bcf	status, 6	;RP1=0, select bank0
  3619  04CA  1AC1               	btfsc	(printf@flag),(5)&7
  3620  04CB  2CCD               	goto	u7201
  3621  04CC  2CCE               	goto	u7200
  3622  04CD                     u7201:
  3623  04CD  2CD3               	goto	l5253
  3624  04CE                     u7200:
  3625                           	
  3626  04CE                     l5251:	
  3627  04CE  3078               	movlw	low(078h)
  3628  04CF  00B5               	movwf	(_printf$1392)
  3629  04D0  3000               	movlw	high(078h)
  3630  04D1  00B6               	movwf	((_printf$1392))+1
  3631  04D2  2CD8               	goto	l5255
  3632                           	
  3633  04D3                     l1089:	
  3634                           	
  3635  04D3                     l5253:	
  3636  04D3  3058               	movlw	low(058h)
  3637  04D4  00B5               	movwf	(_printf$1392)
  3638  04D5  3000               	movlw	high(058h)
  3639  04D6  00B6               	movwf	((_printf$1392))+1
  3640  04D7  2CD8               	goto	l5255
  3641                           	
  3642  04D8                     l1091:	
  3643                           	
  3644  04D8                     l5255:	
  3645  04D8  0835               	movf	(_printf$1392),w
  3646  04D9  120A  158A  21EC   	fcall	_putch
              120A  118A         
  3647  04DE  2D92               	goto	l5273
  3648                           	line	1461
  3649                           	
  3650  04DF                     l1087:	
  3651  04DF  2D92               	goto	l5273
  3652                           	line	1464
  3653                           	
  3654  04E0                     l1086:	
  3655  04E0  2D92               	goto	l5273
  3656                           	
  3657  04E1                     l1078:	
  3658                           	line	1469
  3659  04E1  2D92               	goto	l5273
  3660                           	
  3661  04E2                     l1093:	
  3662                           	line	1471
  3663  04E2  2D7A               	goto	l5269
  3664                           	line	1478
  3665                           	
  3666  04E3                     l1095:	
  3667  04E3  2CE4               	goto	l5257
  3668                           	line	1481
  3669                           	
  3670  04E4                     l1096:	
  3671                           	line	1484
  3672                           	
  3673  04E4                     l5257:	
  3674  04E4  300A               	movlw	low(0Ah)
  3675  04E5  1283               	bcf	status, 5	;RP0=0, select bank0
  3676  04E6  1303               	bcf	status, 6	;RP1=0, select bank0
  3677  04E7  00A8               	movwf	(?___lwmod)
  3678  04E8  3000               	movlw	high(0Ah)
  3679  04E9  00A9               	movwf	((?___lwmod))+1
  3680  04EA  083A               	movf	(printf@prec),w
  3681  04EB  00B0               	movwf	(??_printf+0)+0
  3682  04EC  0730               	addwf	(??_printf+0)+0,w
  3683  04ED  3E0D               	addlw	low((_dpowers-__stringbase))
  3684  04EE  0084               	movwf	fsr0
  3685  04EF  120A  158A  2000   	fcall	stringdir
              120A  118A         
  3686  04F4  00A0               	movwf	(?___lwdiv)
  3687  04F5  120A  158A  2000   	fcall	stringdir
              120A  118A         
  3688  04FA  00A1               	movwf	(?___lwdiv+1)
  3689  04FB  083E               	movf	(printf@_val+1),w
  3690  04FC  01A3               	clrf	1+(?___lwdiv)+02h
  3691  04FD  07A3               	addwf	1+(?___lwdiv)+02h
  3692  04FE  083D               	movf	(printf@_val),w
  3693  04FF  01A2               	clrf	0+(?___lwdiv)+02h
  3694  0500  07A2               	addwf	0+(?___lwdiv)+02h
  3695                           
  3696  0501  120A  158A  23D0   	fcall	___lwdiv
              120A  118A         
  3697  0506  1283               	bcf	status, 5	;RP0=0, select bank0
  3698  0507  1303               	bcf	status, 6	;RP1=0, select bank0
  3699  0508  0821               	movf	(1+(?___lwdiv)),w
  3700  0509  01AB               	clrf	1+(?___lwmod)+02h
  3701  050A  07AB               	addwf	1+(?___lwmod)+02h
  3702  050B  0820               	movf	(0+(?___lwdiv)),w
  3703  050C  01AA               	clrf	0+(?___lwmod)+02h
  3704  050D  07AA               	addwf	0+(?___lwmod)+02h
  3705                           
  3706  050E  120A  158A  238A   	fcall	___lwmod
              120A  118A         
  3707  0513  1283               	bcf	status, 5	;RP0=0, select bank0
  3708  0514  1303               	bcf	status, 6	;RP1=0, select bank0
  3709  0515  0828               	movf	(0+(?___lwmod)),w
  3710  0516  3E30               	addlw	030h
  3711  0517  00B1               	movwf	(??_printf+1)+0
  3712  0518  0831               	movf	(??_printf+1)+0,w
  3713  0519  00C0               	movwf	(printf@c)
  3714                           	line	1486
  3715  051A  2D8B               	goto	l5271
  3716                           	line	1492
  3717                           	
  3718  051B                     l1098:	
  3719                           	line	1495
  3720  051B  1AC1               	btfsc	(printf@flag),(5)&7
  3721  051C  2D1E               	goto	u7211
  3722  051D  2D1F               	goto	u7210
  3723  051E                     u7211:
  3724  051E  2D24               	goto	l5261
  3725  051F                     u7210:
  3726                           	
  3727  051F                     l5259:	
  3728  051F  308B               	movlw	((STR_11-__stringbase))&0ffh
  3729  0520  00B0               	movwf	(??_printf+0)+0
  3730  0521  0830               	movf	(??_printf+0)+0,w
  3731  0522  00B7               	movwf	(_printf$1395)
  3732  0523  2D29               	goto	l5263
  3733                           	
  3734  0524                     l1100:	
  3735                           	
  3736  0524                     l5261:	
  3737  0524  307A               	movlw	((STR_10-__stringbase))&0ffh
  3738  0525  00B0               	movwf	(??_printf+0)+0
  3739  0526  0830               	movf	(??_printf+0)+0,w
  3740  0527  00B7               	movwf	(_printf$1395)
  3741  0528  2D29               	goto	l5263
  3742                           	
  3743  0529                     l1102:	
  3744                           	
  3745  0529                     l5263:	
  3746  0529  083A               	movf	(printf@prec),w
  3747  052A  00B0               	movwf	(??_printf+0)+0
  3748  052B  0730               	addwf	(??_printf+0)+0,w
  3749  052C  3E17               	addlw	low((_hexpowers-__stringbase))
  3750  052D  0084               	movwf	fsr0
  3751  052E  120A  158A  2000   	fcall	stringdir
              120A  118A         
  3752  0533  00A0               	movwf	(?___lwdiv)
  3753  0534  120A  158A  2000   	fcall	stringdir
              120A  118A         
  3754  0539  00A1               	movwf	(?___lwdiv+1)
  3755  053A  083E               	movf	(printf@_val+1),w
  3756  053B  01A3               	clrf	1+(?___lwdiv)+02h
  3757  053C  07A3               	addwf	1+(?___lwdiv)+02h
  3758  053D  083D               	movf	(printf@_val),w
  3759  053E  01A2               	clrf	0+(?___lwdiv)+02h
  3760  053F  07A2               	addwf	0+(?___lwdiv)+02h
  3761                           
  3762  0540  120A  158A  23D0   	fcall	___lwdiv
              120A  118A         
  3763  0545  1283               	bcf	status, 5	;RP0=0, select bank0
  3764  0546  1303               	bcf	status, 6	;RP1=0, select bank0
  3765  0547  0820               	movf	(0+(?___lwdiv)),w
  3766  0548  390F               	andlw	0Fh
  3767  0549  0737               	addwf	(_printf$1395),w
  3768  054A  0084               	movwf	fsr0
  3769  054B  120A  158A  2000   	fcall	stringdir
              120A  118A         
  3770  0550  00B1               	movwf	(??_printf+1)+0
  3771  0551  0831               	movf	(??_printf+1)+0,w
  3772  0552  00C0               	movwf	(printf@c)
  3773                           	line	1502
  3774  0553  2D8B               	goto	l5271
  3775                           	line	1508
  3776                           	
  3777  0554                     l1103:	
  3778                           	line	1510
  3779                           	
  3780  0554                     l5265:	
  3781  0554  083A               	movf	(printf@prec),w
  3782  0555  00B0               	movwf	(??_printf+0)+0
  3783  0556  0730               	addwf	(??_printf+0)+0,w
  3784  0557  3E01               	addlw	low((_octpowers-__stringbase))
  3785  0558  0084               	movwf	fsr0
  3786  0559  120A  158A  2000   	fcall	stringdir
              120A  118A         
  3787  055E  00A0               	movwf	(?___lwdiv)
  3788  055F  120A  158A  2000   	fcall	stringdir
              120A  118A         
  3789  0564  00A1               	movwf	(?___lwdiv+1)
  3790  0565  083E               	movf	(printf@_val+1),w
  3791  0566  01A3               	clrf	1+(?___lwdiv)+02h
  3792  0567  07A3               	addwf	1+(?___lwdiv)+02h
  3793  0568  083D               	movf	(printf@_val),w
  3794  0569  01A2               	clrf	0+(?___lwdiv)+02h
  3795  056A  07A2               	addwf	0+(?___lwdiv)+02h
  3796                           
  3797  056B  120A  158A  23D0   	fcall	___lwdiv
              120A  118A         
  3798  0570  1283               	bcf	status, 5	;RP0=0, select bank0
  3799  0571  1303               	bcf	status, 6	;RP1=0, select bank0
  3800  0572  0820               	movf	(0+(?___lwdiv)),w
  3801  0573  3907               	andlw	07h
  3802  0574  3E30               	addlw	030h
  3803  0575  00B1               	movwf	(??_printf+1)+0
  3804  0576  0831               	movf	(??_printf+1)+0,w
  3805  0577  00C0               	movwf	(printf@c)
  3806                           	line	1512
  3807  0578  2D8B               	goto	l5271
  3808                           	line	1515
  3809                           	
  3810  0579                     l5267:	
  3811  0579  2D8B               	goto	l5271
  3812                           	line	1471
  3813                           	
  3814  057A                     l1094:	
  3815                           	
  3816  057A                     l5269:	
  3817  057A  1283               	bcf	status, 5	;RP0=0, select bank0
  3818  057B  1303               	bcf	status, 6	;RP1=0, select bank0
  3819  057C  0841               	movf	(printf@flag),w
  3820  057D  39C0               	andlw	0C0h
  3821                           	; Switch size 1, requested type "space"
  3822                           ; Number of cases is 4, Range of values is 0 to 192
  3823                           ; switch strategies available:
  3824                           ; Name         Instructions Cycles
  3825                           ; simple_byte           13     7 (average)
  3826                           ; jumptable            260     6 (fixed)
  3827                           ; rangetable           197     6 (fixed)
  3828                           ; spacedrange          392     9 (fixed)
  3829                           ; locatedrange         193     3 (fixed)
  3830                           ;	Chosen strategy is simple_byte
  3831                           
  3832                           	opt asmopt_off
  3833  057E  3A00               	xorlw	0^0	; case 0
  3834  057F  1903               	skipnz
  3835  0580  2CE4               	goto	l5257
  3836  0581  3A40               	xorlw	64^0	; case 64
  3837  0582  1903               	skipnz
  3838  0583  2D54               	goto	l5265
  3839  0584  3AC0               	xorlw	128^64	; case 128
  3840  0585  1903               	skipnz
  3841  0586  2D1B               	goto	l1098
  3842  0587  3A40               	xorlw	192^128	; case 192
  3843  0588  1903               	skipnz
  3844  0589  2CE4               	goto	l5257
  3845  058A  2D8B               	goto	l5271
  3846                           	opt asmopt_on
  3847                           
  3848                           	line	1515
  3849                           	
  3850  058B                     l1097:	
  3851                           	line	1516
  3852                           	
  3853  058B                     l5271:	
  3854  058B  0840               	movf	(printf@c),w
  3855  058C  120A  158A  21EC   	fcall	_putch
              120A  118A         
  3856  0591  2D92               	goto	l5273
  3857                           	line	1517
  3858                           	
  3859  0592                     l1092:	
  3860                           	line	1469
  3861                           	
  3862  0592                     l5273:	
  3863  0592  30FF               	movlw	(-1)
  3864  0593  1283               	bcf	status, 5	;RP0=0, select bank0
  3865  0594  1303               	bcf	status, 6	;RP1=0, select bank0
  3866  0595  00B0               	movwf	(??_printf+0)+0
  3867  0596  0830               	movf	(??_printf+0)+0,w
  3868  0597  07BA               	addwf	(printf@prec),f
  3869  0598  083A               	movf	((printf@prec)),w
  3870  0599  3AFF               	xorlw	-1
  3871  059A  1D03               	skipz
  3872  059B  2D9D               	goto	u7221
  3873  059C  2D9E               	goto	u7220
  3874  059D                     u7221:
  3875  059D  2D7A               	goto	l5269
  3876  059E                     u7220:
  3877                           	
  3878  059E                     l1104:	
  3879                           	line	1520
  3880  059E  1DC1               	btfss	(printf@flag),(3)&7
  3881  059F  2DA1               	goto	u7231
  3882  05A0  2DA2               	goto	u7230
  3883  05A1                     u7231:
  3884  05A1  2DC7               	goto	l5281
  3885  05A2                     u7230:
  3886                           	
  3887  05A2                     l5275:	
  3888  05A2  083C               	movf	(printf@width+1),w
  3889  05A3  3A80               	xorlw	80h
  3890  05A4  00FF               	movwf	btemp+1
  3891  05A5  3080               	movlw	(high(01h))^80h
  3892  05A6  027F               	subwf	btemp+1,w
  3893  05A7  1D03               	skipz
  3894  05A8  2DAB               	goto	u7245
  3895  05A9  3001               	movlw	low(01h)
  3896  05AA  023B               	subwf	(printf@width),w
  3897  05AB                     u7245:
  3898                           
  3899  05AB  1C03               	skipc
  3900  05AC  2DAE               	goto	u7241
  3901  05AD  2DAF               	goto	u7240
  3902  05AE                     u7241:
  3903  05AE  2DC7               	goto	l5281
  3904  05AF                     u7240:
  3905  05AF  2DB0               	goto	l5277
  3906                           	line	1521
  3907                           	
  3908  05B0                     l1106:	
  3909                           	line	1522
  3910                           	
  3911  05B0                     l5277:	
  3912  05B0  3020               	movlw	(020h)
  3913  05B1  120A  158A  21EC   	fcall	_putch
              120A  118A         
  3914                           	line	1523
  3915                           	
  3916  05B6                     l5279:	
  3917  05B6  30FF               	movlw	low(-1)
  3918  05B7  1283               	bcf	status, 5	;RP0=0, select bank0
  3919  05B8  1303               	bcf	status, 6	;RP1=0, select bank0
  3920  05B9  07BB               	addwf	(printf@width),f
  3921  05BA  1803               	skipnc
  3922  05BB  0ABC               	incf	(printf@width+1),f
  3923  05BC  30FF               	movlw	high(-1)
  3924  05BD  07BC               	addwf	(printf@width+1),f
  3925  05BE  083C               	movf	(((printf@width+1))),w
  3926  05BF  043B               	iorwf	(((printf@width))),w
  3927  05C0  1D03               	skipz
  3928  05C1  2DC3               	goto	u7251
  3929  05C2  2DC4               	goto	u7250
  3930  05C3                     u7251:
  3931  05C3  2DB0               	goto	l5277
  3932  05C4                     u7250:
  3933  05C4  2DC7               	goto	l5281
  3934                           	
  3935  05C5                     l1107:	
  3936  05C5  2DC7               	goto	l5281
  3937                           	
  3938  05C6                     l1105:	
  3939  05C6  2DC7               	goto	l5281
  3940                           	line	1525
  3941                           	
  3942  05C7                     l979:	
  3943                           	line	540
  3944                           	
  3945  05C7                     l5281:	
  3946  05C7  3001               	movlw	01h
  3947  05C8  1283               	bcf	status, 5	;RP0=0, select bank0
  3948  05C9  1303               	bcf	status, 6	;RP1=0, select bank0
  3949  05CA  07B9               	addwf	(printf@f),f
  3950  05CB  30FF               	movlw	-01h
  3951  05CC  0739               	addwf	(printf@f),w
  3952  05CD  0084               	movwf	fsr0
  3953  05CE  120A  158A  2000   	fcall	stringdir
              120A  118A         
  3954  05D3  00B0               	movwf	(??_printf+0)+0
  3955  05D4  0830               	movf	(??_printf+0)+0,w
  3956  05D5  00C0               	movwf	(printf@c)
  3957  05D6  08C0               	movf	((printf@c)),f
  3958  05D7  1D03               	skipz
  3959  05D8  2DDA               	goto	u7261
  3960  05D9  2DDB               	goto	u7260
  3961  05DA                     u7261:
  3962  05DA  281D               	goto	l4989
  3963  05DB                     u7260:
  3964  05DB  2DDD               	goto	l1109
  3965                           	
  3966  05DC                     l1108:	
  3967  05DC  2DDD               	goto	l1109
  3968                           	line	1527
  3969                           	
  3970  05DD                     l1006:	
  3971                           	line	1533
  3972                           ;	Return value of _printf is never used
  3973                           	
  3974  05DD                     l1109:	
  3975  05DD  0008               	return
  3976                           	opt stack 0
  3977                           GLOBAL	__end_of_printf
  3978  05DE                     	__end_of_printf:
  3979 ;; =============== function _printf ends ============
  3980                           
  3981                           	signat	_printf,602
  3982                           	global	_position
  3983                           psect	text638,local,class=CODE,delta=2
  3984                           global __ptext638
  3985  0B07                     __ptext638:
  3986                           
  3987 ;; *************** function _position *****************
  3988 ;; Defined at:
  3989 ;;		line 201 in file "D:\ELECTRONIC\2016\1. Automated Solar Panel Orientation Setter\Firmware\Test2\lcdV2.h"
  3990 ;; Parameters:    Size  Location     Type
  3991 ;;  row             1    wreg     unsigned char 
  3992 ;;  collum          1    2[BANK0 ] unsigned char 
  3993 ;; Auto vars:     Size  Location     Type
  3994 ;;  row             1    6[BANK0 ] unsigned char 
  3995 ;;  post            1    5[BANK0 ] unsigned char 
  3996 ;; Return value:  Size  Location     Type
  3997 ;;		None               void
  3998 ;; Registers used:
  3999 ;;		wreg, status,2, status,0, pclath, cstack
  4000 ;; Tracked objects:
  4001 ;;		On entry : 0/0
  4002 ;;		On exit  : 0/0
  4003 ;;		Unchanged: 0/0
  4004 ;; Data sizes:     COMMON   BANK0   BANK1   BANK3   BANK2
  4005 ;;      Params:         0       1       0       0       0
  4006 ;;      Locals:         0       2       0       0       0
  4007 ;;      Temps:          0       2       0       0       0
  4008 ;;      Totals:         0       5       0       0       0
  4009 ;;Total ram usage:        5 bytes
  4010 ;; Hardware stack levels used:    1
  4011 ;; Hardware stack levels required when called:    4
  4012 ;; This function calls:
  4013 ;;		_lcd_add
  4014 ;; This function is called by:
  4015 ;;		_main
  4016 ;; This function uses a non-reentrant model
  4017 ;;
  4018                           psect	text638
  4019                           	file	"D:\ELECTRONIC\2016\1. Automated Solar Panel Orientation Setter\Firmware\Test2\lcd
                                 V2.h"
  4020                           	line	201
  4021                           	global	__size_of_position
  4022  003F                     	__size_of_position	equ	__end_of_position-_position
  4023                           	
  4024  0B07                     _position:	
  4025                           	opt	stack 3
  4026                           ; Regs used in _position: [wreg+status,2+status,0+pclath+cstack]
  4027                           ;position@row stored from wreg
  4028                           	line	203
  4029  0B07  1283               	bcf	status, 5	;RP0=0, select bank0
  4030  0B08  1303               	bcf	status, 6	;RP1=0, select bank0
  4031  0B09  00A6               	movwf	(position@row)
  4032                           	
  4033  0B0A                     l4965:	
  4034                           ;lcdV2.h: 202: char post ;
  4035                           ;lcdV2.h: 203: if( row == 1 ) row = 128;
  4036  0B0A  0826               	movf	(position@row),w
  4037  0B0B  3A01               	xorlw	01h
  4038  0B0C  1D03               	skipz
  4039  0B0D  2B0F               	goto	u6641
  4040  0B0E  2B10               	goto	u6640
  4041  0B0F                     u6641:
  4042  0B0F  2B14               	goto	l806
  4043  0B10                     u6640:
  4044                           	
  4045  0B10                     l4967:	
  4046  0B10  3080               	movlw	(080h)
  4047  0B11  00A3               	movwf	(??_position+0)+0
  4048  0B12  0823               	movf	(??_position+0)+0,w
  4049  0B13  00A6               	movwf	(position@row)
  4050                           	
  4051  0B14                     l806:	
  4052                           	line	204
  4053                           ;lcdV2.h: 204: if( row == 2 ) row = 192;
  4054  0B14  0826               	movf	(position@row),w
  4055  0B15  3A02               	xorlw	02h
  4056  0B16  1D03               	skipz
  4057  0B17  2B19               	goto	u6651
  4058  0B18  2B1A               	goto	u6650
  4059  0B19                     u6651:
  4060  0B19  2B1F               	goto	l4971
  4061  0B1A                     u6650:
  4062                           	
  4063  0B1A                     l4969:	
  4064  0B1A  30C0               	movlw	(0C0h)
  4065  0B1B  00A3               	movwf	(??_position+0)+0
  4066  0B1C  0823               	movf	(??_position+0)+0,w
  4067  0B1D  00A6               	movwf	(position@row)
  4068  0B1E  2B1F               	goto	l4971
  4069                           	
  4070  0B1F                     l807:	
  4071                           	line	205
  4072                           	
  4073  0B1F                     l4971:	
  4074                           ;lcdV2.h: 205: post = row + collum - 1;
  4075  0B1F  0822               	movf	(position@collum),w
  4076  0B20  0726               	addwf	(position@row),w
  4077  0B21  3EFF               	addlw	0FFh
  4078  0B22  00A3               	movwf	(??_position+0)+0
  4079  0B23  0823               	movf	(??_position+0)+0,w
  4080  0B24  00A5               	movwf	(position@post)
  4081                           	line	206
  4082                           	
  4083  0B25                     l4973:	
  4084                           ;lcdV2.h: 206: RC2 = 0;
  4085  0B25  1107               	bcf	(58/8),(58)&7
  4086                           	line	207
  4087                           	
  4088  0B26                     l4975:	
  4089                           ;lcdV2.h: 207: _delay(20);
  4090                           	opt asmopt_off
  4091  0B26  3006               movlw	6
  4092  0B27  00A3               movwf	(??_position+0)+0,f
  4093  0B28                     u7307:
  4094  0B28  0BA3               decfsz	(??_position+0)+0,f
  4095  0B29  2B28               	goto	u7307
  4096  0B2A  0064               	clrwdt
  4097                           opt asmopt_on
  4098                           
  4099                           	line	208
  4100                           	
  4101  0B2B                     l4977:	
  4102                           ;lcdV2.h: 208: lcd_data = post ;
  4103  0B2B  1283               	bcf	status, 5	;RP0=0, select bank0
  4104  0B2C  1303               	bcf	status, 6	;RP1=0, select bank0
  4105  0B2D  0825               	movf	(position@post),w
  4106  0B2E  00A3               	movwf	(??_position+0)+0
  4107  0B2F  0823               	movf	(??_position+0)+0,w
  4108  0B30  00DF               	movwf	(_lcd_data)
  4109                           	line	209
  4110                           	
  4111  0B31                     l4979:	
  4112                           ;lcdV2.h: 209: lcd_add();
  4113  0B31  120A  118A  2704   	fcall	_lcd_add
              120A  158A         
  4114                           	line	210
  4115                           	
  4116  0B36                     l4981:	
  4117                           ;lcdV2.h: 210: _delay((unsigned long)((10)*(4000000/4000.0)));
  4118                           	opt asmopt_off
  4119  0B36  300D               movlw	13
  4120  0B37  1283               	bcf	status, 5	;RP0=0, select bank0
  4121  0B38  1303               	bcf	status, 6	;RP1=0, select bank0
  4122  0B39  00A4               movwf	((??_position+0)+0+1),f
  4123  0B3A  30FB               	movlw	251
  4124  0B3B  00A3               movwf	((??_position+0)+0),f
  4125  0B3C                     u7317:
  4126  0B3C  0BA3               	decfsz	((??_position+0)+0),f
  4127  0B3D  2B3C               	goto	u7317
  4128  0B3E  0BA4               	decfsz	((??_position+0)+0+1),f
  4129  0B3F  2B3C               	goto	u7317
  4130  0B40  2B41               	nop2
  4131                           opt asmopt_on
  4132                           
  4133                           	line	211
  4134                           	
  4135  0B41                     l4983:	
  4136                           ;lcdV2.h: 211: row = 0;
  4137  0B41  1283               	bcf	status, 5	;RP0=0, select bank0
  4138  0B42  1303               	bcf	status, 6	;RP1=0, select bank0
  4139  0B43  01A6               	clrf	(position@row)
  4140                           	line	212
  4141                           	
  4142  0B44                     l4985:	
  4143                           ;lcdV2.h: 212: collum = 0;
  4144  0B44  01A2               	clrf	(position@collum)
  4145                           	line	213
  4146                           	
  4147  0B45                     l808:	
  4148  0B45  0008               	return
  4149                           	opt stack 0
  4150                           GLOBAL	__end_of_position
  4151  0B46                     	__end_of_position:
  4152 ;; =============== function _position ends ============
  4153                           
  4154                           	signat	_position,8312
  4155                           	global	_clr_display
  4156                           psect	text639,local,class=CODE,delta=2
  4157                           global __ptext639
  4158  0A46                     __ptext639:
  4159                           
  4160 ;; *************** function _clr_display *****************
  4161 ;; Defined at:
  4162 ;;		line 176 in file "D:\ELECTRONIC\2016\1. Automated Solar Panel Orientation Setter\Firmware\Test2\lcdV2.h"
  4163 ;; Parameters:    Size  Location     Type
  4164 ;;		None
  4165 ;; Auto vars:     Size  Location     Type
  4166 ;;		None
  4167 ;; Return value:  Size  Location     Type
  4168 ;;		None               void
  4169 ;; Registers used:
  4170 ;;		wreg, status,2, status,0, pclath, cstack
  4171 ;; Tracked objects:
  4172 ;;		On entry : 0/0
  4173 ;;		On exit  : 0/0
  4174 ;;		Unchanged: 0/0
  4175 ;; Data sizes:     COMMON   BANK0   BANK1   BANK3   BANK2
  4176 ;;      Params:         0       0       0       0       0
  4177 ;;      Locals:         0       0       0       0       0
  4178 ;;      Temps:          0       2       0       0       0
  4179 ;;      Totals:         0       2       0       0       0
  4180 ;;Total ram usage:        2 bytes
  4181 ;; Hardware stack levels used:    1
  4182 ;; Hardware stack levels required when called:    4
  4183 ;; This function calls:
  4184 ;;		_lcd_add
  4185 ;; This function is called by:
  4186 ;;		_main
  4187 ;; This function uses a non-reentrant model
  4188 ;;
  4189                           psect	text639
  4190                           	file	"D:\ELECTRONIC\2016\1. Automated Solar Panel Orientation Setter\Firmware\Test2\lcd
                                 V2.h"
  4191                           	line	176
  4192                           	global	__size_of_clr_display
  4193  0021                     	__size_of_clr_display	equ	__end_of_clr_display-_clr_display
  4194                           	
  4195  0A46                     _clr_display:	
  4196                           	opt	stack 3
  4197                           ; Regs used in _clr_display: [wreg+status,2+status,0+pclath+cstack]
  4198                           	line	177
  4199                           	
  4200  0A46                     l4953:	
  4201                           ;lcdV2.h: 177: RC2 = 0;
  4202  0A46  1283               	bcf	status, 5	;RP0=0, select bank0
  4203  0A47  1303               	bcf	status, 6	;RP1=0, select bank0
  4204  0A48  1107               	bcf	(58/8),(58)&7
  4205                           	line	178
  4206                           	
  4207  0A49                     l4955:	
  4208                           ;lcdV2.h: 178: _delay(20);
  4209                           	opt asmopt_off
  4210  0A49  3006               movlw	6
  4211  0A4A  00A2               movwf	(??_clr_display+0)+0,f
  4212  0A4B                     u7327:
  4213  0A4B  0BA2               decfsz	(??_clr_display+0)+0,f
  4214  0A4C  2A4B               	goto	u7327
  4215  0A4D  0064               	clrwdt
  4216                           opt asmopt_on
  4217                           
  4218                           	line	179
  4219                           	
  4220  0A4E                     l4957:	
  4221                           ;lcdV2.h: 179: lcd_data = 0b00000001;
  4222  0A4E  1283               	bcf	status, 5	;RP0=0, select bank0
  4223  0A4F  1303               	bcf	status, 6	;RP1=0, select bank0
  4224  0A50  01DF               	clrf	(_lcd_data)
  4225  0A51  1403               	bsf	status,0
  4226  0A52  0DDF               	rlf	(_lcd_data),f
  4227                           	line	180
  4228                           	
  4229  0A53                     l4959:	
  4230                           ;lcdV2.h: 180: lcd_add();
  4231  0A53  120A  118A  2704   	fcall	_lcd_add
              120A  158A         
  4232                           	line	181
  4233                           	
  4234  0A58                     l4961:	
  4235                           ;lcdV2.h: 181: _delay((unsigned long)((10)*(4000000/4000.0)));
  4236                           	opt asmopt_off
  4237  0A58  300D               movlw	13
  4238  0A59  1283               	bcf	status, 5	;RP0=0, select bank0
  4239  0A5A  1303               	bcf	status, 6	;RP1=0, select bank0
  4240  0A5B  00A3               movwf	((??_clr_display+0)+0+1),f
  4241  0A5C  30FB               	movlw	251
  4242  0A5D  00A2               movwf	((??_clr_display+0)+0),f
  4243  0A5E                     u7337:
  4244  0A5E  0BA2               	decfsz	((??_clr_display+0)+0),f
  4245  0A5F  2A5E               	goto	u7337
  4246  0A60  0BA3               	decfsz	((??_clr_display+0)+0+1),f
  4247  0A61  2A5E               	goto	u7337
  4248  0A62  2A63               	nop2
  4249                           opt asmopt_on
  4250                           
  4251                           	line	182
  4252                           	
  4253  0A63                     l4963:	
  4254                           ;lcdV2.h: 182: RC2 = 1;
  4255  0A63  1283               	bcf	status, 5	;RP0=0, select bank0
  4256  0A64  1303               	bcf	status, 6	;RP1=0, select bank0
  4257  0A65  1507               	bsf	(58/8),(58)&7
  4258                           	line	183
  4259                           	
  4260  0A66                     l798:	
  4261  0A66  0008               	return
  4262                           	opt stack 0
  4263                           GLOBAL	__end_of_clr_display
  4264  0A67                     	__end_of_clr_display:
  4265 ;; =============== function _clr_display ends ============
  4266                           
  4267                           	signat	_clr_display,88
  4268                           	global	_putch
  4269                           psect	text640,local,class=CODE,delta=2
  4270                           global __ptext640
  4271  09EC                     __ptext640:
  4272                           
  4273 ;; *************** function _putch *****************
  4274 ;; Defined at:
  4275 ;;		line 166 in file "D:\ELECTRONIC\2016\1. Automated Solar Panel Orientation Setter\Firmware\Test2\lcdV2.h"
  4276 ;; Parameters:    Size  Location     Type
  4277 ;;  print_value     1    wreg     unsigned char 
  4278 ;; Auto vars:     Size  Location     Type
  4279 ;;  print_value     1    3[BANK0 ] unsigned char 
  4280 ;; Return value:  Size  Location     Type
  4281 ;;		None               void
  4282 ;; Registers used:
  4283 ;;		wreg, status,2, status,0, pclath, cstack
  4284 ;; Tracked objects:
  4285 ;;		On entry : 0/0
  4286 ;;		On exit  : 0/0
  4287 ;;		Unchanged: 0/0
  4288 ;; Data sizes:     COMMON   BANK0   BANK1   BANK3   BANK2
  4289 ;;      Params:         0       0       0       0       0
  4290 ;;      Locals:         0       1       0       0       0
  4291 ;;      Temps:          0       1       0       0       0
  4292 ;;      Totals:         0       2       0       0       0
  4293 ;;Total ram usage:        2 bytes
  4294 ;; Hardware stack levels used:    1
  4295 ;; Hardware stack levels required when called:    4
  4296 ;; This function calls:
  4297 ;;		_lcd_add
  4298 ;; This function is called by:
  4299 ;;		_printf
  4300 ;; This function uses a non-reentrant model
  4301 ;;
  4302                           psect	text640
  4303                           	file	"D:\ELECTRONIC\2016\1. Automated Solar Panel Orientation Setter\Firmware\Test2\lcd
                                 V2.h"
  4304                           	line	166
  4305                           	global	__size_of_putch
  4306  001B                     	__size_of_putch	equ	__end_of_putch-_putch
  4307                           	
  4308  09EC                     _putch:	
  4309                           	opt	stack 2
  4310                           ; Regs used in _putch: [wreg+status,2+status,0+pclath+cstack]
  4311                           ;putch@print_value stored from wreg
  4312  09EC  1283               	bcf	status, 5	;RP0=0, select bank0
  4313  09ED  1303               	bcf	status, 6	;RP1=0, select bank0
  4314  09EE  00A3               	movwf	(putch@print_value)
  4315                           	line	167
  4316                           	
  4317  09EF                     l4945:	
  4318                           ;lcdV2.h: 167: RC2 = 1;
  4319  09EF  1507               	bsf	(58/8),(58)&7
  4320                           	line	168
  4321                           	
  4322  09F0                     l4947:	
  4323                           ;lcdV2.h: 168: _delay(20);
  4324                           	opt asmopt_off
  4325  09F0  3006               movlw	6
  4326  09F1  00A2               movwf	(??_putch+0)+0,f
  4327  09F2                     u7347:
  4328  09F2  0BA2               decfsz	(??_putch+0)+0,f
  4329  09F3  29F2               	goto	u7347
  4330  09F4  0064               	clrwdt
  4331                           opt asmopt_on
  4332                           
  4333                           	line	169
  4334                           ;lcdV2.h: 169: lcd_data = print_value;
  4335  09F5  1283               	bcf	status, 5	;RP0=0, select bank0
  4336  09F6  1303               	bcf	status, 6	;RP1=0, select bank0
  4337  09F7  0823               	movf	(putch@print_value),w
  4338  09F8  00A2               	movwf	(??_putch+0)+0
  4339  09F9  0822               	movf	(??_putch+0)+0,w
  4340  09FA  00DF               	movwf	(_lcd_data)
  4341                           	line	170
  4342                           	
  4343  09FB                     l4949:	
  4344                           ;lcdV2.h: 170: lcd_add();
  4345  09FB  120A  118A  2704   	fcall	_lcd_add
              120A  158A         
  4346                           	line	171
  4347                           	
  4348  0A00                     l4951:	
  4349                           ;lcdV2.h: 171: _delay(100);
  4350                           	opt asmopt_off
  4351  0A00  3021               movlw	33
  4352  0A01  1283               	bcf	status, 5	;RP0=0, select bank0
  4353  0A02  1303               	bcf	status, 6	;RP1=0, select bank0
  4354  0A03  00A2               movwf	(??_putch+0)+0,f
  4355  0A04                     u7357:
  4356  0A04  0BA2               decfsz	(??_putch+0)+0,f
  4357  0A05  2A04               	goto	u7357
  4358                           opt asmopt_on
  4359                           
  4360                           	line	172
  4361                           	
  4362  0A06                     l795:	
  4363  0A06  0008               	return
  4364                           	opt stack 0
  4365                           GLOBAL	__end_of_putch
  4366  0A07                     	__end_of_putch:
  4367 ;; =============== function _putch ends ============
  4368                           
  4369                           	signat	_putch,4216
  4370                           	global	_bdnu_unid
  4371                           psect	text641,local,class=CODE,delta=2
  4372                           global __ptext641
  4373  0C20                     __ptext641:
  4374                           
  4375 ;; *************** function _bdnu_unid *****************
  4376 ;; Defined at:
  4377 ;;		line 308 in file "D:\ELECTRONIC\2016\1. Automated Solar Panel Orientation Setter\Firmware\Test2\Automated Solar Pane
       l Orientation Setter.c"
  4378 ;; Parameters:    Size  Location     Type
  4379 ;;		None
  4380 ;; Auto vars:     Size  Location     Type
  4381 ;;		None
  4382 ;; Return value:  Size  Location     Type
  4383 ;;		None               void
  4384 ;; Registers used:
  4385 ;;		wreg, status,2, status,0
  4386 ;; Tracked objects:
  4387 ;;		On entry : 0/0
  4388 ;;		On exit  : 0/0
  4389 ;;		Unchanged: 0/0
  4390 ;; Data sizes:     COMMON   BANK0   BANK1   BANK3   BANK2
  4391 ;;      Params:         0       0       0       0       0
  4392 ;;      Locals:         0       0       0       0       0
  4393 ;;      Temps:          0       1       0       0       0
  4394 ;;      Totals:         0       1       0       0       0
  4395 ;;Total ram usage:        1 bytes
  4396 ;; Hardware stack levels used:    1
  4397 ;; Hardware stack levels required when called:    3
  4398 ;; This function calls:
  4399 ;;		Nothing
  4400 ;; This function is called by:
  4401 ;;		_main
  4402 ;; This function uses a non-reentrant model
  4403 ;;
  4404                           psect	text641
  4405                           	file	"D:\ELECTRONIC\2016\1. Automated Solar Panel Orientation Setter\Firmware\Test2\Aut
                                 omated Solar Panel Orientation Setter.c"
  4406                           	line	308
  4407                           	global	__size_of_bdnu_unid
  4408  007B                     	__size_of_bdnu_unid	equ	__end_of_bdnu_unid-_bdnu_unid
  4409                           	
  4410  0C20                     _bdnu_unid:	
  4411                           	opt	stack 4
  4412                           ; Regs used in _bdnu_unid: [wreg+status,2+status,0]
  4413                           	line	309
  4414                           	
  4415  0C20                     l4923:	
  4416                           ;Automated Solar Panel Orientation Setter.c: 309: z = 3;
  4417  0C20  3003               	movlw	(03h)
  4418  0C21  1283               	bcf	status, 5	;RP0=0, select bank0
  4419  0C22  1303               	bcf	status, 6	;RP1=0, select bank0
  4420  0C23  00A0               	movwf	(??_bdnu_unid+0)+0
  4421  0C24  0820               	movf	(??_bdnu_unid+0)+0,w
  4422  0C25  00E7               	movwf	(_z)
  4423                           	line	310
  4424                           ;Automated Solar Panel Orientation Setter.c: 310: w = 4;
  4425  0C26  3004               	movlw	(04h)
  4426  0C27  00A0               	movwf	(??_bdnu_unid+0)+0
  4427  0C28  0820               	movf	(??_bdnu_unid+0)+0,w
  4428  0C29  00E3               	movwf	(_w)
  4429                           	line	311
  4430                           ;Automated Solar Panel Orientation Setter.c: 311: v = 2;
  4431  0C2A  3002               	movlw	(02h)
  4432  0C2B  00A0               	movwf	(??_bdnu_unid+0)+0
  4433  0C2C  0820               	movf	(??_bdnu_unid+0)+0,w
  4434  0C2D  00E2               	movwf	(_v)
  4435                           	line	312
  4436                           ;Automated Solar Panel Orientation Setter.c: 312: y = 6;
  4437  0C2E  3006               	movlw	(06h)
  4438  0C2F  00A0               	movwf	(??_bdnu_unid+0)+0
  4439  0C30  0820               	movf	(??_bdnu_unid+0)+0,w
  4440  0C31  00E6               	movwf	(_y)
  4441                           	line	313
  4442                           ;Automated Solar Panel Orientation Setter.c: 313: while(!TXIF);
  4443  0C32  2C33               	goto	l939
  4444                           	
  4445  0C33                     l940:	
  4446                           	
  4447  0C33                     l939:	
  4448  0C33  1E0C               	btfss	(100/8),(100)&7
  4449  0C34  2C36               	goto	u6581
  4450  0C35  2C37               	goto	u6580
  4451  0C36                     u6581:
  4452  0C36  2C33               	goto	l939
  4453  0C37                     u6580:
  4454  0C37  2C38               	goto	l4925
  4455                           	
  4456  0C38                     l941:	
  4457                           	line	314
  4458                           	
  4459  0C38                     l4925:	
  4460                           ;Automated Solar Panel Orientation Setter.c: 314: TXREG = (z+48);
  4461  0C38  0867               	movf	(_z),w
  4462  0C39  3E30               	addlw	030h
  4463  0C3A  0099               	movwf	(25)	;volatile
  4464                           	line	315
  4465                           	
  4466  0C3B                     l4927:	
  4467                           ;Automated Solar Panel Orientation Setter.c: 315: _delay((unsigned long)((1)*(4000000/40
                                 00.0)));
  4468                           	opt asmopt_off
  4469  0C3B  30F9               movlw	249
  4470  0C3C  00A0               movwf	(??_bdnu_unid+0)+0,f
  4471  0C3D                     u7367:
  4472  0C3D  0064               	clrwdt
  4473  0C3E  0BA0               decfsz	(??_bdnu_unid+0)+0,f
  4474  0C3F  2C3D               	goto	u7367
  4475  0C40  2C41               	nop2	;nop
  4476  0C41  0064               	clrwdt
  4477                           opt asmopt_on
  4478                           
  4479                           	line	316
  4480                           ;Automated Solar Panel Orientation Setter.c: 316: while(!TXIF);
  4481  0C42  2C43               	goto	l942
  4482                           	
  4483  0C43                     l943:	
  4484                           	
  4485  0C43                     l942:	
  4486  0C43  1283               	bcf	status, 5	;RP0=0, select bank0
  4487  0C44  1303               	bcf	status, 6	;RP1=0, select bank0
  4488  0C45  1E0C               	btfss	(100/8),(100)&7
  4489  0C46  2C48               	goto	u6591
  4490  0C47  2C49               	goto	u6590
  4491  0C48                     u6591:
  4492  0C48  2C43               	goto	l942
  4493  0C49                     u6590:
  4494  0C49  2C4A               	goto	l4929
  4495                           	
  4496  0C4A                     l944:	
  4497                           	line	317
  4498                           	
  4499  0C4A                     l4929:	
  4500                           ;Automated Solar Panel Orientation Setter.c: 317: TXREG = (w+48);
  4501  0C4A  0863               	movf	(_w),w
  4502  0C4B  3E30               	addlw	030h
  4503  0C4C  0099               	movwf	(25)	;volatile
  4504                           	line	318
  4505                           	
  4506  0C4D                     l4931:	
  4507                           ;Automated Solar Panel Orientation Setter.c: 318: _delay((unsigned long)((1)*(4000000/40
                                 00.0)));
  4508                           	opt asmopt_off
  4509  0C4D  30F9               movlw	249
  4510  0C4E  00A0               movwf	(??_bdnu_unid+0)+0,f
  4511  0C4F                     u7377:
  4512  0C4F  0064               	clrwdt
  4513  0C50  0BA0               decfsz	(??_bdnu_unid+0)+0,f
  4514  0C51  2C4F               	goto	u7377
  4515  0C52  2C53               	nop2	;nop
  4516  0C53  0064               	clrwdt
  4517                           opt asmopt_on
  4518                           
  4519                           	line	319
  4520                           ;Automated Solar Panel Orientation Setter.c: 319: while(!TXIF);
  4521  0C54  2C55               	goto	l945
  4522                           	
  4523  0C55                     l946:	
  4524                           	
  4525  0C55                     l945:	
  4526  0C55  1283               	bcf	status, 5	;RP0=0, select bank0
  4527  0C56  1303               	bcf	status, 6	;RP1=0, select bank0
  4528  0C57  1E0C               	btfss	(100/8),(100)&7
  4529  0C58  2C5A               	goto	u6601
  4530  0C59  2C5B               	goto	u6600
  4531  0C5A                     u6601:
  4532  0C5A  2C55               	goto	l945
  4533  0C5B                     u6600:
  4534  0C5B  2C5C               	goto	l4933
  4535                           	
  4536  0C5C                     l947:	
  4537                           	line	320
  4538                           	
  4539  0C5C                     l4933:	
  4540                           ;Automated Solar Panel Orientation Setter.c: 320: TXREG = 13;
  4541  0C5C  300D               	movlw	(0Dh)
  4542  0C5D  0099               	movwf	(25)	;volatile
  4543                           	line	321
  4544                           ;Automated Solar Panel Orientation Setter.c: 321: _delay((unsigned long)((1)*(4000000/40
                                 00.0)));
  4545                           	opt asmopt_off
  4546  0C5E  30F9               movlw	249
  4547  0C5F  00A0               movwf	(??_bdnu_unid+0)+0,f
  4548  0C60                     u7387:
  4549  0C60  0064               	clrwdt
  4550  0C61  0BA0               decfsz	(??_bdnu_unid+0)+0,f
  4551  0C62  2C60               	goto	u7387
  4552  0C63  2C64               	nop2	;nop
  4553  0C64  0064               	clrwdt
  4554                           opt asmopt_on
  4555                           
  4556                           	line	322
  4557                           ;Automated Solar Panel Orientation Setter.c: 322: while(!TXIF);
  4558  0C65  2C66               	goto	l948
  4559                           	
  4560  0C66                     l949:	
  4561                           	
  4562  0C66                     l948:	
  4563  0C66  1283               	bcf	status, 5	;RP0=0, select bank0
  4564  0C67  1303               	bcf	status, 6	;RP1=0, select bank0
  4565  0C68  1E0C               	btfss	(100/8),(100)&7
  4566  0C69  2C6B               	goto	u6611
  4567  0C6A  2C6C               	goto	u6610
  4568  0C6B                     u6611:
  4569  0C6B  2C66               	goto	l948
  4570  0C6C                     u6610:
  4571  0C6C  2C6D               	goto	l4935
  4572                           	
  4573  0C6D                     l950:	
  4574                           	line	323
  4575                           	
  4576  0C6D                     l4935:	
  4577                           ;Automated Solar Panel Orientation Setter.c: 323: TXREG = (v+48);
  4578  0C6D  0862               	movf	(_v),w
  4579  0C6E  3E30               	addlw	030h
  4580  0C6F  0099               	movwf	(25)	;volatile
  4581                           	line	324
  4582                           	
  4583  0C70                     l4937:	
  4584                           ;Automated Solar Panel Orientation Setter.c: 324: _delay((unsigned long)((1)*(4000000/40
                                 00.0)));
  4585                           	opt asmopt_off
  4586  0C70  30F9               movlw	249
  4587  0C71  00A0               movwf	(??_bdnu_unid+0)+0,f
  4588  0C72                     u7397:
  4589  0C72  0064               	clrwdt
  4590  0C73  0BA0               decfsz	(??_bdnu_unid+0)+0,f
  4591  0C74  2C72               	goto	u7397
  4592  0C75  2C76               	nop2	;nop
  4593  0C76  0064               	clrwdt
  4594                           opt asmopt_on
  4595                           
  4596                           	line	325
  4597                           ;Automated Solar Panel Orientation Setter.c: 325: while(!TXIF);
  4598  0C77  2C78               	goto	l951
  4599                           	
  4600  0C78                     l952:	
  4601                           	
  4602  0C78                     l951:	
  4603  0C78  1283               	bcf	status, 5	;RP0=0, select bank0
  4604  0C79  1303               	bcf	status, 6	;RP1=0, select bank0
  4605  0C7A  1E0C               	btfss	(100/8),(100)&7
  4606  0C7B  2C7D               	goto	u6621
  4607  0C7C  2C7E               	goto	u6620
  4608  0C7D                     u6621:
  4609  0C7D  2C78               	goto	l951
  4610  0C7E                     u6620:
  4611  0C7E  2C7F               	goto	l4939
  4612                           	
  4613  0C7F                     l953:	
  4614                           	line	326
  4615                           	
  4616  0C7F                     l4939:	
  4617                           ;Automated Solar Panel Orientation Setter.c: 326: TXREG = (y+48);
  4618  0C7F  0866               	movf	(_y),w
  4619  0C80  3E30               	addlw	030h
  4620  0C81  0099               	movwf	(25)	;volatile
  4621                           	line	327
  4622                           	
  4623  0C82                     l4941:	
  4624                           ;Automated Solar Panel Orientation Setter.c: 327: _delay((unsigned long)((1)*(4000000/40
                                 00.0)));
  4625                           	opt asmopt_off
  4626  0C82  30F9               movlw	249
  4627  0C83  00A0               movwf	(??_bdnu_unid+0)+0,f
  4628  0C84                     u7407:
  4629  0C84  0064               	clrwdt
  4630  0C85  0BA0               decfsz	(??_bdnu_unid+0)+0,f
  4631  0C86  2C84               	goto	u7407
  4632  0C87  2C88               	nop2	;nop
  4633  0C88  0064               	clrwdt
  4634                           opt asmopt_on
  4635                           
  4636                           	line	328
  4637                           ;Automated Solar Panel Orientation Setter.c: 328: while(!TXIF);
  4638  0C89  2C8A               	goto	l954
  4639                           	
  4640  0C8A                     l955:	
  4641                           	
  4642  0C8A                     l954:	
  4643  0C8A  1283               	bcf	status, 5	;RP0=0, select bank0
  4644  0C8B  1303               	bcf	status, 6	;RP1=0, select bank0
  4645  0C8C  1E0C               	btfss	(100/8),(100)&7
  4646  0C8D  2C8F               	goto	u6631
  4647  0C8E  2C90               	goto	u6630
  4648  0C8F                     u6631:
  4649  0C8F  2C8A               	goto	l954
  4650  0C90                     u6630:
  4651  0C90  2C91               	goto	l4943
  4652                           	
  4653  0C91                     l956:	
  4654                           	line	329
  4655                           	
  4656  0C91                     l4943:	
  4657                           ;Automated Solar Panel Orientation Setter.c: 329: TXREG = 13;
  4658  0C91  300D               	movlw	(0Dh)
  4659  0C92  0099               	movwf	(25)	;volatile
  4660                           	line	330
  4661                           ;Automated Solar Panel Orientation Setter.c: 330: _delay((unsigned long)((1)*(4000000/40
                                 00.0)));
  4662                           	opt asmopt_off
  4663  0C93  30F9               movlw	249
  4664  0C94  00A0               movwf	(??_bdnu_unid+0)+0,f
  4665  0C95                     u7417:
  4666  0C95  0064               	clrwdt
  4667  0C96  0BA0               decfsz	(??_bdnu_unid+0)+0,f
  4668  0C97  2C95               	goto	u7417
  4669  0C98  2C99               	nop2	;nop
  4670  0C99  0064               	clrwdt
  4671                           opt asmopt_on
  4672                           
  4673                           	line	331
  4674                           	
  4675  0C9A                     l957:	
  4676  0C9A  0008               	return
  4677                           	opt stack 0
  4678                           GLOBAL	__end_of_bdnu_unid
  4679  0C9B                     	__end_of_bdnu_unid:
  4680 ;; =============== function _bdnu_unid ends ============
  4681                           
  4682                           	signat	_bdnu_unid,88
  4683                           	global	_Serial_Print
  4684                           psect	text642,local,class=CODE,delta=2
  4685                           global __ptext642
  4686  0ADB                     __ptext642:
  4687                           
  4688 ;; *************** function _Serial_Print *****************
  4689 ;; Defined at:
  4690 ;;		line 22 in file "D:\ELECTRONIC\2016\1. Automated Solar Panel Orientation Setter\Firmware\Test2\serial.h"
  4691 ;; Parameters:    Size  Location     Type
  4692 ;;  a               1    wreg     PTR unsigned char 
  4693 ;;		 -> STR_9(19), 
  4694 ;; Auto vars:     Size  Location     Type
  4695 ;;  a               1    1[BANK0 ] PTR unsigned char 
  4696 ;;		 -> STR_9(19), 
  4697 ;; Return value:  Size  Location     Type
  4698 ;;		None               void
  4699 ;; Registers used:
  4700 ;;		wreg, fsr0l, fsr0h, status,2, status,0, pclath
  4701 ;; Tracked objects:
  4702 ;;		On entry : 0/0
  4703 ;;		On exit  : 0/0
  4704 ;;		Unchanged: 0/0
  4705 ;; Data sizes:     COMMON   BANK0   BANK1   BANK3   BANK2
  4706 ;;      Params:         0       0       0       0       0
  4707 ;;      Locals:         0       1       0       0       0
  4708 ;;      Temps:          0       1       0       0       0
  4709 ;;      Totals:         0       2       0       0       0
  4710 ;;Total ram usage:        2 bytes
  4711 ;; Hardware stack levels used:    1
  4712 ;; Hardware stack levels required when called:    3
  4713 ;; This function calls:
  4714 ;;		Nothing
  4715 ;; This function is called by:
  4716 ;;		_main
  4717 ;; This function uses a non-reentrant model
  4718 ;;
  4719                           psect	text642
  4720                           	file	"D:\ELECTRONIC\2016\1. Automated Solar Panel Orientation Setter\Firmware\Test2\ser
                                 ial.h"
  4721                           	line	22
  4722                           	global	__size_of_Serial_Print
  4723  002C                     	__size_of_Serial_Print	equ	__end_of_Serial_Print-_Serial_Print
  4724                           	
  4725  0ADB                     _Serial_Print:	
  4726                           	opt	stack 4
  4727                           ; Regs used in _Serial_Print: [wreg-fsr0h+status,2+status,0+pclath]
  4728                           ;Serial_Print@a stored from wreg
  4729  0ADB  1283               	bcf	status, 5	;RP0=0, select bank0
  4730  0ADC  1303               	bcf	status, 6	;RP1=0, select bank0
  4731  0ADD  00A1               	movwf	(Serial_Print@a)
  4732                           	line	23
  4733                           	
  4734  0ADE                     l4913:	
  4735                           ;serial.h: 23: while( *a!='\0'){
  4736  0ADE  2AF9               	goto	l4921
  4737                           	
  4738  0ADF                     l830:	
  4739                           	line	24
  4740                           ;serial.h: 24: while(!TXIF);
  4741  0ADF  2AE0               	goto	l831
  4742                           	
  4743  0AE0                     l832:	
  4744                           	
  4745  0AE0                     l831:	
  4746  0AE0  1E0C               	btfss	(100/8),(100)&7
  4747  0AE1  2AE3               	goto	u6561
  4748  0AE2  2AE4               	goto	u6560
  4749  0AE3                     u6561:
  4750  0AE3  2AE0               	goto	l831
  4751  0AE4                     u6560:
  4752  0AE4  2AE5               	goto	l4915
  4753                           	
  4754  0AE5                     l833:	
  4755                           	line	25
  4756                           	
  4757  0AE5                     l4915:	
  4758                           ;serial.h: 25: TXREG = *a;
  4759  0AE5  0821               	movf	(Serial_Print@a),w
  4760  0AE6  0084               	movwf	fsr0
  4761  0AE7  120A  158A  2000   	fcall	stringdir
              120A  158A         
  4762  0AEC  0099               	movwf	(25)	;volatile
  4763                           	line	26
  4764                           	
  4765  0AED                     l4917:	
  4766                           ;serial.h: 26: _delay(10);
  4767                           	opt asmopt_off
  4768  0AED  3003               movlw	3
  4769  0AEE  00A0               movwf	(??_Serial_Print+0)+0,f
  4770  0AEF                     u7427:
  4771  0AEF  0BA0               decfsz	(??_Serial_Print+0)+0,f
  4772  0AF0  2AEF               	goto	u7427
  4773                           opt asmopt_on
  4774                           
  4775                           	line	27
  4776                           	
  4777  0AF1                     l4919:	
  4778                           ;serial.h: 27: a = a+1;
  4779  0AF1  1283               	bcf	status, 5	;RP0=0, select bank0
  4780  0AF2  1303               	bcf	status, 6	;RP1=0, select bank0
  4781  0AF3  0821               	movf	(Serial_Print@a),w
  4782  0AF4  3E01               	addlw	01h
  4783  0AF5  00A0               	movwf	(??_Serial_Print+0)+0
  4784  0AF6  0820               	movf	(??_Serial_Print+0)+0,w
  4785  0AF7  00A1               	movwf	(Serial_Print@a)
  4786  0AF8  2AF9               	goto	l4921
  4787                           	line	28
  4788                           	
  4789  0AF9                     l829:	
  4790                           	line	23
  4791                           	
  4792  0AF9                     l4921:	
  4793  0AF9  0821               	movf	(Serial_Print@a),w
  4794  0AFA  0084               	movwf	fsr0
  4795  0AFB  120A  158A  2000   	fcall	stringdir
              120A  158A         
  4796  0B00  3800               	iorlw	0
  4797  0B01  1D03               	skipz
  4798  0B02  2B04               	goto	u6571
  4799  0B03  2B05               	goto	u6570
  4800  0B04                     u6571:
  4801  0B04  2AE0               	goto	l831
  4802  0B05                     u6570:
  4803  0B05  2B06               	goto	l835
  4804                           	
  4805  0B06                     l834:	
  4806                           	line	30
  4807                           ;serial.h: 28: }
  4808                           ;serial.h: 29: return 1;
  4809                           ;	Return value of _Serial_Print is never used
  4810                           	
  4811  0B06                     l835:	
  4812  0B06  0008               	return
  4813                           	opt stack 0
  4814                           GLOBAL	__end_of_Serial_Print
  4815  0B07                     	__end_of_Serial_Print:
  4816 ;; =============== function _Serial_Print ends ============
  4817                           
  4818                           	signat	_Serial_Print,4216
  4819                           	global	_Serial_Init
  4820                           psect	text643,local,class=CODE,delta=2
  4821                           global __ptext643
  4822  0A26                     __ptext643:
  4823                           
  4824 ;; *************** function _Serial_Init *****************
  4825 ;; Defined at:
  4826 ;;		line 5 in file "D:\ELECTRONIC\2016\1. Automated Solar Panel Orientation Setter\Firmware\Test2\serial.h"
  4827 ;; Parameters:    Size  Location     Type
  4828 ;;		None
  4829 ;; Auto vars:     Size  Location     Type
  4830 ;;		None
  4831 ;; Return value:  Size  Location     Type
  4832 ;;		None               void
  4833 ;; Registers used:
  4834 ;;		wreg
  4835 ;; Tracked objects:
  4836 ;;		On entry : 0/0
  4837 ;;		On exit  : 0/0
  4838 ;;		Unchanged: 0/0
  4839 ;; Data sizes:     COMMON   BANK0   BANK1   BANK3   BANK2
  4840 ;;      Params:         0       0       0       0       0
  4841 ;;      Locals:         0       0       0       0       0
  4842 ;;      Temps:          0       3       0       0       0
  4843 ;;      Totals:         0       3       0       0       0
  4844 ;;Total ram usage:        3 bytes
  4845 ;; Hardware stack levels used:    1
  4846 ;; Hardware stack levels required when called:    3
  4847 ;; This function calls:
  4848 ;;		Nothing
  4849 ;; This function is called by:
  4850 ;;		_main
  4851 ;; This function uses a non-reentrant model
  4852 ;;
  4853                           psect	text643
  4854                           	file	"D:\ELECTRONIC\2016\1. Automated Solar Panel Orientation Setter\Firmware\Test2\ser
                                 ial.h"
  4855                           	line	5
  4856                           	global	__size_of_Serial_Init
  4857  0020                     	__size_of_Serial_Init	equ	__end_of_Serial_Init-_Serial_Init
  4858                           	
  4859  0A26                     _Serial_Init:	
  4860                           	opt	stack 4
  4861                           ; Regs used in _Serial_Init: [wreg]
  4862                           	line	8
  4863                           	
  4864  0A26                     l4903:	
  4865                           ;serial.h: 8: SPEN = 1;
  4866  0A26  1283               	bcf	status, 5	;RP0=0, select bank0
  4867  0A27  1303               	bcf	status, 6	;RP1=0, select bank0
  4868  0A28  1798               	bsf	(199/8),(199)&7
  4869                           	line	9
  4870                           ;serial.h: 9: RX9 = 0;
  4871  0A29  1318               	bcf	(198/8),(198)&7
  4872                           	line	10
  4873                           ;serial.h: 10: CREN = 1;
  4874  0A2A  1618               	bsf	(196/8),(196)&7
  4875                           	line	11
  4876                           ;serial.h: 11: TX9 = 0;
  4877  0A2B  1683               	bsf	status, 5	;RP0=1, select bank1
  4878  0A2C  1303               	bcf	status, 6	;RP1=0, select bank1
  4879  0A2D  1318               	bcf	(1222/8)^080h,(1222)&7
  4880                           	line	12
  4881                           ;serial.h: 12: TXEN = 1;
  4882  0A2E  1698               	bsf	(1221/8)^080h,(1221)&7
  4883                           	line	13
  4884                           ;serial.h: 13: SYNC = 0;
  4885  0A2F  1218               	bcf	(1220/8)^080h,(1220)&7
  4886                           	line	14
  4887                           ;serial.h: 14: BRGH = 1;
  4888  0A30  1518               	bsf	(1218/8)^080h,(1218)&7
  4889                           	line	15
  4890                           	
  4891  0A31                     l4905:	
  4892                           ;serial.h: 15: SPBRG = 129;
  4893  0A31  3081               	movlw	(081h)
  4894  0A32  0099               	movwf	(153)^080h	;volatile
  4895                           	line	16
  4896                           	
  4897  0A33                     l4907:	
  4898                           ;serial.h: 16: RCIE = 1;
  4899  0A33  168C               	bsf	(1125/8)^080h,(1125)&7
  4900                           	line	17
  4901                           	
  4902  0A34                     l4909:	
  4903                           ;serial.h: 17: TXIE = 0;
  4904  0A34  120C               	bcf	(1124/8)^080h,(1124)&7
  4905                           	line	18
  4906                           	
  4907  0A35                     l4911:	
  4908                           ;serial.h: 18: ADDEN = 0;
  4909  0A35  1283               	bcf	status, 5	;RP0=0, select bank0
  4910  0A36  1303               	bcf	status, 6	;RP1=0, select bank0
  4911  0A37  1198               	bcf	(195/8),(195)&7
  4912                           	line	19
  4913                           ;serial.h: 19: _delay((unsigned long)((500)*(4000000/4000.0)));
  4914                           	opt asmopt_off
  4915  0A38  3003               movlw  3
  4916  0A39  00A2               movwf	((??_Serial_Init+0)+0+2),f
  4917  0A3A  308A               movlw	138
  4918  0A3B  00A1               movwf	((??_Serial_Init+0)+0+1),f
  4919  0A3C  3056               	movlw	86
  4920  0A3D  00A0               movwf	((??_Serial_Init+0)+0),f
  4921  0A3E                     u7437:
  4922  0A3E  0BA0               	decfsz	((??_Serial_Init+0)+0),f
  4923  0A3F  2A3E               	goto	u7437
  4924  0A40  0BA1               	decfsz	((??_Serial_Init+0)+0+1),f
  4925  0A41  2A3E               	goto	u7437
  4926  0A42  0BA2               	decfsz	((??_Serial_Init+0)+0+2),f
  4927  0A43  2A3E               	goto	u7437
  4928  0A44  2A45               	nop2
  4929                           opt asmopt_on
  4930                           
  4931                           	line	20
  4932                           	
  4933  0A45                     l826:	
  4934  0A45  0008               	return
  4935                           	opt stack 0
  4936                           GLOBAL	__end_of_Serial_Init
  4937  0A46                     	__end_of_Serial_Init:
  4938 ;; =============== function _Serial_Init ends ============
  4939                           
  4940                           	signat	_Serial_Init,88
  4941                           	global	_lcd_add
  4942                           psect	text644,local,class=CODE,delta=2
  4943                           global __ptext644
  4944  0704                     __ptext644:
  4945                           
  4946 ;; *************** function _lcd_add *****************
  4947 ;; Defined at:
  4948 ;;		line 217 in file "D:\ELECTRONIC\2016\1. Automated Solar Panel Orientation Setter\Firmware\Test2\lcdV2.h"
  4949 ;; Parameters:    Size  Location     Type
  4950 ;;		None
  4951 ;; Auto vars:     Size  Location     Type
  4952 ;;		None
  4953 ;; Return value:  Size  Location     Type
  4954 ;;		None               void
  4955 ;; Registers used:
  4956 ;;		wreg, status,2, status,0
  4957 ;; Tracked objects:
  4958 ;;		On entry : 0/0
  4959 ;;		On exit  : 0/0
  4960 ;;		Unchanged: 0/0
  4961 ;; Data sizes:     COMMON   BANK0   BANK1   BANK3   BANK2
  4962 ;;      Params:         0       0       0       0       0
  4963 ;;      Locals:         0       0       0       0       0
  4964 ;;      Temps:          0       2       0       0       0
  4965 ;;      Totals:         0       2       0       0       0
  4966 ;;Total ram usage:        2 bytes
  4967 ;; Hardware stack levels used:    1
  4968 ;; Hardware stack levels required when called:    3
  4969 ;; This function calls:
  4970 ;;		Nothing
  4971 ;; This function is called by:
  4972 ;;		_putch
  4973 ;;		_clr_display
  4974 ;;		_position
  4975 ;;		_curser
  4976 ;; This function uses a non-reentrant model
  4977 ;;
  4978                           psect	text644
  4979                           	file	"D:\ELECTRONIC\2016\1. Automated Solar Panel Orientation Setter\Firmware\Test2\lcd
                                 V2.h"
  4980                           	line	217
  4981                           	global	__size_of_lcd_add
  4982  00F8                     	__size_of_lcd_add	equ	__end_of_lcd_add-_lcd_add
  4983                           	
  4984  0704                     _lcd_add:	
  4985                           	opt	stack 3
  4986                           ; Regs used in _lcd_add: [wreg+status,2+status,0]
  4987                           	line	218
  4988                           	
  4989  0704                     l4855:	
  4990                           ;lcdV2.h: 218: lcd_data_high = lcd_data >> 4;
  4991  0704  1283               	bcf	status, 5	;RP0=0, select bank0
  4992  0705  1303               	bcf	status, 6	;RP1=0, select bank0
  4993  0706  085F               	movf	(_lcd_data),w
  4994  0707  00A0               	movwf	(??_lcd_add+0)+0
  4995  0708  3004               	movlw	04h
  4996  0709                     u6225:
  4997  0709  1003               	clrc
  4998  070A  0CA0               	rrf	(??_lcd_add+0)+0,f
  4999  070B  3EFF               	addlw	-1
  5000  070C  1D03               	skipz
  5001  070D  2F09               	goto	u6225
  5002  070E  0820               	movf	0+(??_lcd_add+0)+0,w
  5003  070F  00A1               	movwf	(??_lcd_add+1)+0
  5004  0710  0821               	movf	(??_lcd_add+1)+0,w
  5005  0711  00E0               	movwf	(_lcd_data_high)
  5006                           	line	219
  5007                           ;lcdV2.h: 219: lcd_data_low = lcd_data << 4;
  5008  0712  085F               	movf	(_lcd_data),w
  5009  0713  00A0               	movwf	(??_lcd_add+0)+0
  5010  0714  3003               	movlw	(04h)-1
  5011  0715                     u6235:
  5012  0715  1003               	clrc
  5013  0716  0DA0               	rlf	(??_lcd_add+0)+0,f
  5014  0717  3EFF               	addlw	-1
  5015  0718  1D03               	skipz
  5016  0719  2F15               	goto	u6235
  5017  071A  1003               	clrc
  5018  071B  0D20               	rlf	(??_lcd_add+0)+0,w
  5019  071C  00A1               	movwf	(??_lcd_add+1)+0
  5020  071D  0821               	movf	(??_lcd_add+1)+0,w
  5021  071E  00FD               	movwf	(_lcd_data_low)
  5022                           	line	220
  5023                           ;lcdV2.h: 220: lcd_data_low = lcd_data_low >> 4;
  5024  071F  087D               	movf	(_lcd_data_low),w
  5025  0720  00A0               	movwf	(??_lcd_add+0)+0
  5026  0721  3004               	movlw	04h
  5027  0722                     u6245:
  5028  0722  1003               	clrc
  5029  0723  0CA0               	rrf	(??_lcd_add+0)+0,f
  5030  0724  3EFF               	addlw	-1
  5031  0725  1D03               	skipz
  5032  0726  2F22               	goto	u6245
  5033  0727  0820               	movf	0+(??_lcd_add+0)+0,w
  5034  0728  00A1               	movwf	(??_lcd_add+1)+0
  5035  0729  0821               	movf	(??_lcd_add+1)+0,w
  5036  072A  00FD               	movwf	(_lcd_data_low)
  5037                           	line	222
  5038                           	
  5039  072B                     l4857:	
  5040                           ;lcdV2.h: 222: bit0 = lcd_data;
  5041  072B  107B               	bcf	(_bit0/8),(_bit0)&7
  5042  072C  1C5F               	btfss	(_lcd_data),0
  5043  072D  2F2F               	goto	u6255
  5044  072E  147B               	bsf	(_bit0/8),(_bit0)&7
  5045  072F                     u6255:
  5046                           
  5047                           	line	223
  5048                           ;lcdV2.h: 223: bit1 = lcd_data>>1;
  5049  072F  1283               	bcf	status, 5	;RP0=0, select bank0
  5050  0730  1303               	bcf	status, 6	;RP1=0, select bank0
  5051  0731  085F               	movf	(_lcd_data),w
  5052  0732  00A0               	movwf	(??_lcd_add+0)+0
  5053  0733  3001               	movlw	01h
  5054  0734                     u6265:
  5055  0734  1003               	clrc
  5056  0735  0CA0               	rrf	(??_lcd_add+0)+0,f
  5057  0736  3EFF               	addlw	-1
  5058  0737  1D03               	skipz
  5059  0738  2F34               	goto	u6265
  5060  0739  10FB               	bcf	(_bit1/8),(_bit1)&7
  5061  073A  1C20               	btfss	0+(??_lcd_add+0)+0,0
  5062  073B  2F3D               	goto	u6275
  5063  073C  14FB               	bsf	(_bit1/8),(_bit1)&7
  5064  073D                     u6275:
  5065                           
  5066                           	line	224
  5067                           ;lcdV2.h: 224: bit2 = lcd_data>>2;
  5068  073D  1283               	bcf	status, 5	;RP0=0, select bank0
  5069  073E  1303               	bcf	status, 6	;RP1=0, select bank0
  5070  073F  085F               	movf	(_lcd_data),w
  5071  0740  00A0               	movwf	(??_lcd_add+0)+0
  5072  0741  3002               	movlw	02h
  5073  0742                     u6285:
  5074  0742  1003               	clrc
  5075  0743  0CA0               	rrf	(??_lcd_add+0)+0,f
  5076  0744  3EFF               	addlw	-1
  5077  0745  1D03               	skipz
  5078  0746  2F42               	goto	u6285
  5079  0747  117B               	bcf	(_bit2/8),(_bit2)&7
  5080  0748  1C20               	btfss	0+(??_lcd_add+0)+0,0
  5081  0749  2F4B               	goto	u6295
  5082  074A  157B               	bsf	(_bit2/8),(_bit2)&7
  5083  074B                     u6295:
  5084                           
  5085                           	line	225
  5086                           ;lcdV2.h: 225: bit3 = lcd_data>>3;
  5087  074B  1283               	bcf	status, 5	;RP0=0, select bank0
  5088  074C  1303               	bcf	status, 6	;RP1=0, select bank0
  5089  074D  085F               	movf	(_lcd_data),w
  5090  074E  00A0               	movwf	(??_lcd_add+0)+0
  5091  074F  3003               	movlw	03h
  5092  0750                     u6305:
  5093  0750  1003               	clrc
  5094  0751  0CA0               	rrf	(??_lcd_add+0)+0,f
  5095  0752  3EFF               	addlw	-1
  5096  0753  1D03               	skipz
  5097  0754  2F50               	goto	u6305
  5098  0755  11FB               	bcf	(_bit3/8),(_bit3)&7
  5099  0756  1C20               	btfss	0+(??_lcd_add+0)+0,0
  5100  0757  2F59               	goto	u6315
  5101  0758  15FB               	bsf	(_bit3/8),(_bit3)&7
  5102  0759                     u6315:
  5103                           
  5104                           	line	226
  5105                           ;lcdV2.h: 226: bit4 = lcd_data>>4;
  5106  0759  1283               	bcf	status, 5	;RP0=0, select bank0
  5107  075A  1303               	bcf	status, 6	;RP1=0, select bank0
  5108  075B  085F               	movf	(_lcd_data),w
  5109  075C  00A0               	movwf	(??_lcd_add+0)+0
  5110  075D  3004               	movlw	04h
  5111  075E                     u6325:
  5112  075E  1003               	clrc
  5113  075F  0CA0               	rrf	(??_lcd_add+0)+0,f
  5114  0760  3EFF               	addlw	-1
  5115  0761  1D03               	skipz
  5116  0762  2F5E               	goto	u6325
  5117  0763  127B               	bcf	(_bit4/8),(_bit4)&7
  5118  0764  1C20               	btfss	0+(??_lcd_add+0)+0,0
  5119  0765  2F67               	goto	u6335
  5120  0766  167B               	bsf	(_bit4/8),(_bit4)&7
  5121  0767                     u6335:
  5122                           
  5123                           	line	227
  5124                           ;lcdV2.h: 227: bit5 = lcd_data>>5;
  5125  0767  1283               	bcf	status, 5	;RP0=0, select bank0
  5126  0768  1303               	bcf	status, 6	;RP1=0, select bank0
  5127  0769  085F               	movf	(_lcd_data),w
  5128  076A  00A0               	movwf	(??_lcd_add+0)+0
  5129  076B  3005               	movlw	05h
  5130  076C                     u6345:
  5131  076C  1003               	clrc
  5132  076D  0CA0               	rrf	(??_lcd_add+0)+0,f
  5133  076E  3EFF               	addlw	-1
  5134  076F  1D03               	skipz
  5135  0770  2F6C               	goto	u6345
  5136  0771  12FB               	bcf	(_bit5/8),(_bit5)&7
  5137  0772  1C20               	btfss	0+(??_lcd_add+0)+0,0
  5138  0773  2F75               	goto	u6355
  5139  0774  16FB               	bsf	(_bit5/8),(_bit5)&7
  5140  0775                     u6355:
  5141                           
  5142                           	line	228
  5143                           ;lcdV2.h: 228: bit6 = lcd_data>>6;
  5144  0775  1283               	bcf	status, 5	;RP0=0, select bank0
  5145  0776  1303               	bcf	status, 6	;RP1=0, select bank0
  5146  0777  085F               	movf	(_lcd_data),w
  5147  0778  00A0               	movwf	(??_lcd_add+0)+0
  5148  0779  3006               	movlw	06h
  5149  077A                     u6365:
  5150  077A  1003               	clrc
  5151  077B  0CA0               	rrf	(??_lcd_add+0)+0,f
  5152  077C  3EFF               	addlw	-1
  5153  077D  1D03               	skipz
  5154  077E  2F7A               	goto	u6365
  5155  077F  137B               	bcf	(_bit6/8),(_bit6)&7
  5156  0780  1C20               	btfss	0+(??_lcd_add+0)+0,0
  5157  0781  2F83               	goto	u6375
  5158  0782  177B               	bsf	(_bit6/8),(_bit6)&7
  5159  0783                     u6375:
  5160                           
  5161                           	line	229
  5162                           ;lcdV2.h: 229: bit7 = lcd_data>>7;
  5163  0783  1283               	bcf	status, 5	;RP0=0, select bank0
  5164  0784  1303               	bcf	status, 6	;RP1=0, select bank0
  5165  0785  085F               	movf	(_lcd_data),w
  5166  0786  00A0               	movwf	(??_lcd_add+0)+0
  5167  0787  3007               	movlw	07h
  5168  0788                     u6385:
  5169  0788  1003               	clrc
  5170  0789  0CA0               	rrf	(??_lcd_add+0)+0,f
  5171  078A  3EFF               	addlw	-1
  5172  078B  1D03               	skipz
  5173  078C  2F88               	goto	u6385
  5174  078D  13FB               	bcf	(_bit7/8),(_bit7)&7
  5175  078E  1C20               	btfss	0+(??_lcd_add+0)+0,0
  5176  078F  2F91               	goto	u6395
  5177  0790  17FB               	bsf	(_bit7/8),(_bit7)&7
  5178  0791                     u6395:
  5179                           
  5180                           	line	231
  5181                           	
  5182  0791                     l4859:	
  5183                           ;lcdV2.h: 231: RC3 = 0;
  5184  0791  1283               	bcf	status, 5	;RP0=0, select bank0
  5185  0792  1303               	bcf	status, 6	;RP1=0, select bank0
  5186  0793  1187               	bcf	(59/8),(59)&7
  5187                           	line	232
  5188                           	
  5189  0794                     l4861:	
  5190                           ;lcdV2.h: 232: _delay(1);
  5191                           		opt asmopt_off
  5192  0794  0064               	clrwdt
  5193                           	opt asmopt_on
  5194                           
  5195                           	line	233
  5196                           	
  5197  0795                     l4863:	
  5198                           ;lcdV2.h: 233: RC3 = 1;
  5199  0795  1283               	bcf	status, 5	;RP0=0, select bank0
  5200  0796  1303               	bcf	status, 6	;RP1=0, select bank0
  5201  0797  1587               	bsf	(59/8),(59)&7
  5202                           	line	234
  5203                           	
  5204  0798                     l4865:	
  5205                           ;lcdV2.h: 234: _delay(1);
  5206                           		opt asmopt_off
  5207  0798  0064               	clrwdt
  5208                           	opt asmopt_on
  5209                           
  5210                           	line	236
  5211                           	
  5212  0799                     l4867:	
  5213                           ;lcdV2.h: 236: RC1 = bit4;
  5214  0799  1A7B               	btfsc	(_bit4/8),(_bit4)&7
  5215  079A  2F9C               	goto	u6401
  5216  079B  2FA0               	goto	u6400
  5217                           	
  5218  079C                     u6401:
  5219  079C  1283               	bcf	status, 5	;RP0=0, select bank0
  5220  079D  1303               	bcf	status, 6	;RP1=0, select bank0
  5221  079E  1487               	bsf	(57/8),(57)&7
  5222  079F  2FA3               	goto	u6414
  5223  07A0                     u6400:
  5224  07A0  1283               	bcf	status, 5	;RP0=0, select bank0
  5225  07A1  1303               	bcf	status, 6	;RP1=0, select bank0
  5226  07A2  1087               	bcf	(57/8),(57)&7
  5227  07A3                     u6414:
  5228                           	line	237
  5229                           	
  5230  07A3                     l4869:	
  5231                           ;lcdV2.h: 237: RD0 = bit5;
  5232  07A3  1AFB               	btfsc	(_bit5/8),(_bit5)&7
  5233  07A4  2FA6               	goto	u6421
  5234  07A5  2FAA               	goto	u6420
  5235                           	
  5236  07A6                     u6421:
  5237  07A6  1283               	bcf	status, 5	;RP0=0, select bank0
  5238  07A7  1303               	bcf	status, 6	;RP1=0, select bank0
  5239  07A8  1408               	bsf	(64/8),(64)&7
  5240  07A9  2FAD               	goto	u6434
  5241  07AA                     u6420:
  5242  07AA  1283               	bcf	status, 5	;RP0=0, select bank0
  5243  07AB  1303               	bcf	status, 6	;RP1=0, select bank0
  5244  07AC  1008               	bcf	(64/8),(64)&7
  5245  07AD                     u6434:
  5246                           	line	238
  5247                           	
  5248  07AD                     l4871:	
  5249                           ;lcdV2.h: 238: RC0 = bit6;
  5250  07AD  1B7B               	btfsc	(_bit6/8),(_bit6)&7
  5251  07AE  2FB0               	goto	u6441
  5252  07AF  2FB4               	goto	u6440
  5253                           	
  5254  07B0                     u6441:
  5255  07B0  1283               	bcf	status, 5	;RP0=0, select bank0
  5256  07B1  1303               	bcf	status, 6	;RP1=0, select bank0
  5257  07B2  1407               	bsf	(56/8),(56)&7
  5258  07B3  2FB7               	goto	u6454
  5259  07B4                     u6440:
  5260  07B4  1283               	bcf	status, 5	;RP0=0, select bank0
  5261  07B5  1303               	bcf	status, 6	;RP1=0, select bank0
  5262  07B6  1007               	bcf	(56/8),(56)&7
  5263  07B7                     u6454:
  5264                           	line	239
  5265                           	
  5266  07B7                     l4873:	
  5267                           ;lcdV2.h: 239: RD1 = bit7;
  5268  07B7  1BFB               	btfsc	(_bit7/8),(_bit7)&7
  5269  07B8  2FBA               	goto	u6461
  5270  07B9  2FBE               	goto	u6460
  5271                           	
  5272  07BA                     u6461:
  5273  07BA  1283               	bcf	status, 5	;RP0=0, select bank0
  5274  07BB  1303               	bcf	status, 6	;RP1=0, select bank0
  5275  07BC  1488               	bsf	(65/8),(65)&7
  5276  07BD  2FC1               	goto	u6474
  5277  07BE                     u6460:
  5278  07BE  1283               	bcf	status, 5	;RP0=0, select bank0
  5279  07BF  1303               	bcf	status, 6	;RP1=0, select bank0
  5280  07C0  1088               	bcf	(65/8),(65)&7
  5281  07C1                     u6474:
  5282                           	line	241
  5283                           	
  5284  07C1                     l4875:	
  5285                           ;lcdV2.h: 241: _delay(1);
  5286                           		opt asmopt_off
  5287  07C1  0064               	clrwdt
  5288                           	opt asmopt_on
  5289                           
  5290                           	line	242
  5291                           	
  5292  07C2                     l4877:	
  5293                           ;lcdV2.h: 242: RC3 = 0;
  5294  07C2  1283               	bcf	status, 5	;RP0=0, select bank0
  5295  07C3  1303               	bcf	status, 6	;RP1=0, select bank0
  5296  07C4  1187               	bcf	(59/8),(59)&7
  5297                           	line	243
  5298                           	
  5299  07C5                     l4879:	
  5300                           ;lcdV2.h: 243: _delay(1);
  5301                           		opt asmopt_off
  5302  07C5  0064               	clrwdt
  5303                           	opt asmopt_on
  5304                           
  5305                           	line	247
  5306                           	
  5307  07C6                     l4881:	
  5308                           ;lcdV2.h: 247: RC3 = 0;
  5309  07C6  1283               	bcf	status, 5	;RP0=0, select bank0
  5310  07C7  1303               	bcf	status, 6	;RP1=0, select bank0
  5311  07C8  1187               	bcf	(59/8),(59)&7
  5312                           	line	248
  5313                           	
  5314  07C9                     l4883:	
  5315                           ;lcdV2.h: 248: _delay(1);
  5316                           		opt asmopt_off
  5317  07C9  0064               	clrwdt
  5318                           	opt asmopt_on
  5319                           
  5320                           	line	249
  5321                           	
  5322  07CA                     l4885:	
  5323                           ;lcdV2.h: 249: RC3 = 1;
  5324  07CA  1283               	bcf	status, 5	;RP0=0, select bank0
  5325  07CB  1303               	bcf	status, 6	;RP1=0, select bank0
  5326  07CC  1587               	bsf	(59/8),(59)&7
  5327                           	line	250
  5328                           	
  5329  07CD                     l4887:	
  5330                           ;lcdV2.h: 250: _delay(1);
  5331                           		opt asmopt_off
  5332  07CD  0064               	clrwdt
  5333                           	opt asmopt_on
  5334                           
  5335                           	line	252
  5336                           	
  5337  07CE                     l4889:	
  5338                           ;lcdV2.h: 252: RC1 = bit0;
  5339  07CE  187B               	btfsc	(_bit0/8),(_bit0)&7
  5340  07CF  2FD1               	goto	u6481
  5341  07D0  2FD5               	goto	u6480
  5342                           	
  5343  07D1                     u6481:
  5344  07D1  1283               	bcf	status, 5	;RP0=0, select bank0
  5345  07D2  1303               	bcf	status, 6	;RP1=0, select bank0
  5346  07D3  1487               	bsf	(57/8),(57)&7
  5347  07D4  2FD8               	goto	u6494
  5348  07D5                     u6480:
  5349  07D5  1283               	bcf	status, 5	;RP0=0, select bank0
  5350  07D6  1303               	bcf	status, 6	;RP1=0, select bank0
  5351  07D7  1087               	bcf	(57/8),(57)&7
  5352  07D8                     u6494:
  5353                           	line	253
  5354                           	
  5355  07D8                     l4891:	
  5356                           ;lcdV2.h: 253: RD0 = bit1;
  5357  07D8  18FB               	btfsc	(_bit1/8),(_bit1)&7
  5358  07D9  2FDB               	goto	u6501
  5359  07DA  2FDF               	goto	u6500
  5360                           	
  5361  07DB                     u6501:
  5362  07DB  1283               	bcf	status, 5	;RP0=0, select bank0
  5363  07DC  1303               	bcf	status, 6	;RP1=0, select bank0
  5364  07DD  1408               	bsf	(64/8),(64)&7
  5365  07DE  2FE2               	goto	u6514
  5366  07DF                     u6500:
  5367  07DF  1283               	bcf	status, 5	;RP0=0, select bank0
  5368  07E0  1303               	bcf	status, 6	;RP1=0, select bank0
  5369  07E1  1008               	bcf	(64/8),(64)&7
  5370  07E2                     u6514:
  5371                           	line	254
  5372                           	
  5373  07E2                     l4893:	
  5374                           ;lcdV2.h: 254: RC0 = bit2;
  5375  07E2  197B               	btfsc	(_bit2/8),(_bit2)&7
  5376  07E3  2FE5               	goto	u6521
  5377  07E4  2FE9               	goto	u6520
  5378                           	
  5379  07E5                     u6521:
  5380  07E5  1283               	bcf	status, 5	;RP0=0, select bank0
  5381  07E6  1303               	bcf	status, 6	;RP1=0, select bank0
  5382  07E7  1407               	bsf	(56/8),(56)&7
  5383  07E8  2FEC               	goto	u6534
  5384  07E9                     u6520:
  5385  07E9  1283               	bcf	status, 5	;RP0=0, select bank0
  5386  07EA  1303               	bcf	status, 6	;RP1=0, select bank0
  5387  07EB  1007               	bcf	(56/8),(56)&7
  5388  07EC                     u6534:
  5389                           	line	255
  5390                           	
  5391  07EC                     l4895:	
  5392                           ;lcdV2.h: 255: RD1 = bit3;
  5393  07EC  19FB               	btfsc	(_bit3/8),(_bit3)&7
  5394  07ED  2FEF               	goto	u6541
  5395  07EE  2FF3               	goto	u6540
  5396                           	
  5397  07EF                     u6541:
  5398  07EF  1283               	bcf	status, 5	;RP0=0, select bank0
  5399  07F0  1303               	bcf	status, 6	;RP1=0, select bank0
  5400  07F1  1488               	bsf	(65/8),(65)&7
  5401  07F2  2FF6               	goto	u6554
  5402  07F3                     u6540:
  5403  07F3  1283               	bcf	status, 5	;RP0=0, select bank0
  5404  07F4  1303               	bcf	status, 6	;RP1=0, select bank0
  5405  07F5  1088               	bcf	(65/8),(65)&7
  5406  07F6                     u6554:
  5407                           	line	257
  5408                           	
  5409  07F6                     l4897:	
  5410                           ;lcdV2.h: 257: _delay(1);
  5411                           		opt asmopt_off
  5412  07F6  0064               	clrwdt
  5413                           	opt asmopt_on
  5414                           
  5415                           	line	258
  5416                           	
  5417  07F7                     l4899:	
  5418                           ;lcdV2.h: 258: RC3 = 0;
  5419  07F7  1283               	bcf	status, 5	;RP0=0, select bank0
  5420  07F8  1303               	bcf	status, 6	;RP1=0, select bank0
  5421  07F9  1187               	bcf	(59/8),(59)&7
  5422                           	line	259
  5423                           	
  5424  07FA                     l4901:	
  5425                           ;lcdV2.h: 259: _delay(1);
  5426                           		opt asmopt_off
  5427  07FA  0064               	clrwdt
  5428                           	opt asmopt_on
  5429                           
  5430                           	line	260
  5431                           	
  5432  07FB                     l811:	
  5433  07FB  0008               	return
  5434                           	opt stack 0
  5435                           GLOBAL	__end_of_lcd_add
  5436  07FC                     	__end_of_lcd_add:
  5437 ;; =============== function _lcd_add ends ============
  5438                           
  5439                           	signat	_lcd_add,88
  5440                           	global	___lwmod
  5441                           psect	text645,local,class=CODE,delta=2
  5442                           global __ptext645
  5443  0B8A                     __ptext645:
  5444                           
  5445 ;; *************** function ___lwmod *****************
  5446 ;; Defined at:
  5447 ;;		line 5 in file "C:\Program Files (x86)\HI-TECH Software\PICC\9.83\sources\lwmod.c"
  5448 ;; Parameters:    Size  Location     Type
  5449 ;;  divisor         2    8[BANK0 ] unsigned int 
  5450 ;;  dividend        2   10[BANK0 ] unsigned int 
  5451 ;; Auto vars:     Size  Location     Type
  5452 ;;  counter         1   13[BANK0 ] unsigned char 
  5453 ;; Return value:  Size  Location     Type
  5454 ;;                  2    8[BANK0 ] unsigned int 
  5455 ;; Registers used:
  5456 ;;		wreg, status,2, status,0
  5457 ;; Tracked objects:
  5458 ;;		On entry : 0/0
  5459 ;;		On exit  : 0/0
  5460 ;;		Unchanged: 0/0
  5461 ;; Data sizes:     COMMON   BANK0   BANK1   BANK3   BANK2
  5462 ;;      Params:         0       4       0       0       0
  5463 ;;      Locals:         0       1       0       0       0
  5464 ;;      Temps:          0       1       0       0       0
  5465 ;;      Totals:         0       6       0       0       0
  5466 ;;Total ram usage:        6 bytes
  5467 ;; Hardware stack levels used:    1
  5468 ;; Hardware stack levels required when called:    3
  5469 ;; This function calls:
  5470 ;;		Nothing
  5471 ;; This function is called by:
  5472 ;;		_printf
  5473 ;;		_Serial_PrintlnVal
  5474 ;; This function uses a non-reentrant model
  5475 ;;
  5476                           psect	text645
  5477                           	file	"C:\Program Files (x86)\HI-TECH Software\PICC\9.83\sources\lwmod.c"
  5478                           	line	5
  5479                           	global	__size_of___lwmod
  5480  0046                     	__size_of___lwmod	equ	__end_of___lwmod-___lwmod
  5481                           	
  5482  0B8A                     ___lwmod:	
  5483                           	opt	stack 3
  5484                           ; Regs used in ___lwmod: [wreg+status,2+status,0]
  5485                           	line	8
  5486                           	
  5487  0B8A                     l4709:	
  5488  0B8A  1283               	bcf	status, 5	;RP0=0, select bank0
  5489  0B8B  1303               	bcf	status, 6	;RP1=0, select bank0
  5490  0B8C  0829               	movf	(___lwmod@divisor+1),w
  5491  0B8D  0428               	iorwf	(___lwmod@divisor),w
  5492  0B8E  1903               	skipnz
  5493  0B8F  2B91               	goto	u5661
  5494  0B90  2B92               	goto	u5660
  5495  0B91                     u5661:
  5496  0B91  2BC8               	goto	l4727
  5497  0B92                     u5660:
  5498                           	line	9
  5499                           	
  5500  0B92                     l4711:	
  5501  0B92  01AD               	clrf	(___lwmod@counter)
  5502  0B93  1403               	bsf	status,0
  5503  0B94  0DAD               	rlf	(___lwmod@counter),f
  5504                           	line	10
  5505  0B95  2BA2               	goto	l4717
  5506                           	
  5507  0B96                     l1815:	
  5508                           	line	11
  5509                           	
  5510  0B96                     l4713:	
  5511  0B96  3001               	movlw	01h
  5512                           	
  5513  0B97                     u5675:
  5514  0B97  1003               	clrc
  5515  0B98  0DA8               	rlf	(___lwmod@divisor),f
  5516  0B99  0DA9               	rlf	(___lwmod@divisor+1),f
  5517  0B9A  3EFF               	addlw	-1
  5518  0B9B  1D03               	skipz
  5519  0B9C  2B97               	goto	u5675
  5520                           	line	12
  5521                           	
  5522  0B9D                     l4715:	
  5523  0B9D  3001               	movlw	(01h)
  5524  0B9E  00AC               	movwf	(??___lwmod+0)+0
  5525  0B9F  082C               	movf	(??___lwmod+0)+0,w
  5526  0BA0  07AD               	addwf	(___lwmod@counter),f
  5527  0BA1  2BA2               	goto	l4717
  5528                           	line	13
  5529                           	
  5530  0BA2                     l1814:	
  5531                           	line	10
  5532                           	
  5533  0BA2                     l4717:	
  5534  0BA2  1FA9               	btfss	(___lwmod@divisor+1),(15)&7
  5535  0BA3  2BA5               	goto	u5681
  5536  0BA4  2BA6               	goto	u5680
  5537  0BA5                     u5681:
  5538  0BA5  2B96               	goto	l4713
  5539  0BA6                     u5680:
  5540  0BA6  2BA8               	goto	l4719
  5541                           	
  5542  0BA7                     l1816:	
  5543  0BA7  2BA8               	goto	l4719
  5544                           	line	14
  5545                           	
  5546  0BA8                     l1817:	
  5547                           	line	15
  5548                           	
  5549  0BA8                     l4719:	
  5550  0BA8  0829               	movf	(___lwmod@divisor+1),w
  5551  0BA9  022B               	subwf	(___lwmod@dividend+1),w
  5552  0BAA  1D03               	skipz
  5553  0BAB  2BAE               	goto	u5695
  5554  0BAC  0828               	movf	(___lwmod@divisor),w
  5555  0BAD  022A               	subwf	(___lwmod@dividend),w
  5556  0BAE                     u5695:
  5557  0BAE  1C03               	skipc
  5558  0BAF  2BB1               	goto	u5691
  5559  0BB0  2BB2               	goto	u5690
  5560  0BB1                     u5691:
  5561  0BB1  2BB9               	goto	l4723
  5562  0BB2                     u5690:
  5563                           	line	16
  5564                           	
  5565  0BB2                     l4721:	
  5566  0BB2  0828               	movf	(___lwmod@divisor),w
  5567  0BB3  02AA               	subwf	(___lwmod@dividend),f
  5568  0BB4  0829               	movf	(___lwmod@divisor+1),w
  5569  0BB5  1C03               	skipc
  5570  0BB6  03AB               	decf	(___lwmod@dividend+1),f
  5571  0BB7  02AB               	subwf	(___lwmod@dividend+1),f
  5572  0BB8  2BB9               	goto	l4723
  5573                           	
  5574  0BB9                     l1818:	
  5575                           	line	17
  5576                           	
  5577  0BB9                     l4723:	
  5578  0BB9  3001               	movlw	01h
  5579                           	
  5580  0BBA                     u5705:
  5581  0BBA  1003               	clrc
  5582  0BBB  0CA9               	rrf	(___lwmod@divisor+1),f
  5583  0BBC  0CA8               	rrf	(___lwmod@divisor),f
  5584  0BBD  3EFF               	addlw	-1
  5585  0BBE  1D03               	skipz
  5586  0BBF  2BBA               	goto	u5705
  5587                           	line	18
  5588                           	
  5589  0BC0                     l4725:	
  5590  0BC0  3001               	movlw	low(01h)
  5591  0BC1  02AD               	subwf	(___lwmod@counter),f
  5592  0BC2  1D03               	btfss	status,2
  5593  0BC3  2BC5               	goto	u5711
  5594  0BC4  2BC6               	goto	u5710
  5595  0BC5                     u5711:
  5596  0BC5  2BA8               	goto	l4719
  5597  0BC6                     u5710:
  5598  0BC6  2BC8               	goto	l4727
  5599                           	
  5600  0BC7                     l1819:	
  5601  0BC7  2BC8               	goto	l4727
  5602                           	line	19
  5603                           	
  5604  0BC8                     l1813:	
  5605                           	line	20
  5606                           	
  5607  0BC8                     l4727:	
  5608  0BC8  082B               	movf	(___lwmod@dividend+1),w
  5609  0BC9  01A9               	clrf	(?___lwmod+1)
  5610  0BCA  07A9               	addwf	(?___lwmod+1)
  5611  0BCB  082A               	movf	(___lwmod@dividend),w
  5612  0BCC  01A8               	clrf	(?___lwmod)
  5613  0BCD  07A8               	addwf	(?___lwmod)
  5614                           
  5615  0BCE  2BCF               	goto	l1820
  5616                           	
  5617  0BCF                     l4729:	
  5618                           	line	21
  5619                           	
  5620  0BCF                     l1820:	
  5621  0BCF  0008               	return
  5622                           	opt stack 0
  5623                           GLOBAL	__end_of___lwmod
  5624  0BD0                     	__end_of___lwmod:
  5625 ;; =============== function ___lwmod ends ============
  5626                           
  5627                           	signat	___lwmod,8314
  5628                           	global	___lwdiv
  5629                           psect	text646,local,class=CODE,delta=2
  5630                           global __ptext646
  5631  0BD0                     __ptext646:
  5632                           
  5633 ;; *************** function ___lwdiv *****************
  5634 ;; Defined at:
  5635 ;;		line 5 in file "C:\Program Files (x86)\HI-TECH Software\PICC\9.83\sources\lwdiv.c"
  5636 ;; Parameters:    Size  Location     Type
  5637 ;;  divisor         2    0[BANK0 ] unsigned int 
  5638 ;;  dividend        2    2[BANK0 ] unsigned int 
  5639 ;; Auto vars:     Size  Location     Type
  5640 ;;  quotient        2    5[BANK0 ] unsigned int 
  5641 ;;  counter         1    7[BANK0 ] unsigned char 
  5642 ;; Return value:  Size  Location     Type
  5643 ;;                  2    0[BANK0 ] unsigned int 
  5644 ;; Registers used:
  5645 ;;		wreg, status,2, status,0
  5646 ;; Tracked objects:
  5647 ;;		On entry : 0/0
  5648 ;;		On exit  : 0/0
  5649 ;;		Unchanged: 0/0
  5650 ;; Data sizes:     COMMON   BANK0   BANK1   BANK3   BANK2
  5651 ;;      Params:         0       4       0       0       0
  5652 ;;      Locals:         0       3       0       0       0
  5653 ;;      Temps:          0       1       0       0       0
  5654 ;;      Totals:         0       8       0       0       0
  5655 ;;Total ram usage:        8 bytes
  5656 ;; Hardware stack levels used:    1
  5657 ;; Hardware stack levels required when called:    3
  5658 ;; This function calls:
  5659 ;;		Nothing
  5660 ;; This function is called by:
  5661 ;;		_printf
  5662 ;;		_Serial_PrintlnVal
  5663 ;; This function uses a non-reentrant model
  5664 ;;
  5665                           psect	text646
  5666                           	file	"C:\Program Files (x86)\HI-TECH Software\PICC\9.83\sources\lwdiv.c"
  5667                           	line	5
  5668                           	global	__size_of___lwdiv
  5669  0050                     	__size_of___lwdiv	equ	__end_of___lwdiv-___lwdiv
  5670                           	
  5671  0BD0                     ___lwdiv:	
  5672                           	opt	stack 3
  5673                           ; Regs used in ___lwdiv: [wreg+status,2+status,0]
  5674                           	line	9
  5675                           	
  5676  0BD0                     l4683:	
  5677  0BD0  1283               	bcf	status, 5	;RP0=0, select bank0
  5678  0BD1  1303               	bcf	status, 6	;RP1=0, select bank0
  5679  0BD2  01A5               	clrf	(___lwdiv@quotient)
  5680  0BD3  01A6               	clrf	(___lwdiv@quotient+1)
  5681                           	line	10
  5682                           	
  5683  0BD4                     l4685:	
  5684  0BD4  0821               	movf	(___lwdiv@divisor+1),w
  5685  0BD5  0420               	iorwf	(___lwdiv@divisor),w
  5686  0BD6  1903               	skipnz
  5687  0BD7  2BD9               	goto	u5591
  5688  0BD8  2BDA               	goto	u5590
  5689  0BD9                     u5591:
  5690  0BD9  2C18               	goto	l4705
  5691  0BDA                     u5590:
  5692                           	line	11
  5693                           	
  5694  0BDA                     l4687:	
  5695  0BDA  01A7               	clrf	(___lwdiv@counter)
  5696  0BDB  1403               	bsf	status,0
  5697  0BDC  0DA7               	rlf	(___lwdiv@counter),f
  5698                           	line	12
  5699  0BDD  2BEA               	goto	l4693
  5700                           	
  5701  0BDE                     l1805:	
  5702                           	line	13
  5703                           	
  5704  0BDE                     l4689:	
  5705  0BDE  3001               	movlw	01h
  5706                           	
  5707  0BDF                     u5605:
  5708  0BDF  1003               	clrc
  5709  0BE0  0DA0               	rlf	(___lwdiv@divisor),f
  5710  0BE1  0DA1               	rlf	(___lwdiv@divisor+1),f
  5711  0BE2  3EFF               	addlw	-1
  5712  0BE3  1D03               	skipz
  5713  0BE4  2BDF               	goto	u5605
  5714                           	line	14
  5715                           	
  5716  0BE5                     l4691:	
  5717  0BE5  3001               	movlw	(01h)
  5718  0BE6  00A4               	movwf	(??___lwdiv+0)+0
  5719  0BE7  0824               	movf	(??___lwdiv+0)+0,w
  5720  0BE8  07A7               	addwf	(___lwdiv@counter),f
  5721  0BE9  2BEA               	goto	l4693
  5722                           	line	15
  5723                           	
  5724  0BEA                     l1804:	
  5725                           	line	12
  5726                           	
  5727  0BEA                     l4693:	
  5728  0BEA  1FA1               	btfss	(___lwdiv@divisor+1),(15)&7
  5729  0BEB  2BED               	goto	u5611
  5730  0BEC  2BEE               	goto	u5610
  5731  0BED                     u5611:
  5732  0BED  2BDE               	goto	l4689
  5733  0BEE                     u5610:
  5734  0BEE  2BF0               	goto	l4695
  5735                           	
  5736  0BEF                     l1806:	
  5737  0BEF  2BF0               	goto	l4695
  5738                           	line	16
  5739                           	
  5740  0BF0                     l1807:	
  5741                           	line	17
  5742                           	
  5743  0BF0                     l4695:	
  5744  0BF0  3001               	movlw	01h
  5745                           	
  5746  0BF1                     u5625:
  5747  0BF1  1003               	clrc
  5748  0BF2  0DA5               	rlf	(___lwdiv@quotient),f
  5749  0BF3  0DA6               	rlf	(___lwdiv@quotient+1),f
  5750  0BF4  3EFF               	addlw	-1
  5751  0BF5  1D03               	skipz
  5752  0BF6  2BF1               	goto	u5625
  5753                           	line	18
  5754  0BF7  0821               	movf	(___lwdiv@divisor+1),w
  5755  0BF8  0223               	subwf	(___lwdiv@dividend+1),w
  5756  0BF9  1D03               	skipz
  5757  0BFA  2BFD               	goto	u5635
  5758  0BFB  0820               	movf	(___lwdiv@divisor),w
  5759  0BFC  0222               	subwf	(___lwdiv@dividend),w
  5760  0BFD                     u5635:
  5761  0BFD  1C03               	skipc
  5762  0BFE  2C00               	goto	u5631
  5763  0BFF  2C01               	goto	u5630
  5764  0C00                     u5631:
  5765  0C00  2C09               	goto	l4701
  5766  0C01                     u5630:
  5767                           	line	19
  5768                           	
  5769  0C01                     l4697:	
  5770  0C01  0820               	movf	(___lwdiv@divisor),w
  5771  0C02  02A2               	subwf	(___lwdiv@dividend),f
  5772  0C03  0821               	movf	(___lwdiv@divisor+1),w
  5773  0C04  1C03               	skipc
  5774  0C05  03A3               	decf	(___lwdiv@dividend+1),f
  5775  0C06  02A3               	subwf	(___lwdiv@dividend+1),f
  5776                           	line	20
  5777                           	
  5778  0C07                     l4699:	
  5779  0C07  1425               	bsf	(___lwdiv@quotient)+(0/8),(0)&7
  5780  0C08  2C09               	goto	l4701
  5781                           	line	21
  5782                           	
  5783  0C09                     l1808:	
  5784                           	line	22
  5785                           	
  5786  0C09                     l4701:	
  5787  0C09  3001               	movlw	01h
  5788                           	
  5789  0C0A                     u5645:
  5790  0C0A  1003               	clrc
  5791  0C0B  0CA1               	rrf	(___lwdiv@divisor+1),f
  5792  0C0C  0CA0               	rrf	(___lwdiv@divisor),f
  5793  0C0D  3EFF               	addlw	-1
  5794  0C0E  1D03               	skipz
  5795  0C0F  2C0A               	goto	u5645
  5796                           	line	23
  5797                           	
  5798  0C10                     l4703:	
  5799  0C10  3001               	movlw	low(01h)
  5800  0C11  02A7               	subwf	(___lwdiv@counter),f
  5801  0C12  1D03               	btfss	status,2
  5802  0C13  2C15               	goto	u5651
  5803  0C14  2C16               	goto	u5650
  5804  0C15                     u5651:
  5805  0C15  2BF0               	goto	l4695
  5806  0C16                     u5650:
  5807  0C16  2C18               	goto	l4705
  5808                           	
  5809  0C17                     l1809:	
  5810  0C17  2C18               	goto	l4705
  5811                           	line	24
  5812                           	
  5813  0C18                     l1803:	
  5814                           	line	25
  5815                           	
  5816  0C18                     l4705:	
  5817  0C18  0826               	movf	(___lwdiv@quotient+1),w
  5818  0C19  01A1               	clrf	(?___lwdiv+1)
  5819  0C1A  07A1               	addwf	(?___lwdiv+1)
  5820  0C1B  0825               	movf	(___lwdiv@quotient),w
  5821  0C1C  01A0               	clrf	(?___lwdiv)
  5822  0C1D  07A0               	addwf	(?___lwdiv)
  5823                           
  5824  0C1E  2C1F               	goto	l1810
  5825                           	
  5826  0C1F                     l4707:	
  5827                           	line	26
  5828                           	
  5829  0C1F                     l1810:	
  5830  0C1F  0008               	return
  5831                           	opt stack 0
  5832                           GLOBAL	__end_of___lwdiv
  5833  0C20                     	__end_of___lwdiv:
  5834 ;; =============== function ___lwdiv ends ============
  5835                           
  5836                           	signat	___lwdiv,8314
  5837                           	global	___wmul
  5838                           psect	text647,local,class=CODE,delta=2
  5839                           global __ptext647
  5840  0AAF                     __ptext647:
  5841                           
  5842 ;; *************** function ___wmul *****************
  5843 ;; Defined at:
  5844 ;;		line 3 in file "C:\Program Files (x86)\HI-TECH Software\PICC\9.83\sources\wmul.c"
  5845 ;; Parameters:    Size  Location     Type
  5846 ;;  multiplier      2    0[BANK0 ] unsigned int 
  5847 ;;  multiplicand    2    2[BANK0 ] unsigned int 
  5848 ;; Auto vars:     Size  Location     Type
  5849 ;;  product         2    4[BANK0 ] unsigned int 
  5850 ;; Return value:  Size  Location     Type
  5851 ;;                  2    0[BANK0 ] unsigned int 
  5852 ;; Registers used:
  5853 ;;		wreg, status,2, status,0
  5854 ;; Tracked objects:
  5855 ;;		On entry : 0/0
  5856 ;;		On exit  : 0/0
  5857 ;;		Unchanged: 0/0
  5858 ;; Data sizes:     COMMON   BANK0   BANK1   BANK3   BANK2
  5859 ;;      Params:         0       4       0       0       0
  5860 ;;      Locals:         0       2       0       0       0
  5861 ;;      Temps:          0       0       0       0       0
  5862 ;;      Totals:         0       6       0       0       0
  5863 ;;Total ram usage:        6 bytes
  5864 ;; Hardware stack levels used:    1
  5865 ;; Hardware stack levels required when called:    3
  5866 ;; This function calls:
  5867 ;;		Nothing
  5868 ;; This function is called by:
  5869 ;;		_printf
  5870 ;; This function uses a non-reentrant model
  5871 ;;
  5872                           psect	text647
  5873                           	file	"C:\Program Files (x86)\HI-TECH Software\PICC\9.83\sources\wmul.c"
  5874                           	line	3
  5875                           	global	__size_of___wmul
  5876  002C                     	__size_of___wmul	equ	__end_of___wmul-___wmul
  5877                           	
  5878  0AAF                     ___wmul:	
  5879                           	opt	stack 3
  5880                           ; Regs used in ___wmul: [wreg+status,2+status,0]
  5881                           	line	4
  5882                           	
  5883  0AAF                     l4671:	
  5884  0AAF  1283               	bcf	status, 5	;RP0=0, select bank0
  5885  0AB0  1303               	bcf	status, 6	;RP1=0, select bank0
  5886  0AB1  01A4               	clrf	(___wmul@product)
  5887  0AB2  01A5               	clrf	(___wmul@product+1)
  5888  0AB3  2AB4               	goto	l4673
  5889                           	line	6
  5890                           	
  5891  0AB4                     l1797:	
  5892                           	line	7
  5893                           	
  5894  0AB4                     l4673:	
  5895  0AB4  1C20               	btfss	(___wmul@multiplier),(0)&7
  5896  0AB5  2AB7               	goto	u5551
  5897  0AB6  2AB8               	goto	u5550
  5898  0AB7                     u5551:
  5899  0AB7  2ABE               	goto	l1798
  5900  0AB8                     u5550:
  5901                           	line	8
  5902                           	
  5903  0AB8                     l4675:	
  5904  0AB8  0822               	movf	(___wmul@multiplicand),w
  5905  0AB9  07A4               	addwf	(___wmul@product),f
  5906  0ABA  1803               	skipnc
  5907  0ABB  0AA5               	incf	(___wmul@product+1),f
  5908  0ABC  0823               	movf	(___wmul@multiplicand+1),w
  5909  0ABD  07A5               	addwf	(___wmul@product+1),f
  5910                           	
  5911  0ABE                     l1798:	
  5912                           	line	9
  5913  0ABE  3001               	movlw	01h
  5914                           	
  5915  0ABF                     u5565:
  5916  0ABF  1003               	clrc
  5917  0AC0  0DA2               	rlf	(___wmul@multiplicand),f
  5918  0AC1  0DA3               	rlf	(___wmul@multiplicand+1),f
  5919  0AC2  3EFF               	addlw	-1
  5920  0AC3  1D03               	skipz
  5921  0AC4  2ABF               	goto	u5565
  5922                           	line	10
  5923                           	
  5924  0AC5                     l4677:	
  5925  0AC5  3001               	movlw	01h
  5926                           	
  5927  0AC6                     u5575:
  5928  0AC6  1003               	clrc
  5929  0AC7  0CA1               	rrf	(___wmul@multiplier+1),f
  5930  0AC8  0CA0               	rrf	(___wmul@multiplier),f
  5931  0AC9  3EFF               	addlw	-1
  5932  0ACA  1D03               	skipz
  5933  0ACB  2AC6               	goto	u5575
  5934                           	line	11
  5935  0ACC  0821               	movf	((___wmul@multiplier+1)),w
  5936  0ACD  0420               	iorwf	((___wmul@multiplier)),w
  5937  0ACE  1D03               	skipz
  5938  0ACF  2AD1               	goto	u5581
  5939  0AD0  2AD2               	goto	u5580
  5940  0AD1                     u5581:
  5941  0AD1  2AB4               	goto	l4673
  5942  0AD2                     u5580:
  5943  0AD2  2AD3               	goto	l4679
  5944                           	
  5945  0AD3                     l1799:	
  5946                           	line	12
  5947                           	
  5948  0AD3                     l4679:	
  5949  0AD3  0825               	movf	(___wmul@product+1),w
  5950  0AD4  01A1               	clrf	(?___wmul+1)
  5951  0AD5  07A1               	addwf	(?___wmul+1)
  5952  0AD6  0824               	movf	(___wmul@product),w
  5953  0AD7  01A0               	clrf	(?___wmul)
  5954  0AD8  07A0               	addwf	(?___wmul)
  5955                           
  5956  0AD9  2ADA               	goto	l1800
  5957                           	
  5958  0ADA                     l4681:	
  5959                           	line	13
  5960                           	
  5961  0ADA                     l1800:	
  5962  0ADA  0008               	return
  5963                           	opt stack 0
  5964                           GLOBAL	__end_of___wmul
  5965  0ADB                     	__end_of___wmul:
  5966 ;; =============== function ___wmul ends ============
  5967                           
  5968                           	signat	___wmul,8314
  5969                           	global	___bmul
  5970                           psect	text648,local,class=CODE,delta=2
  5971                           global __ptext648
  5972  09D2                     __ptext648:
  5973                           
  5974 ;; *************** function ___bmul *****************
  5975 ;; Defined at:
  5976 ;;		line 3 in file "C:\Program Files (x86)\HI-TECH Software\PICC\9.83\sources\bmul.c"
  5977 ;; Parameters:    Size  Location     Type
  5978 ;;  multiplier      1    wreg     unsigned char 
  5979 ;;  multiplicand    1    0[BANK0 ] unsigned char 
  5980 ;; Auto vars:     Size  Location     Type
  5981 ;;  multiplier      1    3[BANK0 ] unsigned char 
  5982 ;;  product         1    2[BANK0 ] unsigned char 
  5983 ;; Return value:  Size  Location     Type
  5984 ;;                  1    wreg      unsigned char 
  5985 ;; Registers used:
  5986 ;;		wreg, status,2, status,0
  5987 ;; Tracked objects:
  5988 ;;		On entry : 0/0
  5989 ;;		On exit  : 0/0
  5990 ;;		Unchanged: 0/0
  5991 ;; Data sizes:     COMMON   BANK0   BANK1   BANK3   BANK2
  5992 ;;      Params:         0       1       0       0       0
  5993 ;;      Locals:         0       2       0       0       0
  5994 ;;      Temps:          0       1       0       0       0
  5995 ;;      Totals:         0       4       0       0       0
  5996 ;;Total ram usage:        4 bytes
  5997 ;; Hardware stack levels used:    1
  5998 ;; Hardware stack levels required when called:    3
  5999 ;; This function calls:
  6000 ;;		Nothing
  6001 ;; This function is called by:
  6002 ;;		_printf
  6003 ;; This function uses a non-reentrant model
  6004 ;;
  6005                           psect	text648
  6006                           	file	"C:\Program Files (x86)\HI-TECH Software\PICC\9.83\sources\bmul.c"
  6007                           	line	3
  6008                           	global	__size_of___bmul
  6009  001A                     	__size_of___bmul	equ	__end_of___bmul-___bmul
  6010                           	
  6011  09D2                     ___bmul:	
  6012                           	opt	stack 3
  6013                           ; Regs used in ___bmul: [wreg+status,2+status,0]
  6014                           ;___bmul@multiplier stored from wreg
  6015  09D2  1283               	bcf	status, 5	;RP0=0, select bank0
  6016  09D3  1303               	bcf	status, 6	;RP1=0, select bank0
  6017  09D4  00A3               	movwf	(___bmul@multiplier)
  6018                           	line	4
  6019                           	
  6020  09D5                     l4657:	
  6021  09D5  01A2               	clrf	(___bmul@product)
  6022                           	line	6
  6023                           	
  6024  09D6                     l1791:	
  6025                           	line	7
  6026  09D6  1C23               	btfss	(___bmul@multiplier),(0)&7
  6027  09D7  29D9               	goto	u5531
  6028  09D8  29DA               	goto	u5530
  6029  09D9                     u5531:
  6030  09D9  29DF               	goto	l4661
  6031  09DA                     u5530:
  6032                           	line	8
  6033                           	
  6034  09DA                     l4659:	
  6035  09DA  0820               	movf	(___bmul@multiplicand),w
  6036  09DB  00A1               	movwf	(??___bmul+0)+0
  6037  09DC  0821               	movf	(??___bmul+0)+0,w
  6038  09DD  07A2               	addwf	(___bmul@product),f
  6039  09DE  29DF               	goto	l4661
  6040                           	
  6041  09DF                     l1792:	
  6042                           	line	9
  6043                           	
  6044  09DF                     l4661:	
  6045  09DF  1003               	clrc
  6046  09E0  0DA0               	rlf	(___bmul@multiplicand),f
  6047                           
  6048                           	line	10
  6049                           	
  6050  09E1                     l4663:	
  6051  09E1  1003               	clrc
  6052  09E2  0CA3               	rrf	(___bmul@multiplier),f
  6053                           
  6054                           	line	11
  6055                           	
  6056  09E3                     l4665:	
  6057  09E3  08A3               	movf	(___bmul@multiplier),f
  6058  09E4  1D03               	skipz
  6059  09E5  29E7               	goto	u5541
  6060  09E6  29E8               	goto	u5540
  6061  09E7                     u5541:
  6062  09E7  29D6               	goto	l1791
  6063  09E8                     u5540:
  6064  09E8  29E9               	goto	l4667
  6065                           	
  6066  09E9                     l1793:	
  6067                           	line	12
  6068                           	
  6069  09E9                     l4667:	
  6070  09E9  0822               	movf	(___bmul@product),w
  6071  09EA  29EB               	goto	l1794
  6072                           	
  6073  09EB                     l4669:	
  6074                           	line	13
  6075                           	
  6076  09EB                     l1794:	
  6077  09EB  0008               	return
  6078                           	opt stack 0
  6079                           GLOBAL	__end_of___bmul
  6080  09EC                     	__end_of___bmul:
  6081 ;; =============== function ___bmul ends ============
  6082                           
  6083                           	signat	___bmul,8313
  6084                           	global	_isdigit
  6085                           psect	text649,local,class=CODE,delta=2
  6086                           global __ptext649
  6087  09BB                     __ptext649:
  6088                           
  6089 ;; *************** function _isdigit *****************
  6090 ;; Defined at:
  6091 ;;		line 13 in file "C:\Program Files (x86)\HI-TECH Software\PICC\9.83\sources\isdigit.c"
  6092 ;; Parameters:    Size  Location     Type
  6093 ;;  c               1    wreg     unsigned char 
  6094 ;; Auto vars:     Size  Location     Type
  6095 ;;  c               1    1[BANK0 ] unsigned char 
  6096 ;; Return value:  Size  Location     Type
  6097 ;;		None               void
  6098 ;; Registers used:
  6099 ;;		wreg, status,2, status,0
  6100 ;; Tracked objects:
  6101 ;;		On entry : 0/0
  6102 ;;		On exit  : 0/0
  6103 ;;		Unchanged: 0/0
  6104 ;; Data sizes:     COMMON   BANK0   BANK1   BANK3   BANK2
  6105 ;;      Params:         0       0       0       0       0
  6106 ;;      Locals:         0       2       0       0       0
  6107 ;;      Temps:          0       0       0       0       0
  6108 ;;      Totals:         0       2       0       0       0
  6109 ;;Total ram usage:        2 bytes
  6110 ;; Hardware stack levels used:    1
  6111 ;; Hardware stack levels required when called:    3
  6112 ;; This function calls:
  6113 ;;		Nothing
  6114 ;; This function is called by:
  6115 ;;		_printf
  6116 ;; This function uses a non-reentrant model
  6117 ;;
  6118                           psect	text649
  6119                           	file	"C:\Program Files (x86)\HI-TECH Software\PICC\9.83\sources\isdigit.c"
  6120                           	global	__size_of_isdigit
  6121  0017                     	__size_of_isdigit	equ	__end_of_isdigit-_isdigit
  6122                           	
  6123  09BB                     _isdigit:	
  6124                           	opt	stack 3
  6125                           ; Regs used in _isdigit: [wreg+status,2+status,0]
  6126                           ;isdigit@c stored from wreg
  6127  09BB  1283               	bcf	status, 5	;RP0=0, select bank0
  6128  09BC  1303               	bcf	status, 6	;RP1=0, select bank0
  6129  09BD  00A1               	movwf	(isdigit@c)
  6130                           	line	14
  6131                           	
  6132  09BE                     l4645:	
  6133  09BE  01A0               	clrf	(_isdigit$1750)
  6134                           	
  6135  09BF                     l4647:	
  6136  09BF  303A               	movlw	(03Ah)
  6137  09C0  0221               	subwf	(isdigit@c),w
  6138  09C1  1803               	skipnc
  6139  09C2  29C4               	goto	u5511
  6140  09C3  29C5               	goto	u5510
  6141  09C4                     u5511:
  6142  09C4  29CF               	goto	l4653
  6143  09C5                     u5510:
  6144                           	
  6145  09C5                     l4649:	
  6146  09C5  3030               	movlw	(030h)
  6147  09C6  0221               	subwf	(isdigit@c),w
  6148  09C7  1C03               	skipc
  6149  09C8  29CA               	goto	u5521
  6150  09C9  29CB               	goto	u5520
  6151  09CA                     u5521:
  6152  09CA  29CF               	goto	l4653
  6153  09CB                     u5520:
  6154                           	
  6155  09CB                     l4651:	
  6156  09CB  01A0               	clrf	(_isdigit$1750)
  6157  09CC  1403               	bsf	status,0
  6158  09CD  0DA0               	rlf	(_isdigit$1750),f
  6159  09CE  29CF               	goto	l4653
  6160                           	
  6161  09CF                     l1787:	
  6162                           	
  6163  09CF                     l4653:	
  6164  09CF  0C20               	rrf	(_isdigit$1750),w
  6165                           	
  6166  09D0  29D1               	goto	l1788
  6167                           	
  6168  09D1                     l4655:	
  6169                           	line	15
  6170                           	
  6171  09D1                     l1788:	
  6172  09D1  0008               	return
  6173                           	opt stack 0
  6174                           GLOBAL	__end_of_isdigit
  6175  09D2                     	__end_of_isdigit:
  6176 ;; =============== function _isdigit ends ============
  6177                           
  6178                           	signat	_isdigit,4216
  6179                           	global	_Timer1_Init
  6180                           psect	text650,local,class=CODE,delta=2
  6181                           global __ptext650
  6182  0999                     __ptext650:
  6183                           
  6184 ;; *************** function _Timer1_Init *****************
  6185 ;; Defined at:
  6186 ;;		line 4 in file "D:\ELECTRONIC\2016\1. Automated Solar Panel Orientation Setter\Firmware\Test2\timer1.h"
  6187 ;; Parameters:    Size  Location     Type
  6188 ;;		None
  6189 ;; Auto vars:     Size  Location     Type
  6190 ;;		None
  6191 ;; Return value:  Size  Location     Type
  6192 ;;		None               void
  6193 ;; Registers used:
  6194 ;;		wreg
  6195 ;; Tracked objects:
  6196 ;;		On entry : 0/0
  6197 ;;		On exit  : 0/0
  6198 ;;		Unchanged: 0/0
  6199 ;; Data sizes:     COMMON   BANK0   BANK1   BANK3   BANK2
  6200 ;;      Params:         0       0       0       0       0
  6201 ;;      Locals:         0       0       0       0       0
  6202 ;;      Temps:          0       0       0       0       0
  6203 ;;      Totals:         0       0       0       0       0
  6204 ;;Total ram usage:        0 bytes
  6205 ;; Hardware stack levels used:    1
  6206 ;; Hardware stack levels required when called:    3
  6207 ;; This function calls:
  6208 ;;		Nothing
  6209 ;; This function is called by:
  6210 ;;		_main
  6211 ;; This function uses a non-reentrant model
  6212 ;;
  6213                           psect	text650
  6214                           	file	"D:\ELECTRONIC\2016\1. Automated Solar Panel Orientation Setter\Firmware\Test2\tim
                                 er1.h"
  6215                           	line	4
  6216                           	global	__size_of_Timer1_Init
  6217  000F                     	__size_of_Timer1_Init	equ	__end_of_Timer1_Init-_Timer1_Init
  6218                           	
  6219  0999                     _Timer1_Init:	
  6220                           	opt	stack 4
  6221                           ; Regs used in _Timer1_Init: [wreg]
  6222                           	line	6
  6223                           	
  6224  0999                     l4483:	
  6225                           ;timer1.h: 6: T1CKPS1 = 0;
  6226  0999  1283               	bcf	status, 5	;RP0=0, select bank0
  6227  099A  1303               	bcf	status, 6	;RP1=0, select bank0
  6228  099B  1290               	bcf	(133/8),(133)&7
  6229                           	line	7
  6230                           ;timer1.h: 7: T1CKPS0 = 1;
  6231  099C  1610               	bsf	(132/8),(132)&7
  6232                           	line	8
  6233                           ;timer1.h: 8: TMR1CS = 0;
  6234  099D  1090               	bcf	(129/8),(129)&7
  6235                           	line	9
  6236                           ;timer1.h: 9: TMR1ON = 1;
  6237  099E  1410               	bsf	(128/8),(128)&7
  6238                           	line	10
  6239                           ;timer1.h: 10: T1OSCEN = 0;
  6240  099F  1190               	bcf	(131/8),(131)&7
  6241                           	line	11
  6242                           	
  6243  09A0                     l4485:	
  6244                           ;timer1.h: 11: TMR1L = 0xB0;
  6245  09A0  30B0               	movlw	(0B0h)
  6246  09A1  008E               	movwf	(14)	;volatile
  6247                           	line	12
  6248                           ;timer1.h: 12: TMR1H = 60;
  6249  09A2  303C               	movlw	(03Ch)
  6250  09A3  008F               	movwf	(15)	;volatile
  6251                           	line	13
  6252                           	
  6253  09A4                     l4487:	
  6254                           ;timer1.h: 13: TMR1IE = 1;
  6255  09A4  1683               	bsf	status, 5	;RP0=1, select bank1
  6256  09A5  1303               	bcf	status, 6	;RP1=0, select bank1
  6257  09A6  140C               	bsf	(1120/8)^080h,(1120)&7
  6258                           	line	14
  6259                           	
  6260  09A7                     l871:	
  6261  09A7  0008               	return
  6262                           	opt stack 0
  6263                           GLOBAL	__end_of_Timer1_Init
  6264  09A8                     	__end_of_Timer1_Init:
  6265 ;; =============== function _Timer1_Init ends ============
  6266                           
  6267                           	signat	_Timer1_Init,88
  6268                           	global	_enableInterrupt
  6269                           psect	text651,local,class=CODE,delta=2
  6270                           global __ptext651
  6271  09A8                     __ptext651:
  6272                           
  6273 ;; *************** function _enableInterrupt *****************
  6274 ;; Defined at:
  6275 ;;		line 7 in file "D:\ELECTRONIC\2016\1. Automated Solar Panel Orientation Setter\Firmware\Test2\interrupts.h"
  6276 ;; Parameters:    Size  Location     Type
  6277 ;;		None
  6278 ;; Auto vars:     Size  Location     Type
  6279 ;;		None
  6280 ;; Return value:  Size  Location     Type
  6281 ;;		None               void
  6282 ;; Registers used:
  6283 ;;		None
  6284 ;; Tracked objects:
  6285 ;;		On entry : 0/0
  6286 ;;		On exit  : 0/0
  6287 ;;		Unchanged: 0/0
  6288 ;; Data sizes:     COMMON   BANK0   BANK1   BANK3   BANK2
  6289 ;;      Params:         0       0       0       0       0
  6290 ;;      Locals:         0       0       0       0       0
  6291 ;;      Temps:          0       0       0       0       0
  6292 ;;      Totals:         0       0       0       0       0
  6293 ;;Total ram usage:        0 bytes
  6294 ;; Hardware stack levels used:    1
  6295 ;; Hardware stack levels required when called:    3
  6296 ;; This function calls:
  6297 ;;		Nothing
  6298 ;; This function is called by:
  6299 ;;		_main
  6300 ;; This function uses a non-reentrant model
  6301 ;;
  6302                           psect	text651
  6303                           	file	"D:\ELECTRONIC\2016\1. Automated Solar Panel Orientation Setter\Firmware\Test2\int
                                 errupts.h"
  6304                           	line	7
  6305                           	global	__size_of_enableInterrupt
  6306  0013                     	__size_of_enableInterrupt	equ	__end_of_enableInterrupt-_enableInterrupt
  6307                           	
  6308  09A8                     _enableInterrupt:	
  6309                           	opt	stack 4
  6310                           ; Regs used in _enableInterrupt: []
  6311                           	line	9
  6312                           	
  6313  09A8                     l4481:	
  6314                           ;interrupts.h: 9: RBIE = 0;
  6315  09A8  118B               	bcf	(91/8),(91)&7
  6316                           	line	10
  6317                           ;interrupts.h: 10: INTE = 0;
  6318  09A9  120B               	bcf	(92/8),(92)&7
  6319                           	line	12
  6320                           ;interrupts.h: 12: PSPIE = 0;
  6321  09AA  1683               	bsf	status, 5	;RP0=1, select bank1
  6322  09AB  1303               	bcf	status, 6	;RP1=0, select bank1
  6323  09AC  138C               	bcf	(1127/8)^080h,(1127)&7
  6324                           	line	13
  6325                           ;interrupts.h: 13: ADIE = 0;
  6326  09AD  130C               	bcf	(1126/8)^080h,(1126)&7
  6327                           	line	15
  6328                           ;interrupts.h: 15: TXIE = 0;
  6329  09AE  120C               	bcf	(1124/8)^080h,(1124)&7
  6330                           	line	16
  6331                           ;interrupts.h: 16: RCIE = 1;
  6332  09AF  168C               	bsf	(1125/8)^080h,(1125)&7
  6333                           	line	18
  6334                           ;interrupts.h: 18: SSPIE = 0;
  6335  09B0  118C               	bcf	(1123/8)^080h,(1123)&7
  6336                           	line	19
  6337                           ;interrupts.h: 19: CCP1IE = 0;
  6338  09B1  110C               	bcf	(1122/8)^080h,(1122)&7
  6339                           	line	21
  6340                           ;interrupts.h: 21: TMR1IE = 1;
  6341  09B2  140C               	bsf	(1120/8)^080h,(1120)&7
  6342                           	line	22
  6343                           ;interrupts.h: 22: TMR2IE = 0;
  6344  09B3  108C               	bcf	(1121/8)^080h,(1121)&7
  6345                           	line	23
  6346                           ;interrupts.h: 23: T0IE = 0;
  6347  09B4  128B               	bcf	(93/8),(93)&7
  6348                           	line	25
  6349                           ;interrupts.h: 25: EEIE = 0;
  6350  09B5  120D               	bcf	(1132/8)^080h,(1132)&7
  6351                           	line	26
  6352                           ;interrupts.h: 26: BCLIE = 0;
  6353  09B6  118D               	bcf	(1131/8)^080h,(1131)&7
  6354                           	line	27
  6355                           ;interrupts.h: 27: CCP2IE = 0;
  6356  09B7  100D               	bcf	(1128/8)^080h,(1128)&7
  6357                           	line	30
  6358                           ;interrupts.h: 30: GIE = 1;
  6359  09B8  178B               	bsf	(95/8),(95)&7
  6360                           	line	31
  6361                           ;interrupts.h: 31: PEIE = 1;
  6362  09B9  170B               	bsf	(94/8),(94)&7
  6363                           	line	32
  6364                           	
  6365  09BA                     l868:	
  6366  09BA  0008               	return
  6367                           	opt stack 0
  6368                           GLOBAL	__end_of_enableInterrupt
  6369  09BB                     	__end_of_enableInterrupt:
  6370 ;; =============== function _enableInterrupt ends ============
  6371                           
  6372                           	signat	_enableInterrupt,88
  6373                           	global	_atod_init
  6374                           psect	text652,local,class=CODE,delta=2
  6375                           global __ptext652
  6376  0990                     __ptext652:
  6377                           
  6378 ;; *************** function _atod_init *****************
  6379 ;; Defined at:
  6380 ;;		line 9 in file "D:\ELECTRONIC\2016\1. Automated Solar Panel Orientation Setter\Firmware\Test2\a2d.h"
  6381 ;; Parameters:    Size  Location     Type
  6382 ;;		None
  6383 ;; Auto vars:     Size  Location     Type
  6384 ;;		None
  6385 ;; Return value:  Size  Location     Type
  6386 ;;		None               void
  6387 ;; Registers used:
  6388 ;;		wreg
  6389 ;; Tracked objects:
  6390 ;;		On entry : 0/0
  6391 ;;		On exit  : 0/0
  6392 ;;		Unchanged: 0/0
  6393 ;; Data sizes:     COMMON   BANK0   BANK1   BANK3   BANK2
  6394 ;;      Params:         0       0       0       0       0
  6395 ;;      Locals:         0       0       0       0       0
  6396 ;;      Temps:          0       0       0       0       0
  6397 ;;      Totals:         0       0       0       0       0
  6398 ;;Total ram usage:        0 bytes
  6399 ;; Hardware stack levels used:    1
  6400 ;; Hardware stack levels required when called:    3
  6401 ;; This function calls:
  6402 ;;		Nothing
  6403 ;; This function is called by:
  6404 ;;		_main
  6405 ;; This function uses a non-reentrant model
  6406 ;;
  6407                           psect	text652
  6408                           	file	"D:\ELECTRONIC\2016\1. Automated Solar Panel Orientation Setter\Firmware\Test2\a2d
                                 .h"
  6409                           	line	9
  6410                           	global	__size_of_atod_init
  6411  0009                     	__size_of_atod_init	equ	__end_of_atod_init-_atod_init
  6412                           	
  6413  0990                     _atod_init:	
  6414                           	opt	stack 4
  6415                           ; Regs used in _atod_init: [wreg]
  6416                           	line	10
  6417                           	
  6418  0990                     l4437:	
  6419                           ;a2d.h: 10: ADCON0 = 0b01000000;
  6420  0990  3040               	movlw	(040h)
  6421  0991  1283               	bcf	status, 5	;RP0=0, select bank0
  6422  0992  1303               	bcf	status, 6	;RP1=0, select bank0
  6423  0993  009F               	movwf	(31)	;volatile
  6424                           	line	11
  6425                           ;a2d.h: 11: ADCON1 = 0b10000100;
  6426  0994  3084               	movlw	(084h)
  6427  0995  1683               	bsf	status, 5	;RP0=1, select bank1
  6428  0996  1303               	bcf	status, 6	;RP1=0, select bank1
  6429  0997  009F               	movwf	(159)^080h	;volatile
  6430                           	line	12
  6431                           	
  6432  0998                     l817:	
  6433  0998  0008               	return
  6434                           	opt stack 0
  6435                           GLOBAL	__end_of_atod_init
  6436  0999                     	__end_of_atod_init:
  6437 ;; =============== function _atod_init ends ============
  6438                           
  6439                           	signat	_atod_init,88
  6440                           	global	_lcd_init
  6441                           psect	text653,local,class=CODE,delta=2
  6442                           global __ptext653
  6443  0D5C                     __ptext653:
  6444                           
  6445 ;; *************** function _lcd_init *****************
  6446 ;; Defined at:
  6447 ;;		line 60 in file "D:\ELECTRONIC\2016\1. Automated Solar Panel Orientation Setter\Firmware\Test2\lcdV2.h"
  6448 ;; Parameters:    Size  Location     Type
  6449 ;;		None
  6450 ;; Auto vars:     Size  Location     Type
  6451 ;;  DelayLCD        2    0[BANK0 ] unsigned int 
  6452 ;; Return value:  Size  Location     Type
  6453 ;;		None               void
  6454 ;; Registers used:
  6455 ;;		wreg, status,2
  6456 ;; Tracked objects:
  6457 ;;		On entry : 0/0
  6458 ;;		On exit  : 0/0
  6459 ;;		Unchanged: 0/0
  6460 ;; Data sizes:     COMMON   BANK0   BANK1   BANK3   BANK2
  6461 ;;      Params:         0       0       0       0       0
  6462 ;;      Locals:         0       2       0       0       0
  6463 ;;      Temps:          0       0       0       0       0
  6464 ;;      Totals:         0       2       0       0       0
  6465 ;;Total ram usage:        2 bytes
  6466 ;; Hardware stack levels used:    1
  6467 ;; Hardware stack levels required when called:    3
  6468 ;; This function calls:
  6469 ;;		Nothing
  6470 ;; This function is called by:
  6471 ;;		_main
  6472 ;; This function uses a non-reentrant model
  6473 ;;
  6474                           psect	text653
  6475                           	file	"D:\ELECTRONIC\2016\1. Automated Solar Panel Orientation Setter\Firmware\Test2\lcd
                                 V2.h"
  6476                           	line	60
  6477                           	global	__size_of_lcd_init
  6478  00D2                     	__size_of_lcd_init	equ	__end_of_lcd_init-_lcd_init
  6479                           	
  6480  0D5C                     _lcd_init:	
  6481                           	opt	stack 4
  6482                           ; Regs used in _lcd_init: [wreg+status,2]
  6483                           	line	62
  6484                           	
  6485  0D5C                     l4379:	
  6486                           ;lcdV2.h: 62: RC3 = 0;
  6487  0D5C  1283               	bcf	status, 5	;RP0=0, select bank0
  6488  0D5D  1303               	bcf	status, 6	;RP1=0, select bank0
  6489  0D5E  1187               	bcf	(59/8),(59)&7
  6490                           	line	66
  6491                           ;lcdV2.h: 64: unsigned int DelayLCD;
  6492                           ;lcdV2.h: 66: RC2 = 0;
  6493  0D5F  1107               	bcf	(58/8),(58)&7
  6494                           	line	67
  6495                           ;lcdV2.h: 67: RD1 = 0;
  6496  0D60  1088               	bcf	(65/8),(65)&7
  6497                           	line	68
  6498                           ;lcdV2.h: 68: RC0 = 0;
  6499  0D61  1007               	bcf	(56/8),(56)&7
  6500                           	line	69
  6501                           ;lcdV2.h: 69: RD0 = 1;
  6502  0D62  1408               	bsf	(64/8),(64)&7
  6503                           	line	70
  6504                           ;lcdV2.h: 70: RC1 = 0;
  6505  0D63  1087               	bcf	(57/8),(57)&7
  6506                           	line	71
  6507                           ;lcdV2.h: 71: RC3 = 1;
  6508  0D64  1587               	bsf	(59/8),(59)&7
  6509                           	line	72
  6510                           ;lcdV2.h: 72: RC3 = 0;
  6511  0D65  1187               	bcf	(59/8),(59)&7
  6512                           	line	73
  6513                           ;lcdV2.h: 73: RD1 = 1;
  6514  0D66  1488               	bsf	(65/8),(65)&7
  6515                           	line	74
  6516                           ;lcdV2.h: 74: RC0 = 0;
  6517  0D67  1007               	bcf	(56/8),(56)&7
  6518                           	line	75
  6519                           ;lcdV2.h: 75: RD0 = 0;
  6520  0D68  1008               	bcf	(64/8),(64)&7
  6521                           	line	76
  6522                           ;lcdV2.h: 76: RC1 = 0;
  6523  0D69  1087               	bcf	(57/8),(57)&7
  6524                           	line	77
  6525                           ;lcdV2.h: 77: RC3 = 1;
  6526  0D6A  1587               	bsf	(59/8),(59)&7
  6527                           	line	78
  6528                           ;lcdV2.h: 78: RC3 = 0;
  6529  0D6B  1187               	bcf	(59/8),(59)&7
  6530                           	line	79
  6531                           	
  6532  0D6C                     l4381:	
  6533                           ;lcdV2.h: 79: for(DelayLCD=0;DelayLCD<2500;DelayLCD++);
  6534  0D6C  01A0               	clrf	(lcd_init@DelayLCD)
  6535  0D6D  01A1               	clrf	(lcd_init@DelayLCD+1)
  6536                           	
  6537  0D6E                     l4383:	
  6538  0D6E  3009               	movlw	high(09C4h)
  6539  0D6F  0221               	subwf	(lcd_init@DelayLCD+1),w
  6540  0D70  30C4               	movlw	low(09C4h)
  6541  0D71  1903               	skipnz
  6542  0D72  0220               	subwf	(lcd_init@DelayLCD),w
  6543  0D73  1C03               	skipc
  6544  0D74  2D76               	goto	u4921
  6545  0D75  2D77               	goto	u4920
  6546  0D76                     u4921:
  6547  0D76  2D79               	goto	l4387
  6548  0D77                     u4920:
  6549  0D77  2D88               	goto	l777
  6550                           	
  6551  0D78                     l4385:	
  6552  0D78  2D88               	goto	l777
  6553                           	
  6554  0D79                     l776:	
  6555                           	
  6556  0D79                     l4387:	
  6557  0D79  3001               	movlw	low(01h)
  6558  0D7A  07A0               	addwf	(lcd_init@DelayLCD),f
  6559  0D7B  1803               	skipnc
  6560  0D7C  0AA1               	incf	(lcd_init@DelayLCD+1),f
  6561  0D7D  3000               	movlw	high(01h)
  6562  0D7E  07A1               	addwf	(lcd_init@DelayLCD+1),f
  6563  0D7F  3009               	movlw	high(09C4h)
  6564  0D80  0221               	subwf	(lcd_init@DelayLCD+1),w
  6565  0D81  30C4               	movlw	low(09C4h)
  6566  0D82  1903               	skipnz
  6567  0D83  0220               	subwf	(lcd_init@DelayLCD),w
  6568  0D84  1C03               	skipc
  6569  0D85  2D87               	goto	u4931
  6570  0D86  2D88               	goto	u4930
  6571  0D87                     u4931:
  6572  0D87  2D79               	goto	l4387
  6573  0D88                     u4930:
  6574                           	
  6575  0D88                     l777:	
  6576                           	line	82
  6577                           ;lcdV2.h: 82: RC2 = 0;
  6578  0D88  1107               	bcf	(58/8),(58)&7
  6579                           	line	83
  6580                           ;lcdV2.h: 83: RD1 = 0;
  6581  0D89  1088               	bcf	(65/8),(65)&7
  6582                           	line	84
  6583                           ;lcdV2.h: 84: RC0 = 0;
  6584  0D8A  1007               	bcf	(56/8),(56)&7
  6585                           	line	85
  6586                           ;lcdV2.h: 85: RD0 = 1;
  6587  0D8B  1408               	bsf	(64/8),(64)&7
  6588                           	line	86
  6589                           ;lcdV2.h: 86: RC1 = 0;
  6590  0D8C  1087               	bcf	(57/8),(57)&7
  6591                           	line	87
  6592                           ;lcdV2.h: 87: RC3 = 1;
  6593  0D8D  1587               	bsf	(59/8),(59)&7
  6594                           	line	88
  6595                           ;lcdV2.h: 88: RC3 = 0;
  6596  0D8E  1187               	bcf	(59/8),(59)&7
  6597                           	line	89
  6598                           ;lcdV2.h: 89: RD1 = 1;
  6599  0D8F  1488               	bsf	(65/8),(65)&7
  6600                           	line	90
  6601                           ;lcdV2.h: 90: RC0 = 0;
  6602  0D90  1007               	bcf	(56/8),(56)&7
  6603                           	line	91
  6604                           ;lcdV2.h: 91: RD0 = 0;
  6605  0D91  1008               	bcf	(64/8),(64)&7
  6606                           	line	92
  6607                           ;lcdV2.h: 92: RC1 = 0;
  6608  0D92  1087               	bcf	(57/8),(57)&7
  6609                           	line	93
  6610                           ;lcdV2.h: 93: RC3 = 1;
  6611  0D93  1587               	bsf	(59/8),(59)&7
  6612                           	line	94
  6613                           ;lcdV2.h: 94: RC3 = 0;
  6614  0D94  1187               	bcf	(59/8),(59)&7
  6615                           	line	95
  6616                           	
  6617  0D95                     l4389:	
  6618                           ;lcdV2.h: 95: for(DelayLCD=0;DelayLCD<2500;DelayLCD++);
  6619  0D95  01A0               	clrf	(lcd_init@DelayLCD)
  6620  0D96  01A1               	clrf	(lcd_init@DelayLCD+1)
  6621                           	
  6622  0D97                     l4391:	
  6623  0D97  3009               	movlw	high(09C4h)
  6624  0D98  0221               	subwf	(lcd_init@DelayLCD+1),w
  6625  0D99  30C4               	movlw	low(09C4h)
  6626  0D9A  1903               	skipnz
  6627  0D9B  0220               	subwf	(lcd_init@DelayLCD),w
  6628  0D9C  1C03               	skipc
  6629  0D9D  2D9F               	goto	u4941
  6630  0D9E  2DA0               	goto	u4940
  6631  0D9F                     u4941:
  6632  0D9F  2DA2               	goto	l4395
  6633  0DA0                     u4940:
  6634  0DA0  2DB1               	goto	l779
  6635                           	
  6636  0DA1                     l4393:	
  6637  0DA1  2DB1               	goto	l779
  6638                           	
  6639  0DA2                     l778:	
  6640                           	
  6641  0DA2                     l4395:	
  6642  0DA2  3001               	movlw	low(01h)
  6643  0DA3  07A0               	addwf	(lcd_init@DelayLCD),f
  6644  0DA4  1803               	skipnc
  6645  0DA5  0AA1               	incf	(lcd_init@DelayLCD+1),f
  6646  0DA6  3000               	movlw	high(01h)
  6647  0DA7  07A1               	addwf	(lcd_init@DelayLCD+1),f
  6648  0DA8  3009               	movlw	high(09C4h)
  6649  0DA9  0221               	subwf	(lcd_init@DelayLCD+1),w
  6650  0DAA  30C4               	movlw	low(09C4h)
  6651  0DAB  1903               	skipnz
  6652  0DAC  0220               	subwf	(lcd_init@DelayLCD),w
  6653  0DAD  1C03               	skipc
  6654  0DAE  2DB0               	goto	u4951
  6655  0DAF  2DB1               	goto	u4950
  6656  0DB0                     u4951:
  6657  0DB0  2DA2               	goto	l4395
  6658  0DB1                     u4950:
  6659                           	
  6660  0DB1                     l779:	
  6661                           	line	98
  6662                           ;lcdV2.h: 98: RC2 = 0;
  6663  0DB1  1107               	bcf	(58/8),(58)&7
  6664                           	line	99
  6665                           ;lcdV2.h: 99: RD1 = 0;
  6666  0DB2  1088               	bcf	(65/8),(65)&7
  6667                           	line	100
  6668                           ;lcdV2.h: 100: RC0 = 0;
  6669  0DB3  1007               	bcf	(56/8),(56)&7
  6670                           	line	101
  6671                           ;lcdV2.h: 101: RD0 = 0;
  6672  0DB4  1008               	bcf	(64/8),(64)&7
  6673                           	line	102
  6674                           ;lcdV2.h: 102: RC1 = 0;
  6675  0DB5  1087               	bcf	(57/8),(57)&7
  6676                           	line	103
  6677                           ;lcdV2.h: 103: RC3 = 1;
  6678  0DB6  1587               	bsf	(59/8),(59)&7
  6679                           	line	104
  6680                           ;lcdV2.h: 104: RC3 = 0;
  6681  0DB7  1187               	bcf	(59/8),(59)&7
  6682                           	line	105
  6683                           ;lcdV2.h: 105: RD1 = 0;
  6684  0DB8  1088               	bcf	(65/8),(65)&7
  6685                           	line	106
  6686                           ;lcdV2.h: 106: RC0 = 1;
  6687  0DB9  1407               	bsf	(56/8),(56)&7
  6688                           	line	107
  6689                           ;lcdV2.h: 107: RD0 = 1;
  6690  0DBA  1408               	bsf	(64/8),(64)&7
  6691                           	line	108
  6692                           ;lcdV2.h: 108: RC1 = 0;
  6693  0DBB  1087               	bcf	(57/8),(57)&7
  6694                           	line	109
  6695                           ;lcdV2.h: 109: RC3 = 1;
  6696  0DBC  1587               	bsf	(59/8),(59)&7
  6697                           	line	110
  6698                           ;lcdV2.h: 110: RC3 = 0;
  6699  0DBD  1187               	bcf	(59/8),(59)&7
  6700                           	line	111
  6701                           	
  6702  0DBE                     l4397:	
  6703                           ;lcdV2.h: 111: for(DelayLCD=0;DelayLCD<2500;DelayLCD++);
  6704  0DBE  01A0               	clrf	(lcd_init@DelayLCD)
  6705  0DBF  01A1               	clrf	(lcd_init@DelayLCD+1)
  6706                           	
  6707  0DC0                     l4399:	
  6708  0DC0  3009               	movlw	high(09C4h)
  6709  0DC1  0221               	subwf	(lcd_init@DelayLCD+1),w
  6710  0DC2  30C4               	movlw	low(09C4h)
  6711  0DC3  1903               	skipnz
  6712  0DC4  0220               	subwf	(lcd_init@DelayLCD),w
  6713  0DC5  1C03               	skipc
  6714  0DC6  2DC8               	goto	u4961
  6715  0DC7  2DC9               	goto	u4960
  6716  0DC8                     u4961:
  6717  0DC8  2DCB               	goto	l4403
  6718  0DC9                     u4960:
  6719  0DC9  2DDA               	goto	l781
  6720                           	
  6721  0DCA                     l4401:	
  6722  0DCA  2DDA               	goto	l781
  6723                           	
  6724  0DCB                     l780:	
  6725                           	
  6726  0DCB                     l4403:	
  6727  0DCB  3001               	movlw	low(01h)
  6728  0DCC  07A0               	addwf	(lcd_init@DelayLCD),f
  6729  0DCD  1803               	skipnc
  6730  0DCE  0AA1               	incf	(lcd_init@DelayLCD+1),f
  6731  0DCF  3000               	movlw	high(01h)
  6732  0DD0  07A1               	addwf	(lcd_init@DelayLCD+1),f
  6733  0DD1  3009               	movlw	high(09C4h)
  6734  0DD2  0221               	subwf	(lcd_init@DelayLCD+1),w
  6735  0DD3  30C4               	movlw	low(09C4h)
  6736  0DD4  1903               	skipnz
  6737  0DD5  0220               	subwf	(lcd_init@DelayLCD),w
  6738  0DD6  1C03               	skipc
  6739  0DD7  2DD9               	goto	u4971
  6740  0DD8  2DDA               	goto	u4970
  6741  0DD9                     u4971:
  6742  0DD9  2DCB               	goto	l4403
  6743  0DDA                     u4970:
  6744                           	
  6745  0DDA                     l781:	
  6746                           	line	114
  6747                           ;lcdV2.h: 114: RC2 = 0;
  6748  0DDA  1107               	bcf	(58/8),(58)&7
  6749                           	line	115
  6750                           ;lcdV2.h: 115: RD1 = 0;
  6751  0DDB  1088               	bcf	(65/8),(65)&7
  6752                           	line	116
  6753                           ;lcdV2.h: 116: RC0 = 0;
  6754  0DDC  1007               	bcf	(56/8),(56)&7
  6755                           	line	117
  6756                           ;lcdV2.h: 117: RD0 = 0;
  6757  0DDD  1008               	bcf	(64/8),(64)&7
  6758                           	line	118
  6759                           ;lcdV2.h: 118: RC1 = 0;
  6760  0DDE  1087               	bcf	(57/8),(57)&7
  6761                           	line	119
  6762                           ;lcdV2.h: 119: RC3 = 1;
  6763  0DDF  1587               	bsf	(59/8),(59)&7
  6764                           	line	120
  6765                           ;lcdV2.h: 120: RC3 = 0;
  6766  0DE0  1187               	bcf	(59/8),(59)&7
  6767                           	line	121
  6768                           ;lcdV2.h: 121: RD1 = 1;
  6769  0DE1  1488               	bsf	(65/8),(65)&7
  6770                           	line	122
  6771                           ;lcdV2.h: 122: RC0 = 1;
  6772  0DE2  1407               	bsf	(56/8),(56)&7
  6773                           	line	123
  6774                           ;lcdV2.h: 123: RD0 = 0;
  6775  0DE3  1008               	bcf	(64/8),(64)&7
  6776                           	line	124
  6777                           ;lcdV2.h: 124: RC1 = 1;
  6778  0DE4  1487               	bsf	(57/8),(57)&7
  6779                           	line	125
  6780                           ;lcdV2.h: 125: RC3 = 1;
  6781  0DE5  1587               	bsf	(59/8),(59)&7
  6782                           	line	126
  6783                           ;lcdV2.h: 126: RC3 = 0;
  6784  0DE6  1187               	bcf	(59/8),(59)&7
  6785                           	line	127
  6786                           	
  6787  0DE7                     l4405:	
  6788                           ;lcdV2.h: 127: for(DelayLCD=0;DelayLCD<2500;DelayLCD++);
  6789  0DE7  01A0               	clrf	(lcd_init@DelayLCD)
  6790  0DE8  01A1               	clrf	(lcd_init@DelayLCD+1)
  6791                           	
  6792  0DE9                     l4407:	
  6793  0DE9  3009               	movlw	high(09C4h)
  6794  0DEA  0221               	subwf	(lcd_init@DelayLCD+1),w
  6795  0DEB  30C4               	movlw	low(09C4h)
  6796  0DEC  1903               	skipnz
  6797  0DED  0220               	subwf	(lcd_init@DelayLCD),w
  6798  0DEE  1C03               	skipc
  6799  0DEF  2DF1               	goto	u4981
  6800  0DF0  2DF2               	goto	u4980
  6801  0DF1                     u4981:
  6802  0DF1  2DF4               	goto	l4411
  6803  0DF2                     u4980:
  6804  0DF2  2E03               	goto	l783
  6805                           	
  6806  0DF3                     l4409:	
  6807  0DF3  2E03               	goto	l783
  6808                           	
  6809  0DF4                     l782:	
  6810                           	
  6811  0DF4                     l4411:	
  6812  0DF4  3001               	movlw	low(01h)
  6813  0DF5  07A0               	addwf	(lcd_init@DelayLCD),f
  6814  0DF6  1803               	skipnc
  6815  0DF7  0AA1               	incf	(lcd_init@DelayLCD+1),f
  6816  0DF8  3000               	movlw	high(01h)
  6817  0DF9  07A1               	addwf	(lcd_init@DelayLCD+1),f
  6818  0DFA  3009               	movlw	high(09C4h)
  6819  0DFB  0221               	subwf	(lcd_init@DelayLCD+1),w
  6820  0DFC  30C4               	movlw	low(09C4h)
  6821  0DFD  1903               	skipnz
  6822  0DFE  0220               	subwf	(lcd_init@DelayLCD),w
  6823  0DFF  1C03               	skipc
  6824  0E00  2E02               	goto	u4991
  6825  0E01  2E03               	goto	u4990
  6826  0E02                     u4991:
  6827  0E02  2DF4               	goto	l4411
  6828  0E03                     u4990:
  6829                           	
  6830  0E03                     l783:	
  6831                           	line	130
  6832                           ;lcdV2.h: 130: RC2 = 0;
  6833  0E03  1107               	bcf	(58/8),(58)&7
  6834                           	line	131
  6835                           ;lcdV2.h: 131: RD1 = 0;
  6836  0E04  1088               	bcf	(65/8),(65)&7
  6837                           	line	132
  6838                           ;lcdV2.h: 132: RC0 = 0;
  6839  0E05  1007               	bcf	(56/8),(56)&7
  6840                           	line	133
  6841                           ;lcdV2.h: 133: RD0 = 0;
  6842  0E06  1008               	bcf	(64/8),(64)&7
  6843                           	line	134
  6844                           ;lcdV2.h: 134: RC1 = 0;
  6845  0E07  1087               	bcf	(57/8),(57)&7
  6846                           	line	135
  6847                           ;lcdV2.h: 135: RC3 = 1;
  6848  0E08  1587               	bsf	(59/8),(59)&7
  6849                           	line	136
  6850                           ;lcdV2.h: 136: RC3 = 0;
  6851  0E09  1187               	bcf	(59/8),(59)&7
  6852                           	line	137
  6853                           ;lcdV2.h: 137: RD1 = 0;
  6854  0E0A  1088               	bcf	(65/8),(65)&7
  6855                           	line	138
  6856                           ;lcdV2.h: 138: RC0 = 0;
  6857  0E0B  1007               	bcf	(56/8),(56)&7
  6858                           	line	139
  6859                           ;lcdV2.h: 139: RD0 = 0;
  6860  0E0C  1008               	bcf	(64/8),(64)&7
  6861                           	line	140
  6862                           ;lcdV2.h: 140: RC1 = 1;
  6863  0E0D  1487               	bsf	(57/8),(57)&7
  6864                           	line	141
  6865                           ;lcdV2.h: 141: RC3 = 1;
  6866  0E0E  1587               	bsf	(59/8),(59)&7
  6867                           	line	142
  6868                           ;lcdV2.h: 142: RC3 = 0;
  6869  0E0F  1187               	bcf	(59/8),(59)&7
  6870                           	line	143
  6871                           	
  6872  0E10                     l4413:	
  6873                           ;lcdV2.h: 143: for(DelayLCD=0;DelayLCD<2500;DelayLCD++);
  6874  0E10  01A0               	clrf	(lcd_init@DelayLCD)
  6875  0E11  01A1               	clrf	(lcd_init@DelayLCD+1)
  6876                           	
  6877  0E12                     l4415:	
  6878  0E12  3009               	movlw	high(09C4h)
  6879  0E13  0221               	subwf	(lcd_init@DelayLCD+1),w
  6880  0E14  30C4               	movlw	low(09C4h)
  6881  0E15  1903               	skipnz
  6882  0E16  0220               	subwf	(lcd_init@DelayLCD),w
  6883  0E17  1C03               	skipc
  6884  0E18  2E1A               	goto	u5001
  6885  0E19  2E1B               	goto	u5000
  6886  0E1A                     u5001:
  6887  0E1A  2E1D               	goto	l4419
  6888  0E1B                     u5000:
  6889  0E1B  2E2D               	goto	l786
  6890                           	
  6891  0E1C                     l4417:	
  6892  0E1C  2E2D               	goto	l786
  6893                           	
  6894  0E1D                     l784:	
  6895                           	
  6896  0E1D                     l4419:	
  6897  0E1D  3001               	movlw	low(01h)
  6898  0E1E  07A0               	addwf	(lcd_init@DelayLCD),f
  6899  0E1F  1803               	skipnc
  6900  0E20  0AA1               	incf	(lcd_init@DelayLCD+1),f
  6901  0E21  3000               	movlw	high(01h)
  6902  0E22  07A1               	addwf	(lcd_init@DelayLCD+1),f
  6903  0E23  3009               	movlw	high(09C4h)
  6904  0E24  0221               	subwf	(lcd_init@DelayLCD+1),w
  6905  0E25  30C4               	movlw	low(09C4h)
  6906  0E26  1903               	skipnz
  6907  0E27  0220               	subwf	(lcd_init@DelayLCD),w
  6908  0E28  1C03               	skipc
  6909  0E29  2E2B               	goto	u5011
  6910  0E2A  2E2C               	goto	u5010
  6911  0E2B                     u5011:
  6912  0E2B  2E1D               	goto	l4419
  6913  0E2C                     u5010:
  6914  0E2C  2E2D               	goto	l786
  6915                           	
  6916  0E2D                     l785:	
  6917                           	line	146
  6918                           	
  6919  0E2D                     l786:	
  6920  0E2D  0008               	return
  6921                           	opt stack 0
  6922                           GLOBAL	__end_of_lcd_init
  6923  0E2E                     	__end_of_lcd_init:
  6924 ;; =============== function _lcd_init ends ============
  6925                           
  6926                           	signat	_lcd_init,88
  6927                           	global	_Setup_IOports
  6928                           psect	text654,local,class=CODE,delta=2
  6929                           global __ptext654
  6930  0A67                     __ptext654:
  6931                           
  6932 ;; *************** function _Setup_IOports *****************
  6933 ;; Defined at:
  6934 ;;		line 50 in file "D:\ELECTRONIC\2016\1. Automated Solar Panel Orientation Setter\Firmware\Test2\setup.h"
  6935 ;; Parameters:    Size  Location     Type
  6936 ;;		None
  6937 ;; Auto vars:     Size  Location     Type
  6938 ;;		None
  6939 ;; Return value:  Size  Location     Type
  6940 ;;		None               void
  6941 ;; Registers used:
  6942 ;;		wreg, status,2
  6943 ;; Tracked objects:
  6944 ;;		On entry : 0/0
  6945 ;;		On exit  : 0/0
  6946 ;;		Unchanged: 0/0
  6947 ;; Data sizes:     COMMON   BANK0   BANK1   BANK3   BANK2
  6948 ;;      Params:         0       0       0       0       0
  6949 ;;      Locals:         0       0       0       0       0
  6950 ;;      Temps:          0       0       0       0       0
  6951 ;;      Totals:         0       0       0       0       0
  6952 ;;Total ram usage:        0 bytes
  6953 ;; Hardware stack levels used:    1
  6954 ;; Hardware stack levels required when called:    3
  6955 ;; This function calls:
  6956 ;;		Nothing
  6957 ;; This function is called by:
  6958 ;;		_main
  6959 ;; This function uses a non-reentrant model
  6960 ;;
  6961                           psect	text654
  6962                           	file	"D:\ELECTRONIC\2016\1. Automated Solar Panel Orientation Setter\Firmware\Test2\set
                                 up.h"
  6963                           	line	50
  6964                           	global	__size_of_Setup_IOports
  6965  0024                     	__size_of_Setup_IOports	equ	__end_of_Setup_IOports-_Setup_IOports
  6966                           	
  6967  0A67                     _Setup_IOports:	
  6968                           	opt	stack 4
  6969                           ; Regs used in _Setup_IOports: [wreg+status,2]
  6970                           	line	52
  6971                           	
  6972  0A67                     l4365:	
  6973                           ;setup.h: 52: TRISA = 0b11111111;
  6974  0A67  30FF               	movlw	(0FFh)
  6975  0A68  1683               	bsf	status, 5	;RP0=1, select bank1
  6976  0A69  1303               	bcf	status, 6	;RP1=0, select bank1
  6977  0A6A  0085               	movwf	(133)^080h	;volatile
  6978                           	line	53
  6979                           	
  6980  0A6B                     l4367:	
  6981                           ;setup.h: 53: PORTA = 0b00000000;
  6982  0A6B  1283               	bcf	status, 5	;RP0=0, select bank0
  6983  0A6C  1303               	bcf	status, 6	;RP1=0, select bank0
  6984  0A6D  0185               	clrf	(5)	;volatile
  6985                           	line	55
  6986                           	
  6987  0A6E                     l4369:	
  6988                           ;setup.h: 55: TRISB = 0b11000000;
  6989  0A6E  30C0               	movlw	(0C0h)
  6990  0A6F  1683               	bsf	status, 5	;RP0=1, select bank1
  6991  0A70  1303               	bcf	status, 6	;RP1=0, select bank1
  6992  0A71  0086               	movwf	(134)^080h	;volatile
  6993                           	line	56
  6994                           ;setup.h: 56: PORTB = 0b00000000;
  6995  0A72  1283               	bcf	status, 5	;RP0=0, select bank0
  6996  0A73  1303               	bcf	status, 6	;RP1=0, select bank0
  6997  0A74  0186               	clrf	(6)	;volatile
  6998                           	line	58
  6999                           	
  7000  0A75                     l4371:	
  7001                           ;setup.h: 58: TRISC = 0b10000000;
  7002  0A75  3080               	movlw	(080h)
  7003  0A76  1683               	bsf	status, 5	;RP0=1, select bank1
  7004  0A77  1303               	bcf	status, 6	;RP1=0, select bank1
  7005  0A78  0087               	movwf	(135)^080h	;volatile
  7006                           	line	59
  7007                           	
  7008  0A79                     l4373:	
  7009                           ;setup.h: 59: PORTC = 0b00000000;
  7010  0A79  1283               	bcf	status, 5	;RP0=0, select bank0
  7011  0A7A  1303               	bcf	status, 6	;RP1=0, select bank0
  7012  0A7B  0187               	clrf	(7)	;volatile
  7013                           	line	61
  7014                           ;setup.h: 61: TRISD = 0b00001100;
  7015  0A7C  300C               	movlw	(0Ch)
  7016  0A7D  1683               	bsf	status, 5	;RP0=1, select bank1
  7017  0A7E  1303               	bcf	status, 6	;RP1=0, select bank1
  7018  0A7F  0088               	movwf	(136)^080h	;volatile
  7019                           	line	62
  7020                           	
  7021  0A80                     l4375:	
  7022                           ;setup.h: 62: PORTD = 0b00000000;
  7023  0A80  1283               	bcf	status, 5	;RP0=0, select bank0
  7024  0A81  1303               	bcf	status, 6	;RP1=0, select bank0
  7025  0A82  0188               	clrf	(8)	;volatile
  7026                           	line	64
  7027                           	
  7028  0A83                     l4377:	
  7029                           ;setup.h: 64: TRISE = 0b10000000;
  7030  0A83  3080               	movlw	(080h)
  7031  0A84  1683               	bsf	status, 5	;RP0=1, select bank1
  7032  0A85  1303               	bcf	status, 6	;RP1=0, select bank1
  7033  0A86  0089               	movwf	(137)^080h	;volatile
  7034                           	line	65
  7035                           ;setup.h: 65: PORTE = 0b00000000;
  7036  0A87  1283               	bcf	status, 5	;RP0=0, select bank0
  7037  0A88  1303               	bcf	status, 6	;RP1=0, select bank0
  7038  0A89  0189               	clrf	(9)	;volatile
  7039                           	line	66
  7040                           	
  7041  0A8A                     l773:	
  7042  0A8A  0008               	return
  7043                           	opt stack 0
  7044                           GLOBAL	__end_of_Setup_IOports
  7045  0A8B                     	__end_of_Setup_IOports:
  7046 ;; =============== function _Setup_IOports ends ============
  7047                           
  7048                           	signat	_Setup_IOports,88
  7049                           	global	_isr
  7050                           psect	text655,local,class=CODE,delta=2
  7051                           global __ptext655
  7052  0C9B                     __ptext655:
  7053                           
  7054 ;; *************** function _isr *****************
  7055 ;; Defined at:
  7056 ;;		line 190 in file "D:\ELECTRONIC\2016\1. Automated Solar Panel Orientation Setter\Firmware\Test2\Automated Solar Pane
       l Orientation Setter.c"
  7057 ;; Parameters:    Size  Location     Type
  7058 ;;		None
  7059 ;; Auto vars:     Size  Location     Type
  7060 ;;		None
  7061 ;; Return value:  Size  Location     Type
  7062 ;;		None               void
  7063 ;; Registers used:
  7064 ;;		wreg, fsr0l, fsr0h, status,2, status,0, pclath, cstack
  7065 ;; Tracked objects:
  7066 ;;		On entry : 0/0
  7067 ;;		On exit  : 0/0
  7068 ;;		Unchanged: 0/0
  7069 ;; Data sizes:     COMMON   BANK0   BANK1   BANK3   BANK2
  7070 ;;      Params:         0       0       0       0       0
  7071 ;;      Locals:         0       0       0       0       0
  7072 ;;      Temps:          5       0       0       0       0
  7073 ;;      Totals:         5       0       0       0       0
  7074 ;;Total ram usage:        5 bytes
  7075 ;; Hardware stack levels used:    1
  7076 ;; Hardware stack levels required when called:    2
  7077 ;; This function calls:
  7078 ;;		i1_lcd_init
  7079 ;;		i1_clr_display
  7080 ;;		i1___lwmod
  7081 ;; This function is called by:
  7082 ;;		Interrupt level 1
  7083 ;; This function uses a non-reentrant model
  7084 ;;
  7085                           psect	text655
  7086                           	file	"D:\ELECTRONIC\2016\1. Automated Solar Panel Orientation Setter\Firmware\Test2\Aut
                                 omated Solar Panel Orientation Setter.c"
  7087                           	line	190
  7088                           	global	__size_of_isr
  7089  00C1                     	__size_of_isr	equ	__end_of_isr-_isr
  7090                           	
  7091  0C9B                     _isr:	
  7092                           	opt	stack 2
  7093                           ; Regs used in _isr: [wreg-fsr0h+status,2+status,0+pclath+cstack]
  7094                           psect	intentry,class=CODE,delta=2
  7095                           global __pintentry
  7096  0004                     __pintentry:
  7097                           global interrupt_function
  7098  0004                     interrupt_function:
  7099                           	global saved_w
  7100  007E                     	saved_w	set	btemp+0
  7101  0004  00FE               	movwf	saved_w
  7102  0005  0E03               	swapf	status,w
  7103  0006  00F7               	movwf	(??_isr+1)
  7104  0007  0804               	movf	fsr0,w
  7105  0008  00F8               	movwf	(??_isr+2)
  7106  0009  080A               	movf	pclath,w
  7107  000A  00F9               	movwf	(??_isr+3)
  7108  000B  1283               	bcf	status, 5	;RP0=0, select bank0
  7109  000C  1303               	bcf	status, 6	;RP1=0, select bank0
  7110  000D  087F               	movf	btemp+1,w
  7111  000E  00FA               	movwf	(??_isr+4)
  7112  000F  120A  158A  2C9B   	ljmp	_isr
  7113                           psect	text655
  7114                           	line	191
  7115                           	
  7116  0C9B                     i1l4497:	
  7117                           ;Automated Solar Panel Orientation Setter.c: 191: if(TMR1IF==1){
  7118  0C9B  1C0C               	btfss	(96/8),(96)&7
  7119  0C9C  2C9E               	goto	u512_21
  7120  0C9D  2C9F               	goto	u512_20
  7121  0C9E                     u512_21:
  7122  0C9E  2D09               	goto	i1l4533
  7123  0C9F                     u512_20:
  7124                           	line	192
  7125                           	
  7126  0C9F                     i1l4499:	
  7127                           ;Automated Solar Panel Orientation Setter.c: 192: msecond ++;
  7128  0C9F  3001               	movlw	low(01h)
  7129  0CA0  07D9               	addwf	(_msecond),f
  7130  0CA1  1803               	skipnc
  7131  0CA2  0ADA               	incf	(_msecond+1),f
  7132  0CA3  3000               	movlw	high(01h)
  7133  0CA4  07DA               	addwf	(_msecond+1),f
  7134                           	line	193
  7135                           ;Automated Solar Panel Orientation Setter.c: 193: if(msecond == 10){
  7136  0CA5  300A               	movlw	0Ah
  7137  0CA6  0659               	xorwf	(_msecond),w
  7138  0CA7  045A               	iorwf	(_msecond+1),w
  7139  0CA8  1D03               	skipz
  7140  0CA9  2CAB               	goto	u513_21
  7141  0CAA  2CAC               	goto	u513_20
  7142  0CAB                     u513_21:
  7143  0CAB  2D03               	goto	i1l915
  7144  0CAC                     u513_20:
  7145                           	line	194
  7146                           	
  7147  0CAC                     i1l4501:	
  7148                           ;Automated Solar Panel Orientation Setter.c: 194: second ++;
  7149  0CAC  3001               	movlw	low(01h)
  7150  0CAD  07DB               	addwf	(_second),f
  7151  0CAE  1803               	skipnc
  7152  0CAF  0ADC               	incf	(_second+1),f
  7153  0CB0  3000               	movlw	high(01h)
  7154  0CB1  07DC               	addwf	(_second+1),f
  7155                           	line	197
  7156                           ;Automated Solar Panel Orientation Setter.c: 197: RD6 = !RD6;
  7157  0CB2  3040               	movlw	1<<((70)&7)
  7158  0CB3  0688               	xorwf	((70)/8),f
  7159                           	line	198
  7160                           	
  7161  0CB4                     i1l4503:	
  7162                           ;Automated Solar Panel Orientation Setter.c: 198: msecond = 0;
  7163  0CB4  01D9               	clrf	(_msecond)
  7164  0CB5  01DA               	clrf	(_msecond+1)
  7165                           	line	199
  7166                           	
  7167  0CB6                     i1l4505:	
  7168                           ;Automated Solar Panel Orientation Setter.c: 199: if( second == 60){
  7169  0CB6  303C               	movlw	03Ch
  7170  0CB7  065B               	xorwf	(_second),w
  7171  0CB8  045C               	iorwf	(_second+1),w
  7172  0CB9  1D03               	skipz
  7173  0CBA  2CBC               	goto	u514_21
  7174  0CBB  2CBD               	goto	u514_20
  7175  0CBC                     u514_21:
  7176  0CBC  2D03               	goto	i1l915
  7177  0CBD                     u514_20:
  7178                           	line	200
  7179                           	
  7180  0CBD                     i1l4507:	
  7181                           ;Automated Solar Panel Orientation Setter.c: 200: HeartRate = HeartRateCount;
  7182  0CBD  084C               	movf	(_HeartRateCount+1),w
  7183  0CBE  01CA               	clrf	(_HeartRate+1)
  7184  0CBF  07CA               	addwf	(_HeartRate+1)
  7185  0CC0  084B               	movf	(_HeartRateCount),w
  7186  0CC1  01C9               	clrf	(_HeartRate)
  7187  0CC2  07C9               	addwf	(_HeartRate)
  7188                           
  7189                           	line	201
  7190                           	
  7191  0CC3                     i1l4509:	
  7192                           ;Automated Solar Panel Orientation Setter.c: 201: HeartRateCount = 0;
  7193  0CC3  01CB               	clrf	(_HeartRateCount)
  7194  0CC4  01CC               	clrf	(_HeartRateCount+1)
  7195                           	line	202
  7196                           	
  7197  0CC5                     i1l4511:	
  7198                           ;Automated Solar Panel Orientation Setter.c: 202: minute ++;
  7199  0CC5  3001               	movlw	low(01h)
  7200  0CC6  07D7               	addwf	(_minute),f
  7201  0CC7  1803               	skipnc
  7202  0CC8  0AD8               	incf	(_minute+1),f
  7203  0CC9  3000               	movlw	high(01h)
  7204  0CCA  07D8               	addwf	(_minute+1),f
  7205                           	line	203
  7206                           	
  7207  0CCB                     i1l4513:	
  7208                           ;Automated Solar Panel Orientation Setter.c: 203: lcd_init();
  7209  0CCB  120A  158A  262E   	fcall	i1_lcd_init
              120A  158A         
  7210                           	line	204
  7211                           	
  7212  0CD0                     i1l4515:	
  7213                           ;Automated Solar Panel Orientation Setter.c: 204: clr_display();
  7214  0CD0  120A  158A  2207   	fcall	i1_clr_display
              120A  158A         
  7215                           	line	205
  7216                           	
  7217  0CD5                     i1l4517:	
  7218                           ;Automated Solar Panel Orientation Setter.c: 205: second = 0;
  7219  0CD5  1283               	bcf	status, 5	;RP0=0, select bank0
  7220  0CD6  1303               	bcf	status, 6	;RP1=0, select bank0
  7221  0CD7  01DB               	clrf	(_second)
  7222  0CD8  01DC               	clrf	(_second+1)
  7223                           	line	207
  7224                           	
  7225  0CD9                     i1l4519:	
  7226                           ;Automated Solar Panel Orientation Setter.c: 207: x = minute%30 ;
  7227  0CD9  301E               	movlw	low(01Eh)
  7228  0CDA  00F0               	movwf	(?i1___lwmod)
  7229  0CDB  3000               	movlw	high(01Eh)
  7230  0CDC  00F1               	movwf	((?i1___lwmod))+1
  7231  0CDD  0858               	movf	(_minute+1),w
  7232  0CDE  01F3               	clrf	1+(?i1___lwmod)+02h
  7233  0CDF  07F3               	addwf	1+(?i1___lwmod)+02h
  7234  0CE0  0857               	movf	(_minute),w
  7235  0CE1  01F2               	clrf	0+(?i1___lwmod)+02h
  7236  0CE2  07F2               	addwf	0+(?i1___lwmod)+02h
  7237                           
  7238  0CE3  120A  158A  2346   	fcall	i1___lwmod
              120A  158A         
  7239  0CE8  0870               	movf	(0+(?i1___lwmod)),w
  7240  0CE9  00F6               	movwf	(??_isr+0)+0
  7241  0CEA  0876               	movf	(??_isr+0)+0,w
  7242  0CEB  1283               	bcf	status, 5	;RP0=0, select bank0
  7243  0CEC  1303               	bcf	status, 6	;RP1=0, select bank0
  7244  0CED  00E5               	movwf	(_x)
  7245  0CEE  2CF0               	goto	i1l4523
  7246                           	line	208
  7247                           	
  7248  0CEF                     i1l4521:	
  7249  0CEF  2CF0               	goto	i1l4523
  7250                           	line	211
  7251                           	
  7252  0CF0                     i1l917:	
  7253                           	line	214
  7254                           	
  7255  0CF0                     i1l4523:	
  7256                           ;Automated Solar Panel Orientation Setter.c: 211: }
  7257                           ;Automated Solar Panel Orientation Setter.c: 214: if( minute == 60){
  7258  0CF0  303C               	movlw	03Ch
  7259  0CF1  0657               	xorwf	(_minute),w
  7260  0CF2  0458               	iorwf	(_minute+1),w
  7261  0CF3  1D03               	skipz
  7262  0CF4  2CF6               	goto	u515_21
  7263  0CF5  2CF7               	goto	u515_20
  7264  0CF6                     u515_21:
  7265  0CF6  2D03               	goto	i1l915
  7266  0CF7                     u515_20:
  7267                           	line	215
  7268                           	
  7269  0CF7                     i1l4525:	
  7270                           ;Automated Solar Panel Orientation Setter.c: 215: minute = 0;
  7271  0CF7  01D7               	clrf	(_minute)
  7272  0CF8  01D8               	clrf	(_minute+1)
  7273                           	line	216
  7274                           	
  7275  0CF9                     i1l4527:	
  7276                           ;Automated Solar Panel Orientation Setter.c: 216: hour ++;
  7277  0CF9  3001               	movlw	low(01h)
  7278  0CFA  07D1               	addwf	(_hour),f
  7279  0CFB  1803               	skipnc
  7280  0CFC  0AD2               	incf	(_hour+1),f
  7281  0CFD  3000               	movlw	high(01h)
  7282  0CFE  07D2               	addwf	(_hour+1),f
  7283  0CFF  2D03               	goto	i1l915
  7284                           	line	217
  7285                           	
  7286  0D00                     i1l4529:	
  7287  0D00  2D03               	goto	i1l915
  7288                           	
  7289  0D01                     i1l919:	
  7290  0D01  2D03               	goto	i1l915
  7291                           	line	218
  7292                           	
  7293  0D02                     i1l918:	
  7294  0D02  2D03               	goto	i1l915
  7295                           	line	219
  7296                           	
  7297  0D03                     i1l916:	
  7298                           	line	220
  7299                           	
  7300  0D03                     i1l915:	
  7301                           	line	221
  7302                           ;Automated Solar Panel Orientation Setter.c: 218: }
  7303                           ;Automated Solar Panel Orientation Setter.c: 219: }
  7304                           ;Automated Solar Panel Orientation Setter.c: 220: }
  7305                           ;Automated Solar Panel Orientation Setter.c: 221: TMR1IF = 0;
  7306  0D03  100C               	bcf	(96/8),(96)&7
  7307                           	line	222
  7308                           	
  7309  0D04                     i1l4531:	
  7310                           ;Automated Solar Panel Orientation Setter.c: 222: TMR1L = 0xB0;
  7311  0D04  30B0               	movlw	(0B0h)
  7312  0D05  008E               	movwf	(14)	;volatile
  7313                           	line	223
  7314                           ;Automated Solar Panel Orientation Setter.c: 223: TMR1H = 0x3C;
  7315  0D06  303C               	movlw	(03Ch)
  7316  0D07  008F               	movwf	(15)	;volatile
  7317  0D08  2D09               	goto	i1l4533
  7318                           	line	224
  7319                           	
  7320  0D09                     i1l914:	
  7321                           	line	225
  7322                           	
  7323  0D09                     i1l4533:	
  7324                           ;Automated Solar Panel Orientation Setter.c: 224: }
  7325                           ;Automated Solar Panel Orientation Setter.c: 225: if( RCIF == 1){
  7326  0D09  1E8C               	btfss	(101/8),(101)&7
  7327  0D0A  2D0C               	goto	u516_21
  7328  0D0B  2D0D               	goto	u516_20
  7329  0D0C                     u516_21:
  7330  0D0C  2D42               	goto	i1l4553
  7331  0D0D                     u516_20:
  7332                           	line	226
  7333                           	
  7334  0D0D                     i1l4535:	
  7335                           ;Automated Solar Panel Orientation Setter.c: 226: if ((FERR == 0) && (OERR == 0))
  7336  0D0D  1918               	btfsc	(194/8),(194)&7
  7337  0D0E  2D10               	goto	u517_21
  7338  0D0F  2D11               	goto	u517_20
  7339  0D10                     u517_21:
  7340  0D10  2D34               	goto	i1l921
  7341  0D11                     u517_20:
  7342                           	
  7343  0D11                     i1l4537:	
  7344  0D11  1898               	btfsc	(193/8),(193)&7
  7345  0D12  2D14               	goto	u518_21
  7346  0D13  2D15               	goto	u518_20
  7347  0D14                     u518_21:
  7348  0D14  2D34               	goto	i1l921
  7349  0D15                     u518_20:
  7350                           	line	228
  7351                           	
  7352  0D15                     i1l4539:	
  7353                           ;Automated Solar Panel Orientation Setter.c: 227: {
  7354                           ;Automated Solar Panel Orientation Setter.c: 228: wtmp = RCREG;
  7355  0D15  081A               	movf	(26),w	;volatile
  7356  0D16  00F6               	movwf	(??_isr+0)+0
  7357  0D17  0876               	movf	(??_isr+0)+0,w
  7358  0D18  00E4               	movwf	(_wtmp)
  7359                           	line	229
  7360                           ;Automated Solar Panel Orientation Setter.c: 229: if( RCREG=='*' || j > 20-1 ){
  7361  0D19  081A               	movf	(26),w	;volatile
  7362  0D1A  3A2A               	xorlw	02Ah
  7363  0D1B  1903               	skipnz
  7364  0D1C  2D1E               	goto	u519_21
  7365  0D1D  2D1F               	goto	u519_20
  7366  0D1E                     u519_21:
  7367  0D1E  2D25               	goto	i1l924
  7368  0D1F                     u519_20:
  7369                           	
  7370  0D1F                     i1l4541:	
  7371  0D1F  3014               	movlw	(014h)
  7372  0D20  025D               	subwf	(_j),w
  7373  0D21  1C03               	skipc
  7374  0D22  2D24               	goto	u520_21
  7375  0D23  2D25               	goto	u520_20
  7376  0D24                     u520_21:
  7377  0D24  2D27               	goto	i1l4543
  7378  0D25                     u520_20:
  7379                           	
  7380  0D25                     i1l924:	
  7381                           	line	230
  7382                           ;Automated Solar Panel Orientation Setter.c: 230: j=0;
  7383  0D25  01DD               	clrf	(_j)
  7384  0D26  2D27               	goto	i1l4543
  7385                           	line	231
  7386                           	
  7387  0D27                     i1l922:	
  7388                           	line	232
  7389                           	
  7390  0D27                     i1l4543:	
  7391                           ;Automated Solar Panel Orientation Setter.c: 231: }
  7392                           ;Automated Solar Panel Orientation Setter.c: 232: buffer[j] = RCREG;
  7393  0D27  081A               	movf	(26),w	;volatile
  7394  0D28  00F6               	movwf	(??_isr+0)+0
  7395  0D29  085D               	movf	(_j),w
  7396  0D2A  3EA0               	addlw	_buffer&0ffh
  7397  0D2B  0084               	movwf	fsr0
  7398  0D2C  0876               	movf	(??_isr+0)+0,w
  7399  0D2D  1383               	bcf	status, 7	;select IRP bank1
  7400  0D2E  0080               	movwf	indf
  7401                           	line	233
  7402                           	
  7403  0D2F                     i1l4545:	
  7404                           ;Automated Solar Panel Orientation Setter.c: 233: j ++;
  7405  0D2F  3001               	movlw	(01h)
  7406  0D30  00F6               	movwf	(??_isr+0)+0
  7407  0D31  0876               	movf	(??_isr+0)+0,w
  7408  0D32  07DD               	addwf	(_j),f
  7409                           	line	234
  7410                           ;Automated Solar Panel Orientation Setter.c: 234: }
  7411  0D33  2D40               	goto	i1l4551
  7412                           	line	235
  7413                           	
  7414  0D34                     i1l921:	
  7415                           	line	237
  7416                           ;Automated Solar Panel Orientation Setter.c: 235: else
  7417                           ;Automated Solar Panel Orientation Setter.c: 236: {
  7418                           ;Automated Solar Panel Orientation Setter.c: 237: CREN = 0;
  7419  0D34  1218               	bcf	(196/8),(196)&7
  7420                           	line	238
  7421                           ;Automated Solar Panel Orientation Setter.c: 238: FERR = 0;
  7422  0D35  1118               	bcf	(194/8),(194)&7
  7423                           	line	239
  7424                           	
  7425  0D36                     i1l4547:	
  7426                           ;Automated Solar Panel Orientation Setter.c: 239: wtmp = RCREG;
  7427  0D36  081A               	movf	(26),w	;volatile
  7428  0D37  00F6               	movwf	(??_isr+0)+0
  7429  0D38  0876               	movf	(??_isr+0)+0,w
  7430  0D39  00E4               	movwf	(_wtmp)
  7431                           	line	240
  7432                           ;Automated Solar Panel Orientation Setter.c: 240: wtmp = RCREG;
  7433  0D3A  081A               	movf	(26),w	;volatile
  7434  0D3B  00F6               	movwf	(??_isr+0)+0
  7435  0D3C  0876               	movf	(??_isr+0)+0,w
  7436  0D3D  00E4               	movwf	(_wtmp)
  7437                           	line	241
  7438                           	
  7439  0D3E                     i1l4549:	
  7440                           ;Automated Solar Panel Orientation Setter.c: 241: CREN = 1;
  7441  0D3E  1618               	bsf	(196/8),(196)&7
  7442  0D3F  2D40               	goto	i1l4551
  7443                           	line	242
  7444                           	
  7445  0D40                     i1l925:	
  7446                           	line	243
  7447                           	
  7448  0D40                     i1l4551:	
  7449                           ;Automated Solar Panel Orientation Setter.c: 242: }
  7450                           ;Automated Solar Panel Orientation Setter.c: 243: RCIF = 0;
  7451  0D40  128C               	bcf	(101/8),(101)&7
  7452  0D41  2D42               	goto	i1l4553
  7453                           	line	244
  7454                           	
  7455  0D42                     i1l920:	
  7456                           	line	245
  7457                           	
  7458  0D42                     i1l4553:	
  7459                           ;Automated Solar Panel Orientation Setter.c: 244: }
  7460                           ;Automated Solar Panel Orientation Setter.c: 245: if(OERR == 1)
  7461  0D42  1C98               	btfss	(193/8),(193)&7
  7462  0D43  2D45               	goto	u521_21
  7463  0D44  2D46               	goto	u521_20
  7464  0D45                     u521_21:
  7465  0D45  2D51               	goto	i1l927
  7466  0D46                     u521_20:
  7467                           	line	247
  7468                           	
  7469  0D46                     i1l4555:	
  7470                           ;Automated Solar Panel Orientation Setter.c: 246: {
  7471                           ;Automated Solar Panel Orientation Setter.c: 247: CREN = 0;
  7472  0D46  1218               	bcf	(196/8),(196)&7
  7473                           	line	249
  7474                           	
  7475  0D47                     i1l4557:	
  7476                           ;Automated Solar Panel Orientation Setter.c: 249: wtmp = RCREG;
  7477  0D47  081A               	movf	(26),w	;volatile
  7478  0D48  00F6               	movwf	(??_isr+0)+0
  7479  0D49  0876               	movf	(??_isr+0)+0,w
  7480  0D4A  00E4               	movwf	(_wtmp)
  7481                           	line	250
  7482                           ;Automated Solar Panel Orientation Setter.c: 250: wtmp = RCREG;
  7483  0D4B  081A               	movf	(26),w	;volatile
  7484  0D4C  00F6               	movwf	(??_isr+0)+0
  7485  0D4D  0876               	movf	(??_isr+0)+0,w
  7486  0D4E  00E4               	movwf	(_wtmp)
  7487                           	line	251
  7488                           	
  7489  0D4F                     i1l4559:	
  7490                           ;Automated Solar Panel Orientation Setter.c: 251: CREN = 1;
  7491  0D4F  1618               	bsf	(196/8),(196)&7
  7492  0D50  2D51               	goto	i1l927
  7493                           	line	252
  7494                           	
  7495  0D51                     i1l926:	
  7496                           	line	254
  7497                           	
  7498  0D51                     i1l927:	
  7499  0D51  087A               	movf	(??_isr+4),w
  7500  0D52  00FF               	movwf	btemp+1
  7501  0D53  0879               	movf	(??_isr+3),w
  7502  0D54  008A               	movwf	pclath
  7503  0D55  0878               	movf	(??_isr+2),w
  7504  0D56  0084               	movwf	fsr0
  7505  0D57  0E77               	swapf	(??_isr+1)^0FFFFFF80h,w
  7506  0D58  0083               	movwf	status
  7507  0D59  0EFE               	swapf	saved_w,f
  7508  0D5A  0E7E               	swapf	saved_w,w
  7509  0D5B  0009               	retfie
  7510                           	opt stack 0
  7511                           GLOBAL	__end_of_isr
  7512  0D5C                     	__end_of_isr:
  7513 ;; =============== function _isr ends ============
  7514                           
  7515                           	signat	_isr,88
  7516                           	global	i1_clr_display
  7517                           psect	text656,local,class=CODE,delta=2
  7518                           global __ptext656
  7519  0A07                     __ptext656:
  7520                           
  7521 ;; *************** function i1_clr_display *****************
  7522 ;; Defined at:
  7523 ;;		line 176 in file "D:\ELECTRONIC\2016\1. Automated Solar Panel Orientation Setter\Firmware\Test2\lcdV2.h"
  7524 ;; Parameters:    Size  Location     Type
  7525 ;;		None
  7526 ;; Auto vars:     Size  Location     Type
  7527 ;;		None
  7528 ;; Return value:  Size  Location     Type
  7529 ;;		None               void
  7530 ;; Registers used:
  7531 ;;		wreg, status,2, status,0, pclath, cstack
  7532 ;; Tracked objects:
  7533 ;;		On entry : 0/0
  7534 ;;		On exit  : 0/0
  7535 ;;		Unchanged: 0/0
  7536 ;; Data sizes:     COMMON   BANK0   BANK1   BANK3   BANK2
  7537 ;;      Params:         0       0       0       0       0
  7538 ;;      Locals:         0       0       0       0       0
  7539 ;;      Temps:          2       0       0       0       0
  7540 ;;      Totals:         2       0       0       0       0
  7541 ;;Total ram usage:        2 bytes
  7542 ;; Hardware stack levels used:    1
  7543 ;; Hardware stack levels required when called:    1
  7544 ;; This function calls:
  7545 ;;		i1_lcd_add
  7546 ;; This function is called by:
  7547 ;;		_isr
  7548 ;; This function uses a non-reentrant model
  7549 ;;
  7550                           psect	text656
  7551                           	file	"D:\ELECTRONIC\2016\1. Automated Solar Panel Orientation Setter\Firmware\Test2\lcd
                                 V2.h"
  7552                           	line	176
  7553                           	global	__size_ofi1_clr_display
  7554  001F                     	__size_ofi1_clr_display	equ	__end_ofi1_clr_display-i1_clr_display
  7555                           	
  7556  0A07                     i1_clr_display:	
  7557                           	opt	stack 2
  7558                           ; Regs used in i1_clr_display: [wreg+status,2+status,0+pclath+cstack]
  7559                           	line	177
  7560                           	
  7561  0A07                     i1l4773:	
  7562                           ;lcdV2.h: 177: RC2 = 0;
  7563  0A07  1283               	bcf	status, 5	;RP0=0, select bank0
  7564  0A08  1303               	bcf	status, 6	;RP1=0, select bank0
  7565  0A09  1107               	bcf	(58/8),(58)&7
  7566                           	line	178
  7567                           	
  7568  0A0A                     i1l4775:	
  7569                           ;lcdV2.h: 178: _delay(20);
  7570                           	opt asmopt_off
  7571  0A0A  3006               movlw	6
  7572  0A0B  00F2               movwf	(??i1_clr_display+0)+0,f
  7573  0A0C                     u744_27:
  7574  0A0C  0BF2               decfsz	(??i1_clr_display+0)+0,f
  7575  0A0D  2A0C               	goto	u744_27
  7576  0A0E  0064               	clrwdt
  7577                           opt asmopt_on
  7578                           
  7579                           	line	179
  7580                           	
  7581  0A0F                     i1l4777:	
  7582                           ;lcdV2.h: 179: lcd_data = 0b00000001;
  7583  0A0F  1283               	bcf	status, 5	;RP0=0, select bank0
  7584  0A10  1303               	bcf	status, 6	;RP1=0, select bank0
  7585  0A11  01DF               	clrf	(_lcd_data)
  7586  0A12  1403               	bsf	status,0
  7587  0A13  0DDF               	rlf	(_lcd_data),f
  7588                           	line	180
  7589                           	
  7590  0A14                     i1l4779:	
  7591                           ;lcdV2.h: 180: lcd_add();
  7592  0A14  120A  158A  2708   	fcall	i1_lcd_add
              120A  158A         
  7593                           	line	181
  7594                           	
  7595  0A19                     i1l4781:	
  7596                           ;lcdV2.h: 181: _delay((unsigned long)((10)*(4000000/4000.0)));
  7597                           	opt asmopt_off
  7598  0A19  300D               movlw	13
  7599  0A1A  00F3               movwf	((??i1_clr_display+0)+0+1),f
  7600  0A1B  30FB               	movlw	251
  7601  0A1C  00F2               movwf	((??i1_clr_display+0)+0),f
  7602  0A1D                     u745_27:
  7603  0A1D  0BF2               	decfsz	((??i1_clr_display+0)+0),f
  7604  0A1E  2A1D               	goto	u745_27
  7605  0A1F  0BF3               	decfsz	((??i1_clr_display+0)+0+1),f
  7606  0A20  2A1D               	goto	u745_27
  7607  0A21  2A22               	nop2
  7608                           opt asmopt_on
  7609                           
  7610                           	line	182
  7611                           	
  7612  0A22                     i1l4783:	
  7613                           ;lcdV2.h: 182: RC2 = 1;
  7614  0A22  1283               	bcf	status, 5	;RP0=0, select bank0
  7615  0A23  1303               	bcf	status, 6	;RP1=0, select bank0
  7616  0A24  1507               	bsf	(58/8),(58)&7
  7617                           	line	183
  7618                           	
  7619  0A25                     i1l798:	
  7620  0A25  0008               	return
  7621                           	opt stack 0
  7622                           GLOBAL	__end_ofi1_clr_display
  7623  0A26                     	__end_ofi1_clr_display:
  7624 ;; =============== function i1_clr_display ends ============
  7625                           
  7626                           	signat	i1_clr_display,88
  7627                           	global	i1_lcd_add
  7628                           psect	text657,local,class=CODE,delta=2
  7629                           global __ptext657
  7630  0F08                     __ptext657:
  7631                           
  7632 ;; *************** function i1_lcd_add *****************
  7633 ;; Defined at:
  7634 ;;		line 217 in file "D:\ELECTRONIC\2016\1. Automated Solar Panel Orientation Setter\Firmware\Test2\lcdV2.h"
  7635 ;; Parameters:    Size  Location     Type
  7636 ;;		None
  7637 ;; Auto vars:     Size  Location     Type
  7638 ;;		None
  7639 ;; Return value:  Size  Location     Type
  7640 ;;		None               void
  7641 ;; Registers used:
  7642 ;;		wreg, status,2, status,0
  7643 ;; Tracked objects:
  7644 ;;		On entry : 0/0
  7645 ;;		On exit  : 0/0
  7646 ;;		Unchanged: 0/0
  7647 ;; Data sizes:     COMMON   BANK0   BANK1   BANK3   BANK2
  7648 ;;      Params:         0       0       0       0       0
  7649 ;;      Locals:         0       0       0       0       0
  7650 ;;      Temps:          2       0       0       0       0
  7651 ;;      Totals:         2       0       0       0       0
  7652 ;;Total ram usage:        2 bytes
  7653 ;; Hardware stack levels used:    1
  7654 ;; This function calls:
  7655 ;;		Nothing
  7656 ;; This function is called by:
  7657 ;;		i1_clr_display
  7658 ;; This function uses a non-reentrant model
  7659 ;;
  7660                           psect	text657
  7661                           	file	"D:\ELECTRONIC\2016\1. Automated Solar Panel Orientation Setter\Firmware\Test2\lcd
                                 V2.h"
  7662                           	line	217
  7663                           	global	__size_ofi1_lcd_add
  7664  00F8                     	__size_ofi1_lcd_add	equ	__end_ofi1_lcd_add-i1_lcd_add
  7665                           	
  7666  0F08                     i1_lcd_add:	
  7667                           	opt	stack 2
  7668                           ; Regs used in i1_lcd_add: [wreg+status,2+status,0]
  7669                           	line	218
  7670                           	
  7671  0F08                     i1l4785:	
  7672                           ;lcdV2.h: 218: lcd_data_high = lcd_data >> 4;
  7673  0F08  1283               	bcf	status, 5	;RP0=0, select bank0
  7674  0F09  1303               	bcf	status, 6	;RP1=0, select bank0
  7675  0F0A  085F               	movf	(_lcd_data),w
  7676  0F0B  00F0               	movwf	(??i1_lcd_add+0)+0
  7677  0F0C  3004               	movlw	04h
  7678  0F0D                     u582_25:
  7679  0F0D  1003               	clrc
  7680  0F0E  0CF0               	rrf	(??i1_lcd_add+0)+0,f
  7681  0F0F  3EFF               	addlw	-1
  7682  0F10  1D03               	skipz
  7683  0F11  2F0D               	goto	u582_25
  7684  0F12  0870               	movf	0+(??i1_lcd_add+0)+0,w
  7685  0F13  00F1               	movwf	(??i1_lcd_add+1)+0
  7686  0F14  0871               	movf	(??i1_lcd_add+1)+0,w
  7687  0F15  00E0               	movwf	(_lcd_data_high)
  7688                           	line	219
  7689                           ;lcdV2.h: 219: lcd_data_low = lcd_data << 4;
  7690  0F16  085F               	movf	(_lcd_data),w
  7691  0F17  00F0               	movwf	(??i1_lcd_add+0)+0
  7692  0F18  3003               	movlw	(04h)-1
  7693  0F19                     u583_25:
  7694  0F19  1003               	clrc
  7695  0F1A  0DF0               	rlf	(??i1_lcd_add+0)+0,f
  7696  0F1B  3EFF               	addlw	-1
  7697  0F1C  1D03               	skipz
  7698  0F1D  2F19               	goto	u583_25
  7699  0F1E  1003               	clrc
  7700  0F1F  0D70               	rlf	(??i1_lcd_add+0)+0,w
  7701  0F20  00F1               	movwf	(??i1_lcd_add+1)+0
  7702  0F21  0871               	movf	(??i1_lcd_add+1)+0,w
  7703  0F22  00FD               	movwf	(_lcd_data_low)
  7704                           	line	220
  7705                           ;lcdV2.h: 220: lcd_data_low = lcd_data_low >> 4;
  7706  0F23  087D               	movf	(_lcd_data_low),w
  7707  0F24  00F0               	movwf	(??i1_lcd_add+0)+0
  7708  0F25  3004               	movlw	04h
  7709  0F26                     u584_25:
  7710  0F26  1003               	clrc
  7711  0F27  0CF0               	rrf	(??i1_lcd_add+0)+0,f
  7712  0F28  3EFF               	addlw	-1
  7713  0F29  1D03               	skipz
  7714  0F2A  2F26               	goto	u584_25
  7715  0F2B  0870               	movf	0+(??i1_lcd_add+0)+0,w
  7716  0F2C  00F1               	movwf	(??i1_lcd_add+1)+0
  7717  0F2D  0871               	movf	(??i1_lcd_add+1)+0,w
  7718  0F2E  00FD               	movwf	(_lcd_data_low)
  7719                           	line	222
  7720                           	
  7721  0F2F                     i1l4787:	
  7722                           ;lcdV2.h: 222: bit0 = lcd_data;
  7723  0F2F  107B               	bcf	(_bit0/8),(_bit0)&7
  7724  0F30  1C5F               	btfss	(_lcd_data),0
  7725  0F31  2F33               	goto	u585_25
  7726  0F32  147B               	bsf	(_bit0/8),(_bit0)&7
  7727  0F33                     u585_25:
  7728                           
  7729                           	line	223
  7730                           ;lcdV2.h: 223: bit1 = lcd_data>>1;
  7731  0F33  1283               	bcf	status, 5	;RP0=0, select bank0
  7732  0F34  1303               	bcf	status, 6	;RP1=0, select bank0
  7733  0F35  085F               	movf	(_lcd_data),w
  7734  0F36  00F0               	movwf	(??i1_lcd_add+0)+0
  7735  0F37  3001               	movlw	01h
  7736  0F38                     u586_25:
  7737  0F38  1003               	clrc
  7738  0F39  0CF0               	rrf	(??i1_lcd_add+0)+0,f
  7739  0F3A  3EFF               	addlw	-1
  7740  0F3B  1D03               	skipz
  7741  0F3C  2F38               	goto	u586_25
  7742  0F3D  10FB               	bcf	(_bit1/8),(_bit1)&7
  7743  0F3E  1C70               	btfss	0+(??i1_lcd_add+0)+0,0
  7744  0F3F  2F41               	goto	u587_25
  7745  0F40  14FB               	bsf	(_bit1/8),(_bit1)&7
  7746  0F41                     u587_25:
  7747                           
  7748                           	line	224
  7749                           ;lcdV2.h: 224: bit2 = lcd_data>>2;
  7750  0F41  1283               	bcf	status, 5	;RP0=0, select bank0
  7751  0F42  1303               	bcf	status, 6	;RP1=0, select bank0
  7752  0F43  085F               	movf	(_lcd_data),w
  7753  0F44  00F0               	movwf	(??i1_lcd_add+0)+0
  7754  0F45  3002               	movlw	02h
  7755  0F46                     u588_25:
  7756  0F46  1003               	clrc
  7757  0F47  0CF0               	rrf	(??i1_lcd_add+0)+0,f
  7758  0F48  3EFF               	addlw	-1
  7759  0F49  1D03               	skipz
  7760  0F4A  2F46               	goto	u588_25
  7761  0F4B  117B               	bcf	(_bit2/8),(_bit2)&7
  7762  0F4C  1C70               	btfss	0+(??i1_lcd_add+0)+0,0
  7763  0F4D  2F4F               	goto	u589_25
  7764  0F4E  157B               	bsf	(_bit2/8),(_bit2)&7
  7765  0F4F                     u589_25:
  7766                           
  7767                           	line	225
  7768                           ;lcdV2.h: 225: bit3 = lcd_data>>3;
  7769  0F4F  1283               	bcf	status, 5	;RP0=0, select bank0
  7770  0F50  1303               	bcf	status, 6	;RP1=0, select bank0
  7771  0F51  085F               	movf	(_lcd_data),w
  7772  0F52  00F0               	movwf	(??i1_lcd_add+0)+0
  7773  0F53  3003               	movlw	03h
  7774  0F54                     u590_25:
  7775  0F54  1003               	clrc
  7776  0F55  0CF0               	rrf	(??i1_lcd_add+0)+0,f
  7777  0F56  3EFF               	addlw	-1
  7778  0F57  1D03               	skipz
  7779  0F58  2F54               	goto	u590_25
  7780  0F59  11FB               	bcf	(_bit3/8),(_bit3)&7
  7781  0F5A  1C70               	btfss	0+(??i1_lcd_add+0)+0,0
  7782  0F5B  2F5D               	goto	u591_25
  7783  0F5C  15FB               	bsf	(_bit3/8),(_bit3)&7
  7784  0F5D                     u591_25:
  7785                           
  7786                           	line	226
  7787                           ;lcdV2.h: 226: bit4 = lcd_data>>4;
  7788  0F5D  1283               	bcf	status, 5	;RP0=0, select bank0
  7789  0F5E  1303               	bcf	status, 6	;RP1=0, select bank0
  7790  0F5F  085F               	movf	(_lcd_data),w
  7791  0F60  00F0               	movwf	(??i1_lcd_add+0)+0
  7792  0F61  3004               	movlw	04h
  7793  0F62                     u592_25:
  7794  0F62  1003               	clrc
  7795  0F63  0CF0               	rrf	(??i1_lcd_add+0)+0,f
  7796  0F64  3EFF               	addlw	-1
  7797  0F65  1D03               	skipz
  7798  0F66  2F62               	goto	u592_25
  7799  0F67  127B               	bcf	(_bit4/8),(_bit4)&7
  7800  0F68  1C70               	btfss	0+(??i1_lcd_add+0)+0,0
  7801  0F69  2F6B               	goto	u593_25
  7802  0F6A  167B               	bsf	(_bit4/8),(_bit4)&7
  7803  0F6B                     u593_25:
  7804                           
  7805                           	line	227
  7806                           ;lcdV2.h: 227: bit5 = lcd_data>>5;
  7807  0F6B  1283               	bcf	status, 5	;RP0=0, select bank0
  7808  0F6C  1303               	bcf	status, 6	;RP1=0, select bank0
  7809  0F6D  085F               	movf	(_lcd_data),w
  7810  0F6E  00F0               	movwf	(??i1_lcd_add+0)+0
  7811  0F6F  3005               	movlw	05h
  7812  0F70                     u594_25:
  7813  0F70  1003               	clrc
  7814  0F71  0CF0               	rrf	(??i1_lcd_add+0)+0,f
  7815  0F72  3EFF               	addlw	-1
  7816  0F73  1D03               	skipz
  7817  0F74  2F70               	goto	u594_25
  7818  0F75  12FB               	bcf	(_bit5/8),(_bit5)&7
  7819  0F76  1C70               	btfss	0+(??i1_lcd_add+0)+0,0
  7820  0F77  2F79               	goto	u595_25
  7821  0F78  16FB               	bsf	(_bit5/8),(_bit5)&7
  7822  0F79                     u595_25:
  7823                           
  7824                           	line	228
  7825                           ;lcdV2.h: 228: bit6 = lcd_data>>6;
  7826  0F79  1283               	bcf	status, 5	;RP0=0, select bank0
  7827  0F7A  1303               	bcf	status, 6	;RP1=0, select bank0
  7828  0F7B  085F               	movf	(_lcd_data),w
  7829  0F7C  00F0               	movwf	(??i1_lcd_add+0)+0
  7830  0F7D  3006               	movlw	06h
  7831  0F7E                     u596_25:
  7832  0F7E  1003               	clrc
  7833  0F7F  0CF0               	rrf	(??i1_lcd_add+0)+0,f
  7834  0F80  3EFF               	addlw	-1
  7835  0F81  1D03               	skipz
  7836  0F82  2F7E               	goto	u596_25
  7837  0F83  137B               	bcf	(_bit6/8),(_bit6)&7
  7838  0F84  1C70               	btfss	0+(??i1_lcd_add+0)+0,0
  7839  0F85  2F87               	goto	u597_25
  7840  0F86  177B               	bsf	(_bit6/8),(_bit6)&7
  7841  0F87                     u597_25:
  7842                           
  7843                           	line	229
  7844                           ;lcdV2.h: 229: bit7 = lcd_data>>7;
  7845  0F87  1283               	bcf	status, 5	;RP0=0, select bank0
  7846  0F88  1303               	bcf	status, 6	;RP1=0, select bank0
  7847  0F89  085F               	movf	(_lcd_data),w
  7848  0F8A  00F0               	movwf	(??i1_lcd_add+0)+0
  7849  0F8B  3007               	movlw	07h
  7850  0F8C                     u598_25:
  7851  0F8C  1003               	clrc
  7852  0F8D  0CF0               	rrf	(??i1_lcd_add+0)+0,f
  7853  0F8E  3EFF               	addlw	-1
  7854  0F8F  1D03               	skipz
  7855  0F90  2F8C               	goto	u598_25
  7856  0F91  13FB               	bcf	(_bit7/8),(_bit7)&7
  7857  0F92  1C70               	btfss	0+(??i1_lcd_add+0)+0,0
  7858  0F93  2F95               	goto	u599_25
  7859  0F94  17FB               	bsf	(_bit7/8),(_bit7)&7
  7860  0F95                     u599_25:
  7861                           
  7862                           	line	231
  7863                           	
  7864  0F95                     i1l4789:	
  7865                           ;lcdV2.h: 231: RC3 = 0;
  7866  0F95  1283               	bcf	status, 5	;RP0=0, select bank0
  7867  0F96  1303               	bcf	status, 6	;RP1=0, select bank0
  7868  0F97  1187               	bcf	(59/8),(59)&7
  7869                           	line	232
  7870                           	
  7871  0F98                     i1l4791:	
  7872                           ;lcdV2.h: 232: _delay(1);
  7873                           		opt asmopt_off
  7874  0F98  0064               	clrwdt
  7875                           	opt asmopt_on
  7876                           
  7877                           	line	233
  7878                           	
  7879  0F99                     i1l4793:	
  7880                           ;lcdV2.h: 233: RC3 = 1;
  7881  0F99  1283               	bcf	status, 5	;RP0=0, select bank0
  7882  0F9A  1303               	bcf	status, 6	;RP1=0, select bank0
  7883  0F9B  1587               	bsf	(59/8),(59)&7
  7884                           	line	234
  7885                           	
  7886  0F9C                     i1l4795:	
  7887                           ;lcdV2.h: 234: _delay(1);
  7888                           		opt asmopt_off
  7889  0F9C  0064               	clrwdt
  7890                           	opt asmopt_on
  7891                           
  7892                           	line	236
  7893                           	
  7894  0F9D                     i1l4797:	
  7895                           ;lcdV2.h: 236: RC1 = bit4;
  7896  0F9D  1A7B               	btfsc	(_bit4/8),(_bit4)&7
  7897  0F9E  2FA0               	goto	u600_21
  7898  0F9F  2FA4               	goto	u600_20
  7899                           	
  7900  0FA0                     u600_21:
  7901  0FA0  1283               	bcf	status, 5	;RP0=0, select bank0
  7902  0FA1  1303               	bcf	status, 6	;RP1=0, select bank0
  7903  0FA2  1487               	bsf	(57/8),(57)&7
  7904  0FA3  2FA7               	goto	u601_24
  7905  0FA4                     u600_20:
  7906  0FA4  1283               	bcf	status, 5	;RP0=0, select bank0
  7907  0FA5  1303               	bcf	status, 6	;RP1=0, select bank0
  7908  0FA6  1087               	bcf	(57/8),(57)&7
  7909  0FA7                     u601_24:
  7910                           	line	237
  7911                           	
  7912  0FA7                     i1l4799:	
  7913                           ;lcdV2.h: 237: RD0 = bit5;
  7914  0FA7  1AFB               	btfsc	(_bit5/8),(_bit5)&7
  7915  0FA8  2FAA               	goto	u602_21
  7916  0FA9  2FAE               	goto	u602_20
  7917                           	
  7918  0FAA                     u602_21:
  7919  0FAA  1283               	bcf	status, 5	;RP0=0, select bank0
  7920  0FAB  1303               	bcf	status, 6	;RP1=0, select bank0
  7921  0FAC  1408               	bsf	(64/8),(64)&7
  7922  0FAD  2FB1               	goto	u603_24
  7923  0FAE                     u602_20:
  7924  0FAE  1283               	bcf	status, 5	;RP0=0, select bank0
  7925  0FAF  1303               	bcf	status, 6	;RP1=0, select bank0
  7926  0FB0  1008               	bcf	(64/8),(64)&7
  7927  0FB1                     u603_24:
  7928                           	line	238
  7929                           	
  7930  0FB1                     i1l4801:	
  7931                           ;lcdV2.h: 238: RC0 = bit6;
  7932  0FB1  1B7B               	btfsc	(_bit6/8),(_bit6)&7
  7933  0FB2  2FB4               	goto	u604_21
  7934  0FB3  2FB8               	goto	u604_20
  7935                           	
  7936  0FB4                     u604_21:
  7937  0FB4  1283               	bcf	status, 5	;RP0=0, select bank0
  7938  0FB5  1303               	bcf	status, 6	;RP1=0, select bank0
  7939  0FB6  1407               	bsf	(56/8),(56)&7
  7940  0FB7  2FBB               	goto	u605_24
  7941  0FB8                     u604_20:
  7942  0FB8  1283               	bcf	status, 5	;RP0=0, select bank0
  7943  0FB9  1303               	bcf	status, 6	;RP1=0, select bank0
  7944  0FBA  1007               	bcf	(56/8),(56)&7
  7945  0FBB                     u605_24:
  7946                           	line	239
  7947                           	
  7948  0FBB                     i1l4803:	
  7949                           ;lcdV2.h: 239: RD1 = bit7;
  7950  0FBB  1BFB               	btfsc	(_bit7/8),(_bit7)&7
  7951  0FBC  2FBE               	goto	u606_21
  7952  0FBD  2FC2               	goto	u606_20
  7953                           	
  7954  0FBE                     u606_21:
  7955  0FBE  1283               	bcf	status, 5	;RP0=0, select bank0
  7956  0FBF  1303               	bcf	status, 6	;RP1=0, select bank0
  7957  0FC0  1488               	bsf	(65/8),(65)&7
  7958  0FC1  2FC5               	goto	u607_24
  7959  0FC2                     u606_20:
  7960  0FC2  1283               	bcf	status, 5	;RP0=0, select bank0
  7961  0FC3  1303               	bcf	status, 6	;RP1=0, select bank0
  7962  0FC4  1088               	bcf	(65/8),(65)&7
  7963  0FC5                     u607_24:
  7964                           	line	241
  7965                           	
  7966  0FC5                     i1l4805:	
  7967                           ;lcdV2.h: 241: _delay(1);
  7968                           		opt asmopt_off
  7969  0FC5  0064               	clrwdt
  7970                           	opt asmopt_on
  7971                           
  7972                           	line	242
  7973                           	
  7974  0FC6                     i1l4807:	
  7975                           ;lcdV2.h: 242: RC3 = 0;
  7976  0FC6  1283               	bcf	status, 5	;RP0=0, select bank0
  7977  0FC7  1303               	bcf	status, 6	;RP1=0, select bank0
  7978  0FC8  1187               	bcf	(59/8),(59)&7
  7979                           	line	243
  7980                           	
  7981  0FC9                     i1l4809:	
  7982                           ;lcdV2.h: 243: _delay(1);
  7983                           		opt asmopt_off
  7984  0FC9  0064               	clrwdt
  7985                           	opt asmopt_on
  7986                           
  7987                           	line	247
  7988                           	
  7989  0FCA                     i1l4811:	
  7990                           ;lcdV2.h: 247: RC3 = 0;
  7991  0FCA  1283               	bcf	status, 5	;RP0=0, select bank0
  7992  0FCB  1303               	bcf	status, 6	;RP1=0, select bank0
  7993  0FCC  1187               	bcf	(59/8),(59)&7
  7994                           	line	248
  7995                           	
  7996  0FCD                     i1l4813:	
  7997                           ;lcdV2.h: 248: _delay(1);
  7998                           		opt asmopt_off
  7999  0FCD  0064               	clrwdt
  8000                           	opt asmopt_on
  8001                           
  8002                           	line	249
  8003                           	
  8004  0FCE                     i1l4815:	
  8005                           ;lcdV2.h: 249: RC3 = 1;
  8006  0FCE  1283               	bcf	status, 5	;RP0=0, select bank0
  8007  0FCF  1303               	bcf	status, 6	;RP1=0, select bank0
  8008  0FD0  1587               	bsf	(59/8),(59)&7
  8009                           	line	250
  8010                           	
  8011  0FD1                     i1l4817:	
  8012                           ;lcdV2.h: 250: _delay(1);
  8013                           		opt asmopt_off
  8014  0FD1  0064               	clrwdt
  8015                           	opt asmopt_on
  8016                           
  8017                           	line	252
  8018                           	
  8019  0FD2                     i1l4819:	
  8020                           ;lcdV2.h: 252: RC1 = bit0;
  8021  0FD2  187B               	btfsc	(_bit0/8),(_bit0)&7
  8022  0FD3  2FD5               	goto	u608_21
  8023  0FD4  2FD9               	goto	u608_20
  8024                           	
  8025  0FD5                     u608_21:
  8026  0FD5  1283               	bcf	status, 5	;RP0=0, select bank0
  8027  0FD6  1303               	bcf	status, 6	;RP1=0, select bank0
  8028  0FD7  1487               	bsf	(57/8),(57)&7
  8029  0FD8  2FDC               	goto	u609_24
  8030  0FD9                     u608_20:
  8031  0FD9  1283               	bcf	status, 5	;RP0=0, select bank0
  8032  0FDA  1303               	bcf	status, 6	;RP1=0, select bank0
  8033  0FDB  1087               	bcf	(57/8),(57)&7
  8034  0FDC                     u609_24:
  8035                           	line	253
  8036                           	
  8037  0FDC                     i1l4821:	
  8038                           ;lcdV2.h: 253: RD0 = bit1;
  8039  0FDC  18FB               	btfsc	(_bit1/8),(_bit1)&7
  8040  0FDD  2FDF               	goto	u610_21
  8041  0FDE  2FE3               	goto	u610_20
  8042                           	
  8043  0FDF                     u610_21:
  8044  0FDF  1283               	bcf	status, 5	;RP0=0, select bank0
  8045  0FE0  1303               	bcf	status, 6	;RP1=0, select bank0
  8046  0FE1  1408               	bsf	(64/8),(64)&7
  8047  0FE2  2FE6               	goto	u611_24
  8048  0FE3                     u610_20:
  8049  0FE3  1283               	bcf	status, 5	;RP0=0, select bank0
  8050  0FE4  1303               	bcf	status, 6	;RP1=0, select bank0
  8051  0FE5  1008               	bcf	(64/8),(64)&7
  8052  0FE6                     u611_24:
  8053                           	line	254
  8054                           	
  8055  0FE6                     i1l4823:	
  8056                           ;lcdV2.h: 254: RC0 = bit2;
  8057  0FE6  197B               	btfsc	(_bit2/8),(_bit2)&7
  8058  0FE7  2FE9               	goto	u612_21
  8059  0FE8  2FED               	goto	u612_20
  8060                           	
  8061  0FE9                     u612_21:
  8062  0FE9  1283               	bcf	status, 5	;RP0=0, select bank0
  8063  0FEA  1303               	bcf	status, 6	;RP1=0, select bank0
  8064  0FEB  1407               	bsf	(56/8),(56)&7
  8065  0FEC  2FF0               	goto	u613_24
  8066  0FED                     u612_20:
  8067  0FED  1283               	bcf	status, 5	;RP0=0, select bank0
  8068  0FEE  1303               	bcf	status, 6	;RP1=0, select bank0
  8069  0FEF  1007               	bcf	(56/8),(56)&7
  8070  0FF0                     u613_24:
  8071                           	line	255
  8072                           	
  8073  0FF0                     i1l4825:	
  8074                           ;lcdV2.h: 255: RD1 = bit3;
  8075  0FF0  19FB               	btfsc	(_bit3/8),(_bit3)&7
  8076  0FF1  2FF3               	goto	u614_21
  8077  0FF2  2FF7               	goto	u614_20
  8078                           	
  8079  0FF3                     u614_21:
  8080  0FF3  1283               	bcf	status, 5	;RP0=0, select bank0
  8081  0FF4  1303               	bcf	status, 6	;RP1=0, select bank0
  8082  0FF5  1488               	bsf	(65/8),(65)&7
  8083  0FF6  2FFA               	goto	u615_24
  8084  0FF7                     u614_20:
  8085  0FF7  1283               	bcf	status, 5	;RP0=0, select bank0
  8086  0FF8  1303               	bcf	status, 6	;RP1=0, select bank0
  8087  0FF9  1088               	bcf	(65/8),(65)&7
  8088  0FFA                     u615_24:
  8089                           	line	257
  8090                           	
  8091  0FFA                     i1l4827:	
  8092                           ;lcdV2.h: 257: _delay(1);
  8093                           		opt asmopt_off
  8094  0FFA  0064               	clrwdt
  8095                           	opt asmopt_on
  8096                           
  8097                           	line	258
  8098                           	
  8099  0FFB                     i1l4829:	
  8100                           ;lcdV2.h: 258: RC3 = 0;
  8101  0FFB  1283               	bcf	status, 5	;RP0=0, select bank0
  8102  0FFC  1303               	bcf	status, 6	;RP1=0, select bank0
  8103  0FFD  1187               	bcf	(59/8),(59)&7
  8104                           	line	259
  8105                           	
  8106  0FFE                     i1l4831:	
  8107                           ;lcdV2.h: 259: _delay(1);
  8108                           		opt asmopt_off
  8109  0FFE  0064               	clrwdt
  8110                           	opt asmopt_on
  8111                           
  8112                           	line	260
  8113                           	
  8114  0FFF                     i1l811:	
  8115  0FFF  0008               	return
  8116                           	opt stack 0
  8117                           GLOBAL	__end_ofi1_lcd_add
  8118  1000                     	__end_ofi1_lcd_add:
  8119 ;; =============== function i1_lcd_add ends ============
  8120                           
  8121                           	signat	i1_lcd_add,88
  8122                           	global	i1___lwmod
  8123                           psect	text658,local,class=CODE,delta=2
  8124                           global __ptext658
  8125  0B46                     __ptext658:
  8126                           
  8127 ;; *************** function i1___lwmod *****************
  8128 ;; Defined at:
  8129 ;;		line 5 in file "C:\Program Files (x86)\HI-TECH Software\PICC\9.83\sources\lwmod.c"
  8130 ;; Parameters:    Size  Location     Type
  8131 ;;  __lwmod         2    0[COMMON] unsigned int 
  8132 ;;  __lwmod         2    2[COMMON] unsigned int 
  8133 ;; Auto vars:     Size  Location     Type
  8134 ;;  __lwmod         1    5[COMMON] unsigned char 
  8135 ;; Return value:  Size  Location     Type
  8136 ;;                  2    0[COMMON] unsigned int 
  8137 ;; Registers used:
  8138 ;;		wreg, status,2, status,0
  8139 ;; Tracked objects:
  8140 ;;		On entry : 0/0
  8141 ;;		On exit  : 0/0
  8142 ;;		Unchanged: 0/0
  8143 ;; Data sizes:     COMMON   BANK0   BANK1   BANK3   BANK2
  8144 ;;      Params:         4       0       0       0       0
  8145 ;;      Locals:         1       0       0       0       0
  8146 ;;      Temps:          1       0       0       0       0
  8147 ;;      Totals:         6       0       0       0       0
  8148 ;;Total ram usage:        6 bytes
  8149 ;; Hardware stack levels used:    1
  8150 ;; This function calls:
  8151 ;;		Nothing
  8152 ;; This function is called by:
  8153 ;;		_isr
  8154 ;; This function uses a non-reentrant model
  8155 ;;
  8156                           psect	text658
  8157                           	file	"C:\Program Files (x86)\HI-TECH Software\PICC\9.83\sources\lwmod.c"
  8158                           	line	5
  8159                           	global	__size_ofi1___lwmod
  8160  0044                     	__size_ofi1___lwmod	equ	__end_ofi1___lwmod-i1___lwmod
  8161                           	
  8162  0B46                     i1___lwmod:	
  8163                           	opt	stack 3
  8164                           ; Regs used in i1___lwmod: [wreg+status,2+status,0]
  8165                           	line	8
  8166                           	
  8167  0B46                     i1l4833:	
  8168  0B46  0871               	movf	(i1___lwmod@divisor+1),w
  8169  0B47  0470               	iorwf	(i1___lwmod@divisor),w
  8170  0B48  1903               	skipnz
  8171  0B49  2B4B               	goto	u616_21
  8172  0B4A  2B4C               	goto	u616_20
  8173  0B4B                     u616_21:
  8174  0B4B  2B82               	goto	i1l4851
  8175  0B4C                     u616_20:
  8176                           	line	9
  8177                           	
  8178  0B4C                     i1l4835:	
  8179  0B4C  01F5               	clrf	(i1___lwmod@counter)
  8180  0B4D  1403               	bsf	status,0
  8181  0B4E  0DF5               	rlf	(i1___lwmod@counter),f
  8182                           	line	10
  8183  0B4F  2B5C               	goto	i1l4841
  8184                           	
  8185  0B50                     i1l1815:	
  8186                           	line	11
  8187                           	
  8188  0B50                     i1l4837:	
  8189  0B50  3001               	movlw	01h
  8190                           	
  8191  0B51                     u617_25:
  8192  0B51  1003               	clrc
  8193  0B52  0DF0               	rlf	(i1___lwmod@divisor),f
  8194  0B53  0DF1               	rlf	(i1___lwmod@divisor+1),f
  8195  0B54  3EFF               	addlw	-1
  8196  0B55  1D03               	skipz
  8197  0B56  2B51               	goto	u617_25
  8198                           	line	12
  8199                           	
  8200  0B57                     i1l4839:	
  8201  0B57  3001               	movlw	(01h)
  8202  0B58  00F4               	movwf	(??i1___lwmod+0)+0
  8203  0B59  0874               	movf	(??i1___lwmod+0)+0,w
  8204  0B5A  07F5               	addwf	(i1___lwmod@counter),f
  8205  0B5B  2B5C               	goto	i1l4841
  8206                           	line	13
  8207                           	
  8208  0B5C                     i1l1814:	
  8209                           	line	10
  8210                           	
  8211  0B5C                     i1l4841:	
  8212  0B5C  1FF1               	btfss	(i1___lwmod@divisor+1),(15)&7
  8213  0B5D  2B5F               	goto	u618_21
  8214  0B5E  2B60               	goto	u618_20
  8215  0B5F                     u618_21:
  8216  0B5F  2B50               	goto	i1l4837
  8217  0B60                     u618_20:
  8218  0B60  2B62               	goto	i1l4843
  8219                           	
  8220  0B61                     i1l1816:	
  8221  0B61  2B62               	goto	i1l4843
  8222                           	line	14
  8223                           	
  8224  0B62                     i1l1817:	
  8225                           	line	15
  8226                           	
  8227  0B62                     i1l4843:	
  8228  0B62  0871               	movf	(i1___lwmod@divisor+1),w
  8229  0B63  0273               	subwf	(i1___lwmod@dividend+1),w
  8230  0B64  1D03               	skipz
  8231  0B65  2B68               	goto	u619_25
  8232  0B66  0870               	movf	(i1___lwmod@divisor),w
  8233  0B67  0272               	subwf	(i1___lwmod@dividend),w
  8234  0B68                     u619_25:
  8235  0B68  1C03               	skipc
  8236  0B69  2B6B               	goto	u619_21
  8237  0B6A  2B6C               	goto	u619_20
  8238  0B6B                     u619_21:
  8239  0B6B  2B73               	goto	i1l4847
  8240  0B6C                     u619_20:
  8241                           	line	16
  8242                           	
  8243  0B6C                     i1l4845:	
  8244  0B6C  0870               	movf	(i1___lwmod@divisor),w
  8245  0B6D  02F2               	subwf	(i1___lwmod@dividend),f
  8246  0B6E  0871               	movf	(i1___lwmod@divisor+1),w
  8247  0B6F  1C03               	skipc
  8248  0B70  03F3               	decf	(i1___lwmod@dividend+1),f
  8249  0B71  02F3               	subwf	(i1___lwmod@dividend+1),f
  8250  0B72  2B73               	goto	i1l4847
  8251                           	
  8252  0B73                     i1l1818:	
  8253                           	line	17
  8254                           	
  8255  0B73                     i1l4847:	
  8256  0B73  3001               	movlw	01h
  8257                           	
  8258  0B74                     u620_25:
  8259  0B74  1003               	clrc
  8260  0B75  0CF1               	rrf	(i1___lwmod@divisor+1),f
  8261  0B76  0CF0               	rrf	(i1___lwmod@divisor),f
  8262  0B77  3EFF               	addlw	-1
  8263  0B78  1D03               	skipz
  8264  0B79  2B74               	goto	u620_25
  8265                           	line	18
  8266                           	
  8267  0B7A                     i1l4849:	
  8268  0B7A  3001               	movlw	low(01h)
  8269  0B7B  02F5               	subwf	(i1___lwmod@counter),f
  8270  0B7C  1D03               	btfss	status,2
  8271  0B7D  2B7F               	goto	u621_21
  8272  0B7E  2B80               	goto	u621_20
  8273  0B7F                     u621_21:
  8274  0B7F  2B62               	goto	i1l4843
  8275  0B80                     u621_20:
  8276  0B80  2B82               	goto	i1l4851
  8277                           	
  8278  0B81                     i1l1819:	
  8279  0B81  2B82               	goto	i1l4851
  8280                           	line	19
  8281                           	
  8282  0B82                     i1l1813:	
  8283                           	line	20
  8284                           	
  8285  0B82                     i1l4851:	
  8286  0B82  0873               	movf	(i1___lwmod@dividend+1),w
  8287  0B83  01F1               	clrf	(?i1___lwmod+1)
  8288  0B84  07F1               	addwf	(?i1___lwmod+1)
  8289  0B85  0872               	movf	(i1___lwmod@dividend),w
  8290  0B86  01F0               	clrf	(?i1___lwmod)
  8291  0B87  07F0               	addwf	(?i1___lwmod)
  8292                           
  8293  0B88  2B89               	goto	i1l1820
  8294                           	
  8295  0B89                     i1l4853:	
  8296                           	line	21
  8297                           	
  8298  0B89                     i1l1820:	
  8299  0B89  0008               	return
  8300                           	opt stack 0
  8301                           GLOBAL	__end_ofi1___lwmod
  8302  0B8A                     	__end_ofi1___lwmod:
  8303 ;; =============== function i1___lwmod ends ============
  8304                           
  8305                           	signat	i1___lwmod,90
  8306                           	global	i1_lcd_init
  8307                           psect	text659,local,class=CODE,delta=2
  8308                           global __ptext659
  8309  0E2E                     __ptext659:
  8310                           
  8311 ;; *************** function i1_lcd_init *****************
  8312 ;; Defined at:
  8313 ;;		line 60 in file "D:\ELECTRONIC\2016\1. Automated Solar Panel Orientation Setter\Firmware\Test2\lcdV2.h"
  8314 ;; Parameters:    Size  Location     Type
  8315 ;;		None
  8316 ;; Auto vars:     Size  Location     Type
  8317 ;;  lcd_init        2    0[COMMON] unsigned int 
  8318 ;; Return value:  Size  Location     Type
  8319 ;;		None               void
  8320 ;; Registers used:
  8321 ;;		wreg, status,2
  8322 ;; Tracked objects:
  8323 ;;		On entry : 0/0
  8324 ;;		On exit  : 0/0
  8325 ;;		Unchanged: 0/0
  8326 ;; Data sizes:     COMMON   BANK0   BANK1   BANK3   BANK2
  8327 ;;      Params:         0       0       0       0       0
  8328 ;;      Locals:         2       0       0       0       0
  8329 ;;      Temps:          0       0       0       0       0
  8330 ;;      Totals:         2       0       0       0       0
  8331 ;;Total ram usage:        2 bytes
  8332 ;; Hardware stack levels used:    1
  8333 ;; This function calls:
  8334 ;;		Nothing
  8335 ;; This function is called by:
  8336 ;;		_isr
  8337 ;; This function uses a non-reentrant model
  8338 ;;
  8339                           psect	text659
  8340                           	file	"D:\ELECTRONIC\2016\1. Automated Solar Panel Orientation Setter\Firmware\Test2\lcd
                                 V2.h"
  8341                           	line	60
  8342                           	global	__size_ofi1_lcd_init
  8343  00DA                     	__size_ofi1_lcd_init	equ	__end_ofi1_lcd_init-i1_lcd_init
  8344                           	
  8345  0E2E                     i1_lcd_init:	
  8346                           	opt	stack 3
  8347                           ; Regs used in i1_lcd_init: [wreg+status,2]
  8348                           	line	62
  8349                           	
  8350  0E2E                     i1l4731:	
  8351                           ;lcdV2.h: 62: RC3 = 0;
  8352  0E2E  1283               	bcf	status, 5	;RP0=0, select bank0
  8353  0E2F  1303               	bcf	status, 6	;RP1=0, select bank0
  8354  0E30  1187               	bcf	(59/8),(59)&7
  8355                           	line	66
  8356                           ;lcdV2.h: 64: unsigned int DelayLCD;
  8357                           ;lcdV2.h: 66: RC2 = 0;
  8358  0E31  1107               	bcf	(58/8),(58)&7
  8359                           	line	67
  8360                           ;lcdV2.h: 67: RD1 = 0;
  8361  0E32  1088               	bcf	(65/8),(65)&7
  8362                           	line	68
  8363                           ;lcdV2.h: 68: RC0 = 0;
  8364  0E33  1007               	bcf	(56/8),(56)&7
  8365                           	line	69
  8366                           ;lcdV2.h: 69: RD0 = 1;
  8367  0E34  1408               	bsf	(64/8),(64)&7
  8368                           	line	70
  8369                           ;lcdV2.h: 70: RC1 = 0;
  8370  0E35  1087               	bcf	(57/8),(57)&7
  8371                           	line	71
  8372                           ;lcdV2.h: 71: RC3 = 1;
  8373  0E36  1587               	bsf	(59/8),(59)&7
  8374                           	line	72
  8375                           ;lcdV2.h: 72: RC3 = 0;
  8376  0E37  1187               	bcf	(59/8),(59)&7
  8377                           	line	73
  8378                           ;lcdV2.h: 73: RD1 = 1;
  8379  0E38  1488               	bsf	(65/8),(65)&7
  8380                           	line	74
  8381                           ;lcdV2.h: 74: RC0 = 0;
  8382  0E39  1007               	bcf	(56/8),(56)&7
  8383                           	line	75
  8384                           ;lcdV2.h: 75: RD0 = 0;
  8385  0E3A  1008               	bcf	(64/8),(64)&7
  8386                           	line	76
  8387                           ;lcdV2.h: 76: RC1 = 0;
  8388  0E3B  1087               	bcf	(57/8),(57)&7
  8389                           	line	77
  8390                           ;lcdV2.h: 77: RC3 = 1;
  8391  0E3C  1587               	bsf	(59/8),(59)&7
  8392                           	line	78
  8393                           ;lcdV2.h: 78: RC3 = 0;
  8394  0E3D  1187               	bcf	(59/8),(59)&7
  8395                           	line	79
  8396                           	
  8397  0E3E                     i1l4733:	
  8398                           ;lcdV2.h: 79: for(DelayLCD=0;DelayLCD<2500;DelayLCD++);
  8399  0E3E  01F0               	clrf	(i1lcd_init@DelayLCD)
  8400  0E3F  01F1               	clrf	(i1lcd_init@DelayLCD+1)
  8401                           	
  8402  0E40                     i1l4735:	
  8403  0E40  3009               	movlw	high(09C4h)
  8404  0E41  0271               	subwf	(i1lcd_init@DelayLCD+1),w
  8405  0E42  30C4               	movlw	low(09C4h)
  8406  0E43  1903               	skipnz
  8407  0E44  0270               	subwf	(i1lcd_init@DelayLCD),w
  8408  0E45  1C03               	skipc
  8409  0E46  2E48               	goto	u572_21
  8410  0E47  2E49               	goto	u572_20
  8411  0E48                     u572_21:
  8412  0E48  2E4B               	goto	i1l4739
  8413  0E49                     u572_20:
  8414  0E49  2E5A               	goto	i1l777
  8415                           	
  8416  0E4A                     i1l4737:	
  8417  0E4A  2E5A               	goto	i1l777
  8418                           	
  8419  0E4B                     i1l776:	
  8420                           	
  8421  0E4B                     i1l4739:	
  8422  0E4B  3001               	movlw	low(01h)
  8423  0E4C  07F0               	addwf	(i1lcd_init@DelayLCD),f
  8424  0E4D  1803               	skipnc
  8425  0E4E  0AF1               	incf	(i1lcd_init@DelayLCD+1),f
  8426  0E4F  3000               	movlw	high(01h)
  8427  0E50  07F1               	addwf	(i1lcd_init@DelayLCD+1),f
  8428  0E51  3009               	movlw	high(09C4h)
  8429  0E52  0271               	subwf	(i1lcd_init@DelayLCD+1),w
  8430  0E53  30C4               	movlw	low(09C4h)
  8431  0E54  1903               	skipnz
  8432  0E55  0270               	subwf	(i1lcd_init@DelayLCD),w
  8433  0E56  1C03               	skipc
  8434  0E57  2E59               	goto	u573_21
  8435  0E58  2E5A               	goto	u573_20
  8436  0E59                     u573_21:
  8437  0E59  2E4B               	goto	i1l4739
  8438  0E5A                     u573_20:
  8439                           	
  8440  0E5A                     i1l777:	
  8441                           	line	82
  8442                           ;lcdV2.h: 82: RC2 = 0;
  8443  0E5A  1283               	bcf	status, 5	;RP0=0, select bank0
  8444  0E5B  1303               	bcf	status, 6	;RP1=0, select bank0
  8445  0E5C  1107               	bcf	(58/8),(58)&7
  8446                           	line	83
  8447                           ;lcdV2.h: 83: RD1 = 0;
  8448  0E5D  1088               	bcf	(65/8),(65)&7
  8449                           	line	84
  8450                           ;lcdV2.h: 84: RC0 = 0;
  8451  0E5E  1007               	bcf	(56/8),(56)&7
  8452                           	line	85
  8453                           ;lcdV2.h: 85: RD0 = 1;
  8454  0E5F  1408               	bsf	(64/8),(64)&7
  8455                           	line	86
  8456                           ;lcdV2.h: 86: RC1 = 0;
  8457  0E60  1087               	bcf	(57/8),(57)&7
  8458                           	line	87
  8459                           ;lcdV2.h: 87: RC3 = 1;
  8460  0E61  1587               	bsf	(59/8),(59)&7
  8461                           	line	88
  8462                           ;lcdV2.h: 88: RC3 = 0;
  8463  0E62  1187               	bcf	(59/8),(59)&7
  8464                           	line	89
  8465                           ;lcdV2.h: 89: RD1 = 1;
  8466  0E63  1488               	bsf	(65/8),(65)&7
  8467                           	line	90
  8468                           ;lcdV2.h: 90: RC0 = 0;
  8469  0E64  1007               	bcf	(56/8),(56)&7
  8470                           	line	91
  8471                           ;lcdV2.h: 91: RD0 = 0;
  8472  0E65  1008               	bcf	(64/8),(64)&7
  8473                           	line	92
  8474                           ;lcdV2.h: 92: RC1 = 0;
  8475  0E66  1087               	bcf	(57/8),(57)&7
  8476                           	line	93
  8477                           ;lcdV2.h: 93: RC3 = 1;
  8478  0E67  1587               	bsf	(59/8),(59)&7
  8479                           	line	94
  8480                           ;lcdV2.h: 94: RC3 = 0;
  8481  0E68  1187               	bcf	(59/8),(59)&7
  8482                           	line	95
  8483                           	
  8484  0E69                     i1l4741:	
  8485                           ;lcdV2.h: 95: for(DelayLCD=0;DelayLCD<2500;DelayLCD++);
  8486  0E69  01F0               	clrf	(i1lcd_init@DelayLCD)
  8487  0E6A  01F1               	clrf	(i1lcd_init@DelayLCD+1)
  8488                           	
  8489  0E6B                     i1l4743:	
  8490  0E6B  3009               	movlw	high(09C4h)
  8491  0E6C  0271               	subwf	(i1lcd_init@DelayLCD+1),w
  8492  0E6D  30C4               	movlw	low(09C4h)
  8493  0E6E  1903               	skipnz
  8494  0E6F  0270               	subwf	(i1lcd_init@DelayLCD),w
  8495  0E70  1C03               	skipc
  8496  0E71  2E73               	goto	u574_21
  8497  0E72  2E74               	goto	u574_20
  8498  0E73                     u574_21:
  8499  0E73  2E76               	goto	i1l4747
  8500  0E74                     u574_20:
  8501  0E74  2E85               	goto	i1l779
  8502                           	
  8503  0E75                     i1l4745:	
  8504  0E75  2E85               	goto	i1l779
  8505                           	
  8506  0E76                     i1l778:	
  8507                           	
  8508  0E76                     i1l4747:	
  8509  0E76  3001               	movlw	low(01h)
  8510  0E77  07F0               	addwf	(i1lcd_init@DelayLCD),f
  8511  0E78  1803               	skipnc
  8512  0E79  0AF1               	incf	(i1lcd_init@DelayLCD+1),f
  8513  0E7A  3000               	movlw	high(01h)
  8514  0E7B  07F1               	addwf	(i1lcd_init@DelayLCD+1),f
  8515  0E7C  3009               	movlw	high(09C4h)
  8516  0E7D  0271               	subwf	(i1lcd_init@DelayLCD+1),w
  8517  0E7E  30C4               	movlw	low(09C4h)
  8518  0E7F  1903               	skipnz
  8519  0E80  0270               	subwf	(i1lcd_init@DelayLCD),w
  8520  0E81  1C03               	skipc
  8521  0E82  2E84               	goto	u575_21
  8522  0E83  2E85               	goto	u575_20
  8523  0E84                     u575_21:
  8524  0E84  2E76               	goto	i1l4747
  8525  0E85                     u575_20:
  8526                           	
  8527  0E85                     i1l779:	
  8528                           	line	98
  8529                           ;lcdV2.h: 98: RC2 = 0;
  8530  0E85  1283               	bcf	status, 5	;RP0=0, select bank0
  8531  0E86  1303               	bcf	status, 6	;RP1=0, select bank0
  8532  0E87  1107               	bcf	(58/8),(58)&7
  8533                           	line	99
  8534                           ;lcdV2.h: 99: RD1 = 0;
  8535  0E88  1088               	bcf	(65/8),(65)&7
  8536                           	line	100
  8537                           ;lcdV2.h: 100: RC0 = 0;
  8538  0E89  1007               	bcf	(56/8),(56)&7
  8539                           	line	101
  8540                           ;lcdV2.h: 101: RD0 = 0;
  8541  0E8A  1008               	bcf	(64/8),(64)&7
  8542                           	line	102
  8543                           ;lcdV2.h: 102: RC1 = 0;
  8544  0E8B  1087               	bcf	(57/8),(57)&7
  8545                           	line	103
  8546                           ;lcdV2.h: 103: RC3 = 1;
  8547  0E8C  1587               	bsf	(59/8),(59)&7
  8548                           	line	104
  8549                           ;lcdV2.h: 104: RC3 = 0;
  8550  0E8D  1187               	bcf	(59/8),(59)&7
  8551                           	line	105
  8552                           ;lcdV2.h: 105: RD1 = 0;
  8553  0E8E  1088               	bcf	(65/8),(65)&7
  8554                           	line	106
  8555                           ;lcdV2.h: 106: RC0 = 1;
  8556  0E8F  1407               	bsf	(56/8),(56)&7
  8557                           	line	107
  8558                           ;lcdV2.h: 107: RD0 = 1;
  8559  0E90  1408               	bsf	(64/8),(64)&7
  8560                           	line	108
  8561                           ;lcdV2.h: 108: RC1 = 0;
  8562  0E91  1087               	bcf	(57/8),(57)&7
  8563                           	line	109
  8564                           ;lcdV2.h: 109: RC3 = 1;
  8565  0E92  1587               	bsf	(59/8),(59)&7
  8566                           	line	110
  8567                           ;lcdV2.h: 110: RC3 = 0;
  8568  0E93  1187               	bcf	(59/8),(59)&7
  8569                           	line	111
  8570                           	
  8571  0E94                     i1l4749:	
  8572                           ;lcdV2.h: 111: for(DelayLCD=0;DelayLCD<2500;DelayLCD++);
  8573  0E94  01F0               	clrf	(i1lcd_init@DelayLCD)
  8574  0E95  01F1               	clrf	(i1lcd_init@DelayLCD+1)
  8575                           	
  8576  0E96                     i1l4751:	
  8577  0E96  3009               	movlw	high(09C4h)
  8578  0E97  0271               	subwf	(i1lcd_init@DelayLCD+1),w
  8579  0E98  30C4               	movlw	low(09C4h)
  8580  0E99  1903               	skipnz
  8581  0E9A  0270               	subwf	(i1lcd_init@DelayLCD),w
  8582  0E9B  1C03               	skipc
  8583  0E9C  2E9E               	goto	u576_21
  8584  0E9D  2E9F               	goto	u576_20
  8585  0E9E                     u576_21:
  8586  0E9E  2EA1               	goto	i1l4755
  8587  0E9F                     u576_20:
  8588  0E9F  2EB0               	goto	i1l781
  8589                           	
  8590  0EA0                     i1l4753:	
  8591  0EA0  2EB0               	goto	i1l781
  8592                           	
  8593  0EA1                     i1l780:	
  8594                           	
  8595  0EA1                     i1l4755:	
  8596  0EA1  3001               	movlw	low(01h)
  8597  0EA2  07F0               	addwf	(i1lcd_init@DelayLCD),f
  8598  0EA3  1803               	skipnc
  8599  0EA4  0AF1               	incf	(i1lcd_init@DelayLCD+1),f
  8600  0EA5  3000               	movlw	high(01h)
  8601  0EA6  07F1               	addwf	(i1lcd_init@DelayLCD+1),f
  8602  0EA7  3009               	movlw	high(09C4h)
  8603  0EA8  0271               	subwf	(i1lcd_init@DelayLCD+1),w
  8604  0EA9  30C4               	movlw	low(09C4h)
  8605  0EAA  1903               	skipnz
  8606  0EAB  0270               	subwf	(i1lcd_init@DelayLCD),w
  8607  0EAC  1C03               	skipc
  8608  0EAD  2EAF               	goto	u577_21
  8609  0EAE  2EB0               	goto	u577_20
  8610  0EAF                     u577_21:
  8611  0EAF  2EA1               	goto	i1l4755
  8612  0EB0                     u577_20:
  8613                           	
  8614  0EB0                     i1l781:	
  8615                           	line	114
  8616                           ;lcdV2.h: 114: RC2 = 0;
  8617  0EB0  1283               	bcf	status, 5	;RP0=0, select bank0
  8618  0EB1  1303               	bcf	status, 6	;RP1=0, select bank0
  8619  0EB2  1107               	bcf	(58/8),(58)&7
  8620                           	line	115
  8621                           ;lcdV2.h: 115: RD1 = 0;
  8622  0EB3  1088               	bcf	(65/8),(65)&7
  8623                           	line	116
  8624                           ;lcdV2.h: 116: RC0 = 0;
  8625  0EB4  1007               	bcf	(56/8),(56)&7
  8626                           	line	117
  8627                           ;lcdV2.h: 117: RD0 = 0;
  8628  0EB5  1008               	bcf	(64/8),(64)&7
  8629                           	line	118
  8630                           ;lcdV2.h: 118: RC1 = 0;
  8631  0EB6  1087               	bcf	(57/8),(57)&7
  8632                           	line	119
  8633                           ;lcdV2.h: 119: RC3 = 1;
  8634  0EB7  1587               	bsf	(59/8),(59)&7
  8635                           	line	120
  8636                           ;lcdV2.h: 120: RC3 = 0;
  8637  0EB8  1187               	bcf	(59/8),(59)&7
  8638                           	line	121
  8639                           ;lcdV2.h: 121: RD1 = 1;
  8640  0EB9  1488               	bsf	(65/8),(65)&7
  8641                           	line	122
  8642                           ;lcdV2.h: 122: RC0 = 1;
  8643  0EBA  1407               	bsf	(56/8),(56)&7
  8644                           	line	123
  8645                           ;lcdV2.h: 123: RD0 = 0;
  8646  0EBB  1008               	bcf	(64/8),(64)&7
  8647                           	line	124
  8648                           ;lcdV2.h: 124: RC1 = 1;
  8649  0EBC  1487               	bsf	(57/8),(57)&7
  8650                           	line	125
  8651                           ;lcdV2.h: 125: RC3 = 1;
  8652  0EBD  1587               	bsf	(59/8),(59)&7
  8653                           	line	126
  8654                           ;lcdV2.h: 126: RC3 = 0;
  8655  0EBE  1187               	bcf	(59/8),(59)&7
  8656                           	line	127
  8657                           	
  8658  0EBF                     i1l4757:	
  8659                           ;lcdV2.h: 127: for(DelayLCD=0;DelayLCD<2500;DelayLCD++);
  8660  0EBF  01F0               	clrf	(i1lcd_init@DelayLCD)
  8661  0EC0  01F1               	clrf	(i1lcd_init@DelayLCD+1)
  8662                           	
  8663  0EC1                     i1l4759:	
  8664  0EC1  3009               	movlw	high(09C4h)
  8665  0EC2  0271               	subwf	(i1lcd_init@DelayLCD+1),w
  8666  0EC3  30C4               	movlw	low(09C4h)
  8667  0EC4  1903               	skipnz
  8668  0EC5  0270               	subwf	(i1lcd_init@DelayLCD),w
  8669  0EC6  1C03               	skipc
  8670  0EC7  2EC9               	goto	u578_21
  8671  0EC8  2ECA               	goto	u578_20
  8672  0EC9                     u578_21:
  8673  0EC9  2ECC               	goto	i1l4763
  8674  0ECA                     u578_20:
  8675  0ECA  2EDB               	goto	i1l783
  8676                           	
  8677  0ECB                     i1l4761:	
  8678  0ECB  2EDB               	goto	i1l783
  8679                           	
  8680  0ECC                     i1l782:	
  8681                           	
  8682  0ECC                     i1l4763:	
  8683  0ECC  3001               	movlw	low(01h)
  8684  0ECD  07F0               	addwf	(i1lcd_init@DelayLCD),f
  8685  0ECE  1803               	skipnc
  8686  0ECF  0AF1               	incf	(i1lcd_init@DelayLCD+1),f
  8687  0ED0  3000               	movlw	high(01h)
  8688  0ED1  07F1               	addwf	(i1lcd_init@DelayLCD+1),f
  8689  0ED2  3009               	movlw	high(09C4h)
  8690  0ED3  0271               	subwf	(i1lcd_init@DelayLCD+1),w
  8691  0ED4  30C4               	movlw	low(09C4h)
  8692  0ED5  1903               	skipnz
  8693  0ED6  0270               	subwf	(i1lcd_init@DelayLCD),w
  8694  0ED7  1C03               	skipc
  8695  0ED8  2EDA               	goto	u579_21
  8696  0ED9  2EDB               	goto	u579_20
  8697  0EDA                     u579_21:
  8698  0EDA  2ECC               	goto	i1l4763
  8699  0EDB                     u579_20:
  8700                           	
  8701  0EDB                     i1l783:	
  8702                           	line	130
  8703                           ;lcdV2.h: 130: RC2 = 0;
  8704  0EDB  1283               	bcf	status, 5	;RP0=0, select bank0
  8705  0EDC  1303               	bcf	status, 6	;RP1=0, select bank0
  8706  0EDD  1107               	bcf	(58/8),(58)&7
  8707                           	line	131
  8708                           ;lcdV2.h: 131: RD1 = 0;
  8709  0EDE  1088               	bcf	(65/8),(65)&7
  8710                           	line	132
  8711                           ;lcdV2.h: 132: RC0 = 0;
  8712  0EDF  1007               	bcf	(56/8),(56)&7
  8713                           	line	133
  8714                           ;lcdV2.h: 133: RD0 = 0;
  8715  0EE0  1008               	bcf	(64/8),(64)&7
  8716                           	line	134
  8717                           ;lcdV2.h: 134: RC1 = 0;
  8718  0EE1  1087               	bcf	(57/8),(57)&7
  8719                           	line	135
  8720                           ;lcdV2.h: 135: RC3 = 1;
  8721  0EE2  1587               	bsf	(59/8),(59)&7
  8722                           	line	136
  8723                           ;lcdV2.h: 136: RC3 = 0;
  8724  0EE3  1187               	bcf	(59/8),(59)&7
  8725                           	line	137
  8726                           ;lcdV2.h: 137: RD1 = 0;
  8727  0EE4  1088               	bcf	(65/8),(65)&7
  8728                           	line	138
  8729                           ;lcdV2.h: 138: RC0 = 0;
  8730  0EE5  1007               	bcf	(56/8),(56)&7
  8731                           	line	139
  8732                           ;lcdV2.h: 139: RD0 = 0;
  8733  0EE6  1008               	bcf	(64/8),(64)&7
  8734                           	line	140
  8735                           ;lcdV2.h: 140: RC1 = 1;
  8736  0EE7  1487               	bsf	(57/8),(57)&7
  8737                           	line	141
  8738                           ;lcdV2.h: 141: RC3 = 1;
  8739  0EE8  1587               	bsf	(59/8),(59)&7
  8740                           	line	142
  8741                           ;lcdV2.h: 142: RC3 = 0;
  8742  0EE9  1187               	bcf	(59/8),(59)&7
  8743                           	line	143
  8744                           	
  8745  0EEA                     i1l4765:	
  8746                           ;lcdV2.h: 143: for(DelayLCD=0;DelayLCD<2500;DelayLCD++);
  8747  0EEA  01F0               	clrf	(i1lcd_init@DelayLCD)
  8748  0EEB  01F1               	clrf	(i1lcd_init@DelayLCD+1)
  8749                           	
  8750  0EEC                     i1l4767:	
  8751  0EEC  3009               	movlw	high(09C4h)
  8752  0EED  0271               	subwf	(i1lcd_init@DelayLCD+1),w
  8753  0EEE  30C4               	movlw	low(09C4h)
  8754  0EEF  1903               	skipnz
  8755  0EF0  0270               	subwf	(i1lcd_init@DelayLCD),w
  8756  0EF1  1C03               	skipc
  8757  0EF2  2EF4               	goto	u580_21
  8758  0EF3  2EF5               	goto	u580_20
  8759  0EF4                     u580_21:
  8760  0EF4  2EF7               	goto	i1l4771
  8761  0EF5                     u580_20:
  8762  0EF5  2F07               	goto	i1l786
  8763                           	
  8764  0EF6                     i1l4769:	
  8765  0EF6  2F07               	goto	i1l786
  8766                           	
  8767  0EF7                     i1l784:	
  8768                           	
  8769  0EF7                     i1l4771:	
  8770  0EF7  3001               	movlw	low(01h)
  8771  0EF8  07F0               	addwf	(i1lcd_init@DelayLCD),f
  8772  0EF9  1803               	skipnc
  8773  0EFA  0AF1               	incf	(i1lcd_init@DelayLCD+1),f
  8774  0EFB  3000               	movlw	high(01h)
  8775  0EFC  07F1               	addwf	(i1lcd_init@DelayLCD+1),f
  8776  0EFD  3009               	movlw	high(09C4h)
  8777  0EFE  0271               	subwf	(i1lcd_init@DelayLCD+1),w
  8778  0EFF  30C4               	movlw	low(09C4h)
  8779  0F00  1903               	skipnz
  8780  0F01  0270               	subwf	(i1lcd_init@DelayLCD),w
  8781  0F02  1C03               	skipc
  8782  0F03  2F05               	goto	u581_21
  8783  0F04  2F06               	goto	u581_20
  8784  0F05                     u581_21:
  8785  0F05  2EF7               	goto	i1l4771
  8786  0F06                     u581_20:
  8787  0F06  2F07               	goto	i1l786
  8788                           	
  8789  0F07                     i1l785:	
  8790                           	line	146
  8791                           	
  8792  0F07                     i1l786:	
  8793  0F07  0008               	return
  8794                           	opt stack 0
  8795                           GLOBAL	__end_ofi1_lcd_init
  8796  0F08                     	__end_ofi1_lcd_init:
  8797 ;; =============== function i1_lcd_init ends ============
  8798                           
  8799                           	signat	i1_lcd_init,88
  8800                           psect	text660,local,class=CODE,delta=2
  8801                           global __ptext660
  8802  0000                     __ptext660:
  8803                           	global	btemp
  8804  007E                     	btemp set 07Eh
  8805                           
  8806                           	DABS	1,126,2	;btemp
  8807                           	global	wtemp0
  8808  007E                     	wtemp0 set btemp


HI-TECH Software PICC Macro Assembler V9.83 build 10920 
Symbol Table                                                                                   Wed Mar 02 00:56:50 2016

                       _i 0069                         _j 005D                         _v 0062  
                       _w 0063                         _x 0065                         _y 0066  
                       _z 0067                         pc 0002            ___bmul@product 0022  
                      _GO 00FA                        _RD 0C60                        _WR 0C61  
                      _rc 00B4                        fsr 0004       ___wmul@multiplicand 0022  
                     l811 07FB                       l830 0ADF                       l806 0B14  
                     l831 0AE0                       l807 0B1F                       l832 0AE0  
                     l808 0B45                       l817 0998                       l833 0AE5  
                     l826 0A45                       l834 0B06                       l835 0B06  
                     l780 0DCB                       l940 0C33                       l773 0A8A  
                     l781 0DDA                       l829 0AF9                       l941 0C38  
                     l782 0DF4                       l950 0C6D                       l942 0C43  
                     l783 0E03                       l871 09A7                       l951 0C78  
                     l943 0C43                       l784 0E1D                       l776 0D79  
                     l952 0C78                       l944 0C4A                       l880 06E7  
                     l785 0E2D                       l777 0D88                       l953 0C7F  
                     l945 0C55                       l881 06E8                       l786 0E2D  
                     l778 0DA2                       l954 0C8A                       l946 0C55  
                     l882 06E9                       l874 06D0                       l779 0DB1  
                     l955 0C8A                       l947 0C5C                       l939 0C33  
                     l795 0A06                       l883 0700                       l875 06EB  
                     l868 09BA                       l956 0C91                       l948 0C66  
                     l980 001D                       l884 0701                       l876 06D1  
                     l957 0C9A                       l949 0C66                       l981 002A  
                     l885 0701                       l877 06FF                       l798 0A66  
                     l990 0061                       l982 0031                       l878 06D6  
                     l991 006A                       l983 004B                       l879 06E6  
                     l992 00BE                       l984 0032                       l993 007F  
                     l985 0060                       l994 00BD                       l986 0038  
                     l979 05C7                       l995 00DE                       l987 003E  
                     _GIE 005F                       l996 00DD                       l988 0044  
                     l997 0142                       l989 005F                       l998 010D  
                     l999 0141                       _RC0 0038                       _RC1 0039  
                     _RD0 0040                       _RC2 003A                       _RD1 0041  
                     _RC3 003B                       _RD6 0046                       _RX9 00C6  
                     _TX9 04C6                       _isr 0C9B                       _nop 03E0  
                     fsr0 0004                       indf 0000                i1_lcd_init 0E2E  
                    l1000 012F                      l1001 010F                      l1010 0149  
                    l1002 0140                      l1011 014A                      l1003 0144  
                    l1100 0524                      l1004 01F9                      l1020 019A  
                    l1012 014B                      l1021 01AC                      l1013 014D  
                    l1005 0145                      l1006 05DD                      l1102 0529  
                    l1030 01F3                      l1022 019C                      l1014 0166  
                    l1103 0554                      l1031 0246                      l1023 01BC  
                    l1015 0177                      l1007 0146                      l1104 059E  
                    l1040 028D                      l1032 0245                      l1008 021F  
                    l1024 01DD                      l1016 017A                      l1105 05C6  
                    l1041 0311                      l1033 0253                      l1025 01C9  
                    l1017 019B                      l1009 0148                      l1106 05B0  
                    l1050 0320                      l1042 0299                      l1034 0263  
                    l1026 01C2                      l1018 0187                      l1107 05C5  
                    l1051 032F                      l1035 0302                      l1043 02A4  
                    l1027 01DC                      l1019 0180                      l1108 05DC  
                    l1060 03BD                      l1052 032F                      l1044 02CC  
                    l1036 0264                      l1028 01DE                      l1061 03B7  
                    l1053 0348                      l1045 02C1                      l1037 0265  
                    l1029 01EA                      l1109 05DD                      l1070 0435  
                    l1062 03BC                      l1054 0373                      l1046 02CD  
                    l1038 0270                      l1063 03DF                      l1055 036D  
                    l1047 02D8                      l1039 0298                      l1080 0462  
                    l1072 0429                      l1064 03E4                      l1056 0372  
                    l1048 0300                      l1081 0477                      l1065 0457  
                    l1057 0391                      l1049 02F5                      l1082 048B  
                    l1074 042E                      l1066 03FB                      l1058 0390  
                    l1091 04D8                      l1083 0497                      l1075 0456  
                    l1067 0437                      l1059 03BE                      l1092 0592  
                    l1084 0496                      l1076 0440                      l1068 0406  
                    l1093 04E2                      l1085 04B0                      l1077 0455  
                    l1069 0436                      l1094 057A                      l1078 04E1  
                    l1086 04E0                      l1095 04E3                      l1087 04DF  
                    l1079 0478                      l1096 04E4                      l1097 058B  
                    l1089 04D3                      l1098 051B                      l1800 0ADA  
                    l5001 0045                      l1810 0C1F                      l1803 0C18  
                    l5011 007A                      l5003 004A                      l1804 0BEA  
                    l1820 0BCF                      l1805 0BDE                      l1813 0BC8  
                    l5101 023B                      l5021 00CC                      l5013 007F  
                    l5005 004B                      l1806 0BEF                      l1814 0BA2  
                    l1807 0BF0                      l1815 0B96                      l5111 0258  
                    l5103 023F                      l5031 00ED                      l5023 00D4  
                    l5015 00A8                      l5007 0065                      l1808 0C09  
                    l1816 0BA7                      l4401 0DCA                      l1809 0C17  
                    l1817 0BA8                      l5201 03E4                      l5121 0270  
                    l5113 025E                      l5105 0246                      l5041 010F  
                    l5033 00F1                      l5025 00D8                      l5017 00AC  
                    l5009 006A                      l1818 0BB9                      l4411 0DF4  
                    l4403 0DCB                      l1819 0BC7                      l5211 0418  
                    l5203 03E8                      l5131 029C                      l5123 028C  
                    l5115 0265                      l5107 024E                      l5051 0160  
                    l5043 012A                      l5035 00FD                      l5027 00DE  
                    l5019 00BE                      l4413 0E10                      l4405 0DE7  
                    l5213 041E                      l5221 0437                      l5205 03F4  
                    l5141 02C5                      l5133 02A3                      l5125 028D  
                    l5117 0268                      l5109 0253                      l5061 017F  
                    l5053 0166                      l5045 012F                      l5037 0104  
                    l5029 00EC                      l5301 0642                      l4415 0E12  
                    l4407 0DE9                      l1791 09D6                      l5231 0462  
                    l5223 0440                      l5215 0424                      l5207 03FF  
                    l5151 02F4                      l5143 02CD                      l5135 02A4  
                    l5127 0291                      l5119 026F                      l5063 0180  
                    l5071 01AC                      l5055 0170                      l5047 014D  
                    l5039 0108                      l5311 067E                      l5303 0653  
                    l1792 09DF                      l4417 0E1C                      l4409 0DF3  
                    l1793 09E9                      l5241 0497                      l5233 0468  
                    l5225 0446                      l5217 0429                      l5209 0406  
                    l5153 02F5                      l5145 02D0                      l5137 02C0  
                    l5129 0299                      l5161 0311                      l5081 01E5  
                    l5073 01C1                      l5065 0187                      l5057 0177  
                    l5049 0151                      l5321 06C5                      l5313 0684  
                    l5305 0662                      l1794 09EB                      l4371 0A75  
                    l4419 0E1D                      l1787 09CF                      l5251 04CE  
                    l5243 04A9                      l5235 0478                      l5219 042E  
                    l5227 0457                      l5171 0341                      l5163 031B  
                    l5155 02F9                      l5147 02D7                      l5139 02C1  
                    l5083 01EA                      l5075 01C2                      l5067 019C  
                    l5059 017A                      l5091 01F9                      l5331 06E2  
                    l5323 06CA                      l5315 0693                      l5307 066D  
                    l1788 09D1                      l4373 0A79                      l4365 0A67  
                    l4381 0D6C                      l4437 0990                      l1797 0AB4  
                    l4701 0C09                      l5261 0524                      l5253 04D3  
                    l5245 04B0                      l5237 0484                      l5229 045D  
                    l5181 0373                      l5173 0348                      l5165 0320  
                    l5157 0301                      l5149 02D8                      l5085 01EE  
                    l5077 01C9                      l5069 01A5                      l5093 021F  
                    l5333 06EA                      l5325 06D1                      l5317 069E  
                    l5309 0673                      l1798 0ABE                      l4375 0A80  
                    l4367 0A6B                      l4391 0D97                      l4383 0D6E  
                    l1799 0AD3                      l4703 0C10                      l4711 0B92  
                    l5263 0529                      l5271 058B                      l5255 04D8  
                    l5247 04C2                      l5239 048F                      l5191 03AE  
                    l5183 0383                      l5175 034C                      l5167 032A  
                    l5159 0302                      l5095 022B                      l5087 01F3  
                    l5079 01DE                      l5327 06D7                      l5335 06EB  
                    l5319 06B7                      l4377 0A83                      l4369 0A6E  
                    l4393 0DA1                      l4385 0D78                      l4481 09A8  
                    l4705 0C18                      l4721 0BB2                      l4713 0B96  
                    l5265 0554                      l5257 04E4                      l5249 04C8  
                    l5273 0592                      l5193 03B7                      l5185 0389  
                    l5177 035F                      l5169 0335                      l5097 0233  
                    l5089 01F8                      l5281 05C7                      l5329 06DD  
                    l4395 0DA2                      l4387 0D79                      l4379 0D5C  
                    l4483 0999                      l4651 09CB                      l4707 0C1F  
                    l4723 0BB9                      l4715 0B9D                      l5275 05A2  
                    l5267 0579                      l5259 051F                      l5195 03BE  
                    l5187 0391                      l5179 036D                      l5099 0237  
                    l5291 060B                      l5283 05DE                      l4397 0DBE  
                    l4389 0D95                      l4485 09A0                      l4653 09CF  
                    l4645 09BE                      l4661 09DF                      l4725 0BC0  
                    l4717 0BA2                      l4709 0B8A                      l4901 07FA  
                    l5277 05B0                      l5269 057A                      l5197 03D1  
                    l5189 03A1                      l5293 0611                      l5285 05FC  
                    l4399 0DC0                      l4487 09A4                      l4655 09D1  
                    l4647 09BF                      l4663 09E1                      l4671 0AAF  
                    l4719 0BA8                      l4727 0BC8                      l4911 0A35  
                    l4903 0A26                      l5279 05B6                      l5199 03DF  
                    l5295 061C                      l5287 0601                      l4649 09C5  
                    l4665 09E3                      l4657 09D5                      l4681 0ADA  
                    l4673 0AB4                      l4729 0BCF                      l4905 0A31  
                    l4921 0AF9                      l4913 0ADE                      l5297 0622  
                    l5289 0606                      l4667 09E9                      l4659 09DA  
                    l4675 0AB8                      l4691 0BE5                      l4683 0BD0  
                    l4907 0A33                      l4915 0AE5                      l4931 0C4D  
                    l4923 0C20                      l5299 063C                      l4669 09EB  
                    l4677 0AC5                      l4693 0BEA                      l4685 0BD4  
                    l4861 0794                      l4909 0A34                      l4917 0AED  
                    l4941 0C82                      l4933 0C5C                      l4925 0C38  
                    l4679 0AD3                      l4695 0BF0                      l4687 0BDA  
                    l4871 07AD                      l4863 0795                      l4855 0704  
                    l4919 0AF1                      l4943 0C91                      l4935 0C6D  
                    l4927 0C3B                      l4951 0A00                      _ADIE 0466  
                    l4697 0C01                      l4689 0BDE                      l4881 07C6  
                    l4873 07B7                      l4865 0798                      l4857 072B  
                    l4937 0C70                      l4929 0C4A                      l4945 09EF  
                    l4961 0A58                      l4953 0A46                      l4699 0C07  
                    l4891 07D8                      l4883 07C9                      l4875 07C1  
                    l4867 0799                      l4859 0791                      l4939 0C7F  
                    l4947 09F0                      l4963 0A63                      l4955 0A49  
                    l4971 0B1F                      ?_isr 0070                      l4893 07E2  
                    l4885 07CA                      l4877 07C2                      l4869 07A3  
                    l4949 09FB                      l4957 0A4E                      l4981 0B36  
                    l4973 0B25                      l4965 0B0A                      l4895 07EC  
                    l4887 07CD                      l4879 07C5                      l4959 0A53  
                    l4983 0B41                      l4975 0B26                      l4967 0B10  
                    l4991 0023                      l4897 07F6                      l4889 07CE  
                    l4985 0B44                      l4977 0B2B                      l4969 0B1A  
                    l4993 002A                      l4899 07F7                      l4979 0B31  
                    l4995 0033                      l4987 0018                      l4997 0039  
                    l4989 001D                      l4999 003F                      _ADON 00F8  
                    _EEIE 046C                      STR_1 086D                      STR_2 085B  
                    STR_3 0849                      STR_4 0837                      STR_5 08A1  
                    STR_6 08B2                      STR_7 08D4                      STR_8 08C3  
                    STR_9 0824                      _BRGH 04C2                      _T0IE 005D  
                    _CREN 00C4                      _FERR 00C2                      u5000 0E1B  
                    u5001 0E1A                      u5010 0E2C                      u5011 0E2B  
                    u7000 035F                      u7001 035E                      u7010 0383  
                    u7011 0382                      _PEIE 005E                      u7100 0424  
                    u7020 0389                      u7101 0423                      u7021 0388  
                    u7005 035B                      _INTE 005C                      u5510 09C5  
                    u7110 043F                      u7030 03A1                      u5511 09C4  
                    u7111 043E                      u7031 03A0                      u7015 037F  
                    _RBIE 005B                      u5520 09CB                      u6400 07A0  
                    u7200 04CE                      u7120 0454                      u7040 03AE  
                    u5521 09CA                      u6401 079C                      u6305 0750  
                    u6225 0709                      u7201 04CD                      u7121 0453  
                    u7041 03AD                      u5530 09DA                      u5610 0BEE  
                    u7210 051F                      u7130 045D                      u7050 03D1  
                    u5531 09D9                      u5611 0BED                      u6315 0759  
                    u6235 0715                      u7211 051E                      u7131 045C  
                    u7051 03D0                      u7035 039D                      _RCIE 0465  
                    u5540 09E8                      u6500 07DF                      u6420 07AA  
                    u7220 059E                      u7140 0461                      u7060 03E8  
                    _RCIF 0065                      u5541 09E7                      u5605 0BDF  
                    u6501 07DB                      u6421 07A6                      u6325 075E  
                    u6245 0722                      u7221 059D                      u7141 0460  
                    u7061 03E7                      u7045 03AA                      u5550 0AB8  
                    u5630 0C01                      u5710 0BC6                      u6414 07A3  
                    u7230 05A2                      u7150 0476                      u7070 03F4  
                    u5551 0AB7                      u5631 0C00                      u5711 0BC5  
                    u6335 0767                      u6255 072F                      u7231 05A1  
                    u7151 0475                      u7071 03F3                      u7055 03CD  
                    u4920 0D77                      u6520 07E9                      u6440 07B4  
                    u6600 0C5B                      u7240 05AF                      u7160 0484  
                    u7080 03FF                      u4921 0D76                      u5625 0BF1  
                    u5705 0BBA                      u6521 07E5                      u6441 07B0  
                    u6345 076C                      u6265 0734                      u6601 0C5A  
                    u7241 05AE                      u7161 0483                      u7081 03FE  
                    u4930 0D88                      u5650 0C16                      u6514 07E2  
                    u6434 07AD                      u6610 0C6C                      u7250 05C4  
                    u7170 048F                      u7090 0418                      u4931 0D87  
                    u5651 0C15                      u5635 0BFD                      u6355 0775  
                    u6275 073D                      u6611 0C6B                      u7307 0B28  
                    u7251 05C3                      u7171 048E                      u7091 0417  
                    u4940 0DA0                      u5580 0AD2                      u5660 0B92  
                    u6540 07F3                      u6460 07BE                      u6620 0C7E  
                    u7260 05DB                      u7180 04A9                      u6700 00CC  
                    u4941 0D9F                      u5581 0AD1                      u5565 0ABF  
                    u5645 0C0A                      u5661 0B91                      u6541 07EF  
                    u6461 07BA                      u6365 077A                      u6285 0742  
                    u6621 0C7D                      u7317 0B3C                      u7261 05DA  
                    u7245 05AB                      u7181 04A8                      u6701 00CB  
                    u4950 0DB1                      u5590 0BDA                      u6534 07EC  
                    u6454 07B7                      u6630 0C90                      u7190 04C2  
                    u6710 00EC                      u4951 0DB0                      u5575 0AC6  
                    u5591 0BD9                      u6375 0783                      u6295 074B  
                    u6631 0C8F                      u7407 0C84                      u7327 0A4B  
                    u7191 04C1                      u7095 0414                      u6711 00EB  
                    u4960 0DC9                      u5680 0BA6                      u6480 07D5  
                    u6560 0AE4                      u6640 0B10                      u6800 01C0  
                    u6720 00FD                      u4961 0DC8                      u5681 0BA5  
                    u6481 07D1                      u6385 0788                      u6561 0AE3  
                    u7417 0C95                      u7337 0A5E                      u6641 0B0F  
                    u7185 04A5                      u6801 01BF                      u6721 00FC  
                    u4970 0DDA                      u5690 0BB2                      u6554 07F6  
                    u6474 07C1                      u6570 0B05                      u6650 0B1A  
                    u6810 01DB                      u6730 013F                      _OERR 00C1  
                    u4971 0DD9                      u5691 0BB1                      u5675 0B97  
                    u6395 0791                      u6571 0B04                      u7427 0AEF  
                    u7347 09F2                      u6651 0B19                      u7195 04BE  
                    u6811 01DA                      u6731 013E                      u4980 0DF2  
                    u6580 0C37                      u6900 02BF                      u6820 022B  
                    u6740 0151                      u6660 0023                      u4981 0DF1  
                    u7437 0A3E                      u6581 0C36                      u7357 0A04  
                    u6901 02BE                      u6821 022A                      u6661 0022  
                    u7277 062A                      u4990 0E03                      u6494 07D8  
                    u6590 0C49                      u6910 02CB                      u6830 023B  
                    u6750 0160                      u6670 0065                      u4991 0E02  
                    u5695 0BAE                      u6591 0C48                      u7367 0C3D  
                    u6911 02CA                      u6831 023A                      u6815 01D7  
                    u6751 015F                      u6671 0064                      u7287 065B  
                    u6920 02D6                      u6840 0258                      u6760 0170  
                    u6680 007A                      u7377 0C4F                      u6921 02D5  
                    u6905 02BB                      u6841 0257                      u6761 016F  
                    u6681 0079                      u7297 068C                      u6930 02F3  
                    u6850 025E                      u6770 017E                      u6690 00BC  
                    u7387 0C60                      u6931 02F2                      u6851 025D  
                    u6771 017D                      u6755 015C                      u6691 00BB  
                    u6940 02FF                      u6860 026E                      u6780 0199  
                    u7397 0C72                      u6941 02FE                      u6861 026D  
                    u6781 0198                      u6765 016C                      u6950 031B  
                    u6870 028B                      u6790 01BC                      u6951 031A  
                    u6935 02EF                      u6871 028A                      u6791 01BB  
                    u6960 032A                      u6880 0297                      u6961 0329  
                    u6881 0296                      u6785 0195                      u6970 0335  
                    u6890 02A2                      u6971 0334                      u6891 02A1  
                    u6875 0287                      u6795 01B8                      u6980 0341  
                    u6981 0340                      u6990 034C                      u6991 034B  
                    _SPEN 00C7                      _TXIE 0464                      _WREN 0C62  
                    _TXEN 04C5                      _TXIF 0064                      _SYNC 04C4  
                    _bit0 03D8                      _bit1 03D9                      _bit2 03DA  
                    _bit3 03DB                      _bit4 03DC                      _bit5 03DD  
                    _bit6 03DE                      _bit7 03DF                      _ldr1 0053  
                    _ldr2 0055                      _main 05DE                      _hour 0051  
                    btemp 007E                      _wtmp 0064           _enableInterrupt 09A8  
                    start 0012         ___bmul@multiplier 0023                     ??_isr 0076  
                   _ADDEN 00C3                     ?_main 0070                     _BCLIE 046B  
                   _EEADR 010D                     STR_10 087F                     STR_11 0890  
                   _CARRY 0018           __end_of___lwdiv 0C20           __end_of___lwmod 0BD0  
                   i1l811 0FFF                     i1l920 0D42                     i1l921 0D34  
                   i1l922 0D27                     i1l914 0D09                     i1l915 0D03  
                   i1l780 0EA1                     i1l924 0D25                     i1l916 0D03  
                   i1l781 0EB0                     i1l925 0D40                     i1l917 0CF0  
                   i1l782 0ECC                     i1l926 0D51                     i1l918 0D02  
                   i1l783 0EDB                     i1l927 0D51                     i1l919 0D01  
                   i1l784 0EF7                     i1l776 0E4B                     i1l785 0F07  
                   i1l777 0E5A                     i1l786 0F07                     i1l778 0E76  
                   i1l779 0E85                     i1l798 0A25                     _RCREG 001A  
                   _TMR1H 000F                     _TMR1L 000E                     _SPBRG 0099  
                   _PORTA 0005                     _PORTB 0006                     _PORTC 0007  
                   _PORTD 0008                     _PORTE 0009                     _PSPIE 0467  
                   _TRISA 0085                     _TRISB 0086                     _TRISC 0087  
                   _TRISD 0088                     _SSPIE 0463                     _TRISE 0089  
                   _TXREG 0019           __end_of_lcd_add 07FC        i1___lwmod@dividend 0072  
         __end_of_isdigit 09D2                     _state 0061                     _putch 09EC  
            position@post 0025            __pbitbssCOMMON 03D8                     pclath 000A  
                   status 0003                     wtemp0 007E        __size_ofi1___lwmod 0044  
      __size_ofi1_lcd_add 00F8              __end_of_main 0704    __size_ofi1_clr_display 001F  
                  ??_main 0043               ?i1_lcd_init 0070                    _ADCON0 001F  
                  _ADCON1 009F                    _CCP1IE 0462                    _CCP2IE 0468  
                  _ADRESH 001E                    _ADRESL 009E                    _EEDATA 010C  
                  _EECON1 018C                    _EECON2 018D   __end_of_enableInterrupt 09BB  
                  ?_putch 0070                    i1l1820 0B89                    i1l1813 0B82  
                  i1l1814 0B5C                    i1l1815 0B50                    i1l1816 0B61  
                  i1l1817 0B62                    i1l1818 0B73                    i1l1819 0B81  
                  i1l4501 0CAC                    i1l4511 0CC5                    i1l4503 0CB4  
                  i1l4521 0CEF                    i1l4513 0CCB                    i1l4505 0CB6  
                  i1l4531 0D04                    i1l4523 0CF0                    i1l4515 0CD0  
                  i1l4507 0CBD                    i1l4541 0D1F                    i1l4525 0CF7  
                  i1l4517 0CD5                    i1l4509 0CC3                    i1l4533 0D09  
                  i1l4551 0D40                    i1l4543 0D27                    i1l4535 0D0D  
                  i1l4527 0CF9                    i1l4519 0CD9                    i1l4801 0FB1  
                  i1l4545 0D2F                    i1l4537 0D11                    i1l4553 0D42  
                  i1l4529 0D00                    i1l4731 0E2E                    i1l4811 0FCA  
                  i1l4803 0FBB                    i1l4555 0D46                    i1l4547 0D36  
                  i1l4539 0D15                    i1l4741 0E69                    i1l4733 0E3E  
                  i1l4821 0FDC                    i1l4813 0FCD                    i1l4805 0FC5  
                  i1l4557 0D47                    i1l4549 0D3E                    i1l4751 0E96  
                  i1l4743 0E6B                    i1l4735 0E40                    i1l4831 0FFE  
                  i1l4823 0FE6                    i1l4815 0FCE                    i1l4807 0FC6  
                  i1l4559 0D4F                    i1l4761 0ECB                    i1l4753 0EA0  
                  i1l4745 0E75                    i1l4737 0E4A                    i1l4841 0B5C  
                  i1l4833 0B46                    i1l4825 0FF0                    i1l4817 0FD1  
                  i1l4809 0FC9                    i1l4497 0C9B                    i1l4771 0EF7  
                  i1l4763 0ECC                    i1l4755 0EA1                    i1l4747 0E76  
                  i1l4739 0E4B                    i1l4843 0B62                    i1l4835 0B4C  
                  i1l4851 0B82                    i1l4827 0FFA                    i1l4819 0FD2  
                  i1l4499 0C9F                    i1l4765 0EEA                    i1l4757 0EBF  
                  i1l4749 0E94                    i1l4853 0B89                    i1l4845 0B6C  
                  i1l4837 0B50                    i1l4829 0FFB                    i1l4781 0A19  
                  i1l4773 0A07                    i1l4767 0EEC                    i1l4759 0EC1  
                  i1l4847 0B73                    i1l4839 0B57                    i1l4791 0F98  
                  i1l4783 0A22                    i1l4775 0A0A                    i1l4769 0EF6  
                  i1l4849 0B7A                    i1l4793 0F99                    i1l4785 0F08  
                  i1l4777 0A0F                    i1l4795 0F9C                    i1l4787 0F2F  
                  i1l4779 0A14                    i1l4797 0F9D                    i1l4789 0F95  
                  i1l4799 0FA7                    u600_20 0FA4                    u520_20 0D25  
                  u512_20 0C9F                    u600_21 0FA0                    u520_21 0D24  
                  u512_21 0C9E                    u521_20 0D46                    u513_20 0CAC  
                  u521_21 0D45                    u513_21 0CAB                    u601_24 0FA7  
                  u610_20 0FE3                    u602_20 0FAE                    u514_20 0CBD  
                  u610_21 0FDF                    u602_21 0FAA                    u514_21 0CBC  
                  u515_20 0CF7                    u515_21 0CF6                    u611_24 0FE6  
                  u603_24 0FB1                    u612_20 0FED                    u604_20 0FB8  
                  u516_20 0D0D                    u612_21 0FE9                    u604_21 0FB4  
                  u516_21 0D0C                    u620_25 0B74                    u621_20 0B80  
                  u517_20 0D11                    u621_21 0B7F                    u517_21 0D10  
                  u613_24 0FF0                    u605_24 0FBB                    u614_20 0FF7  
                  u606_20 0FC2                    u518_20 0D15                    u614_21 0FF3  
                  u606_21 0FBE                    u518_21 0D14                    u519_20 0D1F  
                  u519_21 0D1E                    u615_24 0FFA                    u607_24 0FC5  
                  u616_20 0B4C                    u608_20 0FD9                    u616_21 0B4B  
                  u608_21 0FD5                    u609_24 0FDC                    u617_25 0B51  
                  u618_20 0B60                    u618_21 0B5F                    u619_20 0B6C  
                  u619_21 0B6B                    u619_25 0B68                    u580_20 0EF5  
                  u572_20 0E49                    u580_21 0EF4                    u572_21 0E48  
                  u581_20 0F06                    u573_20 0E5A                    u581_21 0F05  
                  u573_21 0E59                    u574_20 0E74                    u574_21 0E73  
                  u590_25 0F54                    u582_25 0F0D                    u575_20 0E85  
                  u575_21 0E84                    u591_25 0F5D                    u583_25 0F19  
                  u576_20 0E9F                    u576_21 0E9E                    u592_25 0F62  
                  u584_25 0F26                    u744_27 0A0C                    u577_20 0EB0  
                  u577_21 0EAF                    u593_25 0F6B                    u585_25 0F33  
                  u745_27 0A1D                    u578_20 0ECA                    u578_21 0EC9  
                  u594_25 0F70                    u586_25 0F38                    u579_20 0EDB  
                  u579_21 0EDA                    u595_25 0F79                    u587_25 0F41  
                  u596_25 0F7E                    u588_25 0F46                    _TMR1IE 0460  
                  _TMR1IF 0060                    u597_25 0F87                    u589_25 0F4F  
                  _TMR1CS 0081                    _TMR2IE 0461                    u598_25 0F8C  
                  u599_25 0F95                    _TMR1ON 0080      __size_of_clr_display 0021  
           ??_Serial_Init 0020             ??_Timer1_Init 0020          __end_of_lcd_init 0E2E  
                  ___bmul 09D2                    _bed_nu 0068                    ___wmul 0AAF  
               ??___lwdiv 0024                 ??___lwmod 002C                    _buffer 00A0  
                  _minute 0057                    _second 005B                    _printf 0015  
               ??_lcd_add 0020                    clrloop 0989         __end_ofi1___lwmod 0B8A  
               ??_isdigit 0020                    saved_w 007E          __end_of_position 0B46  
       __end_ofi1_lcd_add 1000     __end_of_Setup_IOports 0A8B             i1_clr_display 0A07  
     ___bmul@multiplicand 0020            __pcstackCOMMON 0070       __size_ofi1_lcd_init 00DA  
     __end_of_Serial_Init 0A46              __pidataBANK0 07FC             __end_of_putch 0A07  
     __end_of_Timer1_Init 09A8        __size_of_bdnu_unid 007B            _HeartRateCount 004B  
      __size_of_atod_init 0009                   ??_putch 0022          ?_enableInterrupt 0070  
          ?i1_clr_display 0070                __pbssBANK0 0046                __pbssBANK1 00A0  
           ?_Serial_Print 0070                __pmaintext 05DE                   ?___bmul 0020  
                 ?___wmul 0020                __pintentry 0004                   ?_printf 002E  
                 _T1CKPS0 0084                   _T1CKPS1 0085                   _T1OSCEN 0083  
               ?_lcd_init 0070            ??_Serial_Print 0020         __end_of_bdnu_unid 0C9B  
             _Serial_Init 0A26             Serial_Print@a 0021               _Timer1_Init 0999  
       __end_of_atod_init 0999           __size_of___bmul 001A                 ?_position 0022  
         __size_of___wmul 002C                   ___lwdiv 0BD0                   ___lwmod 0B8A  
                 _lcd_add 0704                   _lcd_bus 005E           __size_of_printf 05C9  
                 _dpowers 0812                   _isdigit 09BB              __size_of_isr 00C1  
                 _msecond 0059              ??i1_lcd_init 0070           ??i1_clr_display 0072  
          position@collum 0022                ??_lcd_init 0020              _lcd_data_low 007D  
    end_of_initialization 0AAB                   printf@c 0040                   printf@f 0039  
              ??_position 0023        __end_ofi1_lcd_init 0F08                 i1___lwmod 0B46  
           ??_clr_display 0022                 i1_lcd_add 0F08          putch@print_value 0023  
             printf@width 003B                 _HeartRate 0049            __end_of___bmul 09EC  
    __end_of_Serial_Print 0B07            __end_of___wmul 0ADB         i1___lwmod@divisor 0070  
       i1___lwmod@counter 0075               position@row 0026            __end_of_printf 05DE  
     start_initialization 0A8B               __end_of_isr 0D5C                ?i1___lwmod 0070  
              ?i1_lcd_add 0070             _analogReadVal 004D       __end_of_clr_display 0A67  
                ??___bmul 0021                  ??___wmul 0024               __pdataBANK0 0068  
  __size_of_Setup_IOports 0024                  ??_printf 0030               __pbssCOMMON 007D  
           __pcstackBANK0 0020              _isdigit$1750 0020         __size_of_lcd_init 00D2  
            ?_Serial_Init 0070  __size_of_enableInterrupt 0013              ?_Timer1_Init 0070  
               _bdnu_unid 0C20          ___lwdiv@dividend 0022                 __ptext640 09EC  
               __ptext641 0C20                 __ptext650 0999                 __ptext642 0ADB  
               __ptext651 09A8                 __ptext643 0A26                 __ptext660 0000  
               __ptext652 0990                 __ptext644 0704                 __ptext653 0D5C  
               __ptext645 0B8A                 __ptext637 0015                 __ptext654 0A67  
               __ptext646 0BD0                 __ptext638 0B07                 __ptext655 0C9B  
               __ptext647 0AAF                 __ptext639 0A46                 __ptext656 0A07  
               __ptext648 09D2                 __ptext657 0F08                 __ptext649 09BB  
               __ptext658 0B46                 __ptext659 0E2E                 _heartRate 004F  
                ?___lwdiv 0020                  ?___lwmod 0028                 _atod_init 0990  
       __size_of_position 003F                 __pstrings 0800                  ?_lcd_add 0070  
                ?_isdigit 0070                 _hexpowers 081C          ___lwdiv@quotient 0025  
             ??i1___lwmod 0074               _clr_display 0A46            __size_of_putch 001B  
           _Setup_IOports 0A67               ??i1_lcd_add 0070         interrupt_function 0004  
          ___wmul@product 0024                 _octpowers 0806                ?_bdnu_unid 0070  
   __size_of_Serial_Print 002C                ?_atod_init 0070               __stringbase 0805  
       ___wmul@multiplier 0020                printf@_val 003D                printf@flag 0041  
              printf@prec 003A            ?_Setup_IOports 0070     __end_ofi1_clr_display 0A26  
            _Serial_Print 0ADB          lcd_init@DelayLCD 0020         ??_enableInterrupt 0020  
        __size_of___lwdiv 0050          __size_of___lwmod 0046          __size_of_lcd_add 00F8  
        __size_of_isdigit 0017           ___lwdiv@divisor 0020           ___lwdiv@counter 0027  
                _lcd_data 005F                  _lcd_init 0D5C             __size_of_main 0126  
                clear_ram 0988               ??_bdnu_unid 0020      __size_of_Serial_Init 0020  
    __size_of_Timer1_Init 000F                  _position 0B07             _lcd_data_high 0060  
             ??_atod_init 0020           ??_Setup_IOports 0020                  isdigit@c 0021  
                intlevel1 0000          ___lwmod@dividend 002A                 stringcode 0800  
                printf@ap 0038               _printf$1391 0033               _printf$1392 0035  
             _printf$1395 0037               _temperature 0046           ___lwmod@divisor 0028  
         ___lwmod@counter 002D                  stringdir 0800                  stringtab 0800  
            ?_clr_display 0070        i1lcd_init@DelayLCD 0070  
